
a.out:     file format elf64-s390

SYMBOL TABLE:
0000000000000238 l    d  .interp	0000000000000000              .interp
0000000000000248 l    d  .note.gnu.build-id	0000000000000000              .note.gnu.build-id
000000000000026c l    d  .note.ABI-tag	0000000000000000              .note.ABI-tag
0000000000000290 l    d  .gnu.hash	0000000000000000              .gnu.hash
00000000000002b8 l    d  .dynsym	0000000000000000              .dynsym
0000000000000480 l    d  .dynstr	0000000000000000              .dynstr
0000000000000556 l    d  .gnu.version	0000000000000000              .gnu.version
0000000000000580 l    d  .gnu.version_r	0000000000000000              .gnu.version_r
00000000000005c0 l    d  .rela.dyn	0000000000000000              .rela.dyn
00000000000009e0 l    d  .rela.plt	0000000000000000              .rela.plt
0000000000000b18 l    d  .init	0000000000000000              .init
0000000000000b58 l    d  .plt	0000000000000000              .plt
0000000000000d18 l    d  .text	0000000000000000              .text
00000000000011d0 l    d  .fini	0000000000000000              .fini
0000000000001200 l    d  .rodata	0000000000000000              .rodata
0000000000001428 l    d  .eh_frame_hdr	0000000000000000              .eh_frame_hdr
0000000000001470 l    d  .eh_frame	0000000000000000              .eh_frame
0000000000002cb0 l    d  .init_array	0000000000000000              .init_array
0000000000002cb8 l    d  .fini_array	0000000000000000              .fini_array
0000000000002cc0 l    d  .data.rel.ro	0000000000000000              .data.rel.ro
0000000000002de0 l    d  .dynamic	0000000000000000              .dynamic
0000000000002fc0 l    d  .got	0000000000000000              .got
0000000000003000 l    d  .got.plt	0000000000000000              .got.plt
0000000000003068 l    d  .data	0000000000000000              .data
0000000000003078 l    d  .bss	0000000000000000              .bss
0000000000000000 l    d  .comment	0000000000000000              .comment
0000000000000000 l    d  .debug_aranges	0000000000000000              .debug_aranges
0000000000000000 l    d  .debug_info	0000000000000000              .debug_info
0000000000000000 l    d  .debug_abbrev	0000000000000000              .debug_abbrev
0000000000000000 l    d  .debug_line	0000000000000000              .debug_line
0000000000000000 l    d  .debug_str	0000000000000000              .debug_str
0000000000000000 l    d  .debug_loclists	0000000000000000              .debug_loclists
0000000000000000 l    df *ABS*	0000000000000000              Scrt1.o
000000000000026c l     O .note.ABI-tag	0000000000000020              __abi_tag
0000000000000000 l    df *ABS*	0000000000000000              crtstuff.c
0000000000000d60 l     F .text	0000000000000000              deregister_tm_clones
0000000000000d80 l     F .text	0000000000000000              register_tm_clones
0000000000000dc0 l     F .text	0000000000000000              __do_global_dtors_aux
0000000000003078 l     O .bss	0000000000000001              completed.0
0000000000002cb8 l     O .fini_array	0000000000000000              __do_global_dtors_aux_fini_array_entry
0000000000000e08 l     F .text	0000000000000000              frame_dummy
0000000000002cb0 l     O .init_array	0000000000000000              __frame_dummy_init_array_entry
0000000000000000 l    df *ABS*	0000000000000000              morse.c
0000000000003080 l     O .bss	0000000000000008              fp
0000000000002cc0 l     O .data.rel.ro	0000000000000120              morse_tbl
0000000000000000 l    df *ABS*	0000000000000000              crtstuff.c
00000000000015ac l     O .eh_frame	0000000000000000              __FRAME_END__
0000000000000000 l    df *ABS*	0000000000000000              
0000000000002de0 l     O *ABS*	0000000000000000              _DYNAMIC
0000000000001428 l       .eh_frame_hdr	0000000000000000              __GNU_EH_FRAME_HDR
0000000000002fc0 l     O *ABS*	0000000000000000              _GLOBAL_OFFSET_TABLE_
0000000000000000  w    F *UND*	0000000000000000              __cxa_finalize@GLIBC_2.2
0000000000000000       F *UND*	0000000000000000              __libc_start_main@GLIBC_2.34
0000000000000000  w      *UND*	0000000000000000              _ITM_deregisterTMCloneTable
0000000000003068  w      .data	0000000000000000              data_start
0000000000000000       F *UND*	0000000000000000              printf@GLIBC_2.4
0000000000000000       F *UND*	0000000000000000              fopen@GLIBC_2.2
0000000000000000       F *UND*	0000000000000000              fflush@GLIBC_2.2
0000000000000000       F *UND*	0000000000000000              nanosleep@GLIBC_2.2
0000000000000fc8 g     F .text	0000000000000040              io_write
0000000000001158 g     F .text	0000000000000036              morse
0000000000003078 g       .data	0000000000000000              _edata
0000000000001048 g     F .text	000000000000010e              morse_letter
00000000000011d0 g     F .fini	0000000000000000              .hidden _fini
0000000000000e10 g     F .text	00000000000001b2              io_init
0000000000000000       F *UND*	0000000000000000              fwrite@GLIBC_2.2
0000000000003068 g       .data	0000000000000000              __data_start
0000000000000000       F *UND*	0000000000000000              puts@GLIBC_2.2
0000000000000000  w      *UND*	0000000000000000              __gmon_start__
0000000000003070 g     O .data	0000000000000000              .hidden __dso_handle
0000000000000000       F *UND*	0000000000000000              exit@GLIBC_2.2
0000000000001200 g     O .rodata	0000000000000004              _IO_stdin_used
0000000000000000       F *UND*	0000000000000000              fprintf@GLIBC_2.4
0000000000001008 g     F .text	000000000000003e              fsleep
0000000000003088 g       .bss	0000000000000000              _end
0000000000000d18 g     F .text	0000000000000000              _start
0000000000003078 g       .bss	0000000000000000              __bss_start
0000000000001190 g     F .text	000000000000003a              main
0000000000000000       F *UND*	0000000000000000              fputc@GLIBC_2.2
0000000000000000       F *UND*	0000000000000000              sprintf@GLIBC_2.4
0000000000000000       F *UND*	0000000000000000              fclose@GLIBC_2.2
0000000000003078 g     O .data	0000000000000000              .hidden __TMC_END__
0000000000000000  w      *UND*	0000000000000000              _ITM_registerTMCloneTable
0000000000000b18 g     F .init	0000000000000000              .hidden _init



Disassembly of section .init:

0000000000000b18 <_init>:
 b18:	eb 6f f0 30 00 24 	stmg	%r6,%r15,48(%r15)
 b1e:	b9 04 00 1f       	lgr	%r1,%r15
 b22:	a7 fb ff 60       	aghi	%r15,-160
 b26:	e3 10 f0 00 00 24 	stg	%r1,0(%r15)
 b2c:	c0 c0 00 00 12 4a 	larl	%r12,2fc0 <_GLOBAL_OFFSET_TABLE_>
 b32:	c0 10 00 00 12 5b 	larl	%r1,2fe8 <__gmon_start__@Base>
 b38:	e3 10 10 00 00 04 	lg	%r1,0(%r1)
 b3e:	b9 02 00 11       	ltgr	%r1,%r1
 b42:	a7 84 00 03       	je	b48 <_init+0x30>
 b46:	0d e1             	basr	%r14,%r1
 b48:	e3 40 f1 10 00 04 	lg	%r4,272(%r15)
 b4e:	eb 6f f0 d0 00 04 	lmg	%r6,%r15,208(%r15)
 b54:	07 f4             	br	%r4
 b56:	07 07             	nopr	%r7

Disassembly of section .plt:

0000000000000b58 <.plt>:
 b58:	e3 10 f0 38 00 24 	stg	%r1,56(%r15)
 b5e:	c0 10 00 00 12 31 	larl	%r1,2fc0 <_GLOBAL_OFFSET_TABLE_>
 b64:	d2 07 f0 30 10 08 	mvc	48(8,%r15),8(%r1)
 b6a:	e3 10 10 10 00 04 	lg	%r1,16(%r1)
 b70:	07 f1             	br	%r1
 b72:	07 00             	nopr
 b74:	07 00             	nopr
 b76:	07 00             	nopr

0000000000000b78 <__cxa_finalize@plt>:
 b78:	c0 10 00 00 12 44 	larl	%r1,3000 <__cxa_finalize@GLIBC_2.2>
 b7e:	e3 10 10 00 00 04 	lg	%r1,0(%r1)
 b84:	07 f1             	br	%r1
 b86:	0d 10             	basr	%r1,%r0
 b88:	e3 10 10 0c 00 14 	lgf	%r1,12(%r1)
 b8e:	c0 f4 ff ff ff e5 	jg	b58 <.plt>
 b94:	00 00 00 00       	.long	0x00000000

0000000000000b98 <__libc_start_main@plt>:
 b98:	c0 10 00 00 12 38 	larl	%r1,3008 <__libc_start_main@GLIBC_2.34>
 b9e:	e3 10 10 00 00 04 	lg	%r1,0(%r1)
 ba4:	07 f1             	br	%r1
 ba6:	0d 10             	basr	%r1,%r0
 ba8:	e3 10 10 0c 00 14 	lgf	%r1,12(%r1)
 bae:	c0 f4 ff ff ff d5 	jg	b58 <.plt>
 bb4:	00 00 00 18       	.long	0x00000018

0000000000000bb8 <printf@plt>:
 bb8:	c0 10 00 00 12 2c 	larl	%r1,3010 <printf@GLIBC_2.4>
 bbe:	e3 10 10 00 00 04 	lg	%r1,0(%r1)
 bc4:	07 f1             	br	%r1
 bc6:	0d 10             	basr	%r1,%r0
 bc8:	e3 10 10 0c 00 14 	lgf	%r1,12(%r1)
 bce:	c0 f4 ff ff ff c5 	jg	b58 <.plt>
 bd4:	00 00 00 30       	.long	0x00000030

0000000000000bd8 <fopen@plt>:
 bd8:	c0 10 00 00 12 20 	larl	%r1,3018 <fopen@GLIBC_2.2>
 bde:	e3 10 10 00 00 04 	lg	%r1,0(%r1)
 be4:	07 f1             	br	%r1
 be6:	0d 10             	basr	%r1,%r0
 be8:	e3 10 10 0c 00 14 	lgf	%r1,12(%r1)
 bee:	c0 f4 ff ff ff b5 	jg	b58 <.plt>
 bf4:	00 00 00 48       	.long	0x00000048

0000000000000bf8 <fflush@plt>:
 bf8:	c0 10 00 00 12 14 	larl	%r1,3020 <fflush@GLIBC_2.2>
 bfe:	e3 10 10 00 00 04 	lg	%r1,0(%r1)
 c04:	07 f1             	br	%r1
 c06:	0d 10             	basr	%r1,%r0
 c08:	e3 10 10 0c 00 14 	lgf	%r1,12(%r1)
 c0e:	c0 f4 ff ff ff a5 	jg	b58 <.plt>
 c14:	00 00 00 60       	.long	0x00000060

0000000000000c18 <nanosleep@plt>:
 c18:	c0 10 00 00 12 08 	larl	%r1,3028 <nanosleep@GLIBC_2.2>
 c1e:	e3 10 10 00 00 04 	lg	%r1,0(%r1)
 c24:	07 f1             	br	%r1
 c26:	0d 10             	basr	%r1,%r0
 c28:	e3 10 10 0c 00 14 	lgf	%r1,12(%r1)
 c2e:	c0 f4 ff ff ff 95 	jg	b58 <.plt>
 c34:	00 00 00 78       	.long	0x00000078

0000000000000c38 <fwrite@plt>:
 c38:	c0 10 00 00 11 fc 	larl	%r1,3030 <fwrite@GLIBC_2.2>
 c3e:	e3 10 10 00 00 04 	lg	%r1,0(%r1)
 c44:	07 f1             	br	%r1
 c46:	0d 10             	basr	%r1,%r0
 c48:	e3 10 10 0c 00 14 	lgf	%r1,12(%r1)
 c4e:	c0 f4 ff ff ff 85 	jg	b58 <.plt>
 c54:	00 00 00 90       	.long	0x00000090

0000000000000c58 <puts@plt>:
 c58:	c0 10 00 00 11 f0 	larl	%r1,3038 <puts@GLIBC_2.2>
 c5e:	e3 10 10 00 00 04 	lg	%r1,0(%r1)
 c64:	07 f1             	br	%r1
 c66:	0d 10             	basr	%r1,%r0
 c68:	e3 10 10 0c 00 14 	lgf	%r1,12(%r1)
 c6e:	c0 f4 ff ff ff 75 	jg	b58 <.plt>
 c74:	00 00 00 a8       	.long	0x000000a8

0000000000000c78 <exit@plt>:
 c78:	c0 10 00 00 11 e4 	larl	%r1,3040 <exit@GLIBC_2.2>
 c7e:	e3 10 10 00 00 04 	lg	%r1,0(%r1)
 c84:	07 f1             	br	%r1
 c86:	0d 10             	basr	%r1,%r0
 c88:	e3 10 10 0c 00 14 	lgf	%r1,12(%r1)
 c8e:	c0 f4 ff ff ff 65 	jg	b58 <.plt>
 c94:	00 00 00 c0       	.long	0x000000c0

0000000000000c98 <fprintf@plt>:
 c98:	c0 10 00 00 11 d8 	larl	%r1,3048 <fprintf@GLIBC_2.4>
 c9e:	e3 10 10 00 00 04 	lg	%r1,0(%r1)
 ca4:	07 f1             	br	%r1
 ca6:	0d 10             	basr	%r1,%r0
 ca8:	e3 10 10 0c 00 14 	lgf	%r1,12(%r1)
 cae:	c0 f4 ff ff ff 55 	jg	b58 <.plt>
 cb4:	00 00 00 d8       	.long	0x000000d8

0000000000000cb8 <fputc@plt>:
 cb8:	c0 10 00 00 11 cc 	larl	%r1,3050 <fputc@GLIBC_2.2>
 cbe:	e3 10 10 00 00 04 	lg	%r1,0(%r1)
 cc4:	07 f1             	br	%r1
 cc6:	0d 10             	basr	%r1,%r0
 cc8:	e3 10 10 0c 00 14 	lgf	%r1,12(%r1)
 cce:	c0 f4 ff ff ff 45 	jg	b58 <.plt>
 cd4:	00 00 00 f0       	.long	0x000000f0

0000000000000cd8 <sprintf@plt>:
 cd8:	c0 10 00 00 11 c0 	larl	%r1,3058 <sprintf@GLIBC_2.4>
 cde:	e3 10 10 00 00 04 	lg	%r1,0(%r1)
 ce4:	07 f1             	br	%r1
 ce6:	0d 10             	basr	%r1,%r0
 ce8:	e3 10 10 0c 00 14 	lgf	%r1,12(%r1)
 cee:	c0 f4 ff ff ff 35 	jg	b58 <.plt>
 cf4:	00 00 01 08       	.long	0x00000108

0000000000000cf8 <fclose@plt>:
 cf8:	c0 10 00 00 11 b4 	larl	%r1,3060 <fclose@GLIBC_2.2>
 cfe:	e3 10 10 00 00 04 	lg	%r1,0(%r1)
 d04:	07 f1             	br	%r1
 d06:	0d 10             	basr	%r1,%r0
 d08:	e3 10 10 0c 00 14 	lgf	%r1,12(%r1)
 d0e:	c0 f4 ff ff ff 25 	jg	b58 <.plt>
 d14:	00 00 01 20       	.long	0x00000120

Disassembly of section .text:

0000000000000d18 <_start>:
     d18:	41 40 f0 08       	la	%r4,8(%r15)
     d1c:	e3 30 f0 00 00 04 	lg	%r3,0(%r15)
     d22:	a7 09 ff f0       	lghi	%r0,-16
     d26:	b9 80 00 f0       	ngr	%r15,%r0
     d2a:	a7 fb ff 50       	aghi	%r15,-176
     d2e:	d7 07 f0 00 f0 00 	xc	0(8,%r15),0(%r15)
     d34:	eb ef f0 a0 00 24 	stmg	%r14,%r15,160(%r15)
     d3a:	41 70 f0 a0       	la	%r7,160(%r15)
     d3e:	a7 69 00 00       	lghi	%r6,0
     d42:	a7 59 00 00       	lghi	%r5,0
     d46:	c0 20 00 00 11 55 	larl	%r2,2ff0 <_GLOBAL_OFFSET_TABLE_+0x30>
     d4c:	e3 20 20 00 00 04 	lg	%r2,0(%r2)
     d52:	c0 e5 ff ff ff 23 	brasl	%r14,b98 <__libc_start_main@plt>
     d58:	00 00 07 07       	.long	0x00000707
     d5c:	07 07             	nopr	%r7
     d5e:	07 07             	nopr	%r7

0000000000000d60 <deregister_tm_clones>:
     d60:	c0 10 00 00 11 8c 	larl	%r1,3078 <__TMC_END__>
     d66:	c0 20 00 00 11 89 	larl	%r2,3078 <__TMC_END__>
     d6c:	b9 20 00 12       	cgr	%r1,%r2
     d70:	07 8e             	ber	%r14
     d72:	c4 18 00 00 11 37 	lgrl	%r1,2fe0 <_ITM_deregisterTMCloneTable@Base>
     d78:	b9 02 00 11       	ltgr	%r1,%r1
     d7c:	07 8e             	ber	%r14
     d7e:	07 f1             	br	%r1

0000000000000d80 <register_tm_clones>:
     d80:	c0 20 00 00 11 7c 	larl	%r2,3078 <__TMC_END__>
     d86:	c0 10 00 00 11 79 	larl	%r1,3078 <__TMC_END__>
     d8c:	b9 09 00 12       	sgr	%r1,%r2
     d90:	eb 21 00 03 00 0a 	srag	%r2,%r1,3
     d96:	eb 31 00 3f 00 0c 	srlg	%r3,%r1,63
     d9c:	b9 08 00 32       	agr	%r3,%r2
     da0:	eb 33 00 01 00 0a 	srag	%r3,%r3,1
     da6:	b9 02 00 33       	ltgr	%r3,%r3
     daa:	07 8e             	ber	%r14
     dac:	c4 18 00 00 11 26 	lgrl	%r1,2ff8 <_ITM_registerTMCloneTable@Base>
     db2:	b9 02 00 11       	ltgr	%r1,%r1
     db6:	07 8e             	ber	%r14
     db8:	c0 20 00 00 11 60 	larl	%r2,3078 <__TMC_END__>
     dbe:	07 f1             	br	%r1

0000000000000dc0 <__do_global_dtors_aux>:
     dc0:	eb bf f0 58 00 24 	stmg	%r11,%r15,88(%r15)
     dc6:	c0 b0 00 00 11 59 	larl	%r11,3078 <__TMC_END__>
     dcc:	e3 f0 ff 60 ff 71 	lay	%r15,-160(%r15)
     dd2:	95 00 b0 00       	cli	0(%r11),0
     dd6:	a7 74 00 15       	jne	e00 <__do_global_dtors_aux+0x40>
     dda:	c0 10 00 00 10 ff 	larl	%r1,2fd8 <__cxa_finalize@GLIBC_2.2>
     de0:	e3 10 10 00 00 02 	ltg	%r1,0(%r1)
     de6:	a7 84 00 08       	je	df6 <__do_global_dtors_aux+0x36>
     dea:	c4 28 00 00 11 43 	lgrl	%r2,3070 <__dso_handle>
     df0:	c0 e5 ff ff fe c4 	brasl	%r14,b78 <__cxa_finalize@plt>
     df6:	c0 e5 ff ff ff b5 	brasl	%r14,d60 <deregister_tm_clones>
     dfc:	92 01 b0 00       	mvi	0(%r11),1
     e00:	eb bf f0 f8 00 04 	lmg	%r11,%r15,248(%r15)
     e06:	07 fe             	br	%r14

0000000000000e08 <frame_dummy>:
     e08:	c0 f4 ff ff ff bc 	jg	d80 <register_tm_clones>
     e0e:	07 07             	nopr	%r7

0000000000000e10 <io_init>:
# /* 
#  * IO Functions
#  */
# static FILE* fp = NULL;
# void io_init(const int pin)
# {	
     e10:	eb 9f f0 48 00 24 	stmg	%r9,%r15,72(%r15)
     e16:	e3 f0 ff 20 ff 71 	lay	%r15,-224(%r15)
     e1c:	b9 04 00 b2       	lgr	%r11,%r2
# 	char path[64];
# 	/* Open GPIO direction for writing */
# 	sprintf(path,"/sys/class/gpio/gpio%d/direction",pin);
     e20:	ec af 00 a0 00 d9 	aghik	%r10,%r15,160
     e26:	b9 04 00 42       	lgr	%r4,%r2
     e2a:	c0 30 00 00 01 ed 	larl	%r3,1204 <_IO_stdin_used+0x4>
     e30:	b9 04 00 2a       	lgr	%r2,%r10
     e34:	c0 e5 ff ff ff 52 	brasl	%r14,cd8 <sprintf@plt>
# 	printf("Opening Direction file %s\n",path);
     e3a:	b9 04 00 3a       	lgr	%r3,%r10
     e3e:	c0 20 00 00 01 f4 	larl	%r2,1226 <_IO_stdin_used+0x26>
     e44:	c0 e5 ff ff fe ba 	brasl	%r14,bb8 <printf@plt>
# 	fp = fopen(path,"w");
     e4a:	c0 30 00 00 01 fc 	larl	%r3,1242 <_IO_stdin_used+0x42>
     e50:	b9 04 00 2a       	lgr	%r2,%r10
     e54:	c0 e5 ff ff fe c2 	brasl	%r14,bd8 <fopen@plt>
     e5a:	c4 2b 00 00 11 13 	stgrl	%r2,3080 <fp>
# 	if(!fp)
     e60:	b9 02 00 22       	ltgr	%r2,%r2
     e64:	a7 84 00 4d       	je	efe <io_init+0xee>
# 			printf("ERROR: Failed to open GPIO direction\n");
# 			exit(-1);
# 		}
# 	}
# 	/* Write direction */
# 	fprintf(fp,"out");
     e68:	c0 a0 00 00 11 0c 	larl	%r10,3080 <fp>
     e6e:	e3 50 a0 00 00 04 	lg	%r5,0(%r10)
     e74:	a7 49 00 03       	lghi	%r4,3
     e78:	a7 39 00 01       	lghi	%r3,1
     e7c:	c0 20 00 00 02 25 	larl	%r2,12c6 <_IO_stdin_used+0xc6>
     e82:	c0 e5 ff ff fe db 	brasl	%r14,c38 <fwrite@plt>
# 	fclose(fp);
     e88:	e3 20 a0 00 00 04 	lg	%r2,0(%r10)
     e8e:	c0 e5 ff ff ff 35 	brasl	%r14,cf8 <fclose@plt>
# 	/* Open 'value' file */
# 	sprintf(path,"/sys/class/gpio/gpio%d/value",pin);
     e94:	ec 9f 00 a0 00 d9 	aghik	%r9,%r15,160
     e9a:	b9 04 00 4b       	lgr	%r4,%r11
     e9e:	c0 30 00 00 02 16 	larl	%r3,12ca <_IO_stdin_used+0xca>
     ea4:	b9 04 00 29       	lgr	%r2,%r9
     ea8:	c0 e5 ff ff ff 18 	brasl	%r14,cd8 <sprintf@plt>
# 	printf("Opening Value file %s\n",path);
     eae:	b9 04 00 39       	lgr	%r3,%r9
     eb2:	c0 20 00 00 02 1b 	larl	%r2,12e8 <_IO_stdin_used+0xe8>
     eb8:	c0 e5 ff ff fe 80 	brasl	%r14,bb8 <printf@plt>
# 	fp = fopen(path,"w");
     ebe:	c0 30 00 00 01 c2 	larl	%r3,1242 <_IO_stdin_used+0x42>
     ec4:	b9 04 00 29       	lgr	%r2,%r9
     ec8:	c0 e5 ff ff fe 88 	brasl	%r14,bd8 <fopen@plt>
     ece:	b9 04 00 32       	lgr	%r3,%r2
     ed2:	e3 20 a0 00 00 24 	stg	%r2,0(%r10)
# 	if(!fp)
     ed8:	b9 02 00 22       	ltgr	%r2,%r2
     edc:	a7 84 00 68       	je	fac <io_init+0x19c>
# 	{
# 		printf("ERROR: Failed to open GPIO value\n");
# 		exit(-1);
# 	}
# 	/* Initialize LED to off */
# 	fprintf(fp,"0");
     ee0:	a7 29 00 30       	lghi	%r2,48
     ee4:	c0 e5 ff ff fe ea 	brasl	%r14,cb8 <fputc@plt>
# 	fflush(fp);
     eea:	c4 28 00 00 10 cb 	lgrl	%r2,3080 <fp>
     ef0:	c0 e5 ff ff fe 84 	brasl	%r14,bf8 <fflush@plt>
# }
     ef6:	eb 9f f1 28 00 04 	lmg	%r9,%r15,296(%r15)
     efc:	07 fe             	br	%r14
# 		printf("GPIO not exported yet... doing that\n");
     efe:	c0 20 00 00 01 a3 	larl	%r2,1244 <_IO_stdin_used+0x44>
     f04:	c0 e5 ff ff fe aa 	brasl	%r14,c58 <puts@plt>
# 		fp = fopen("/sys/class/gpio/export", "w");
     f0a:	c0 30 00 00 01 9c 	larl	%r3,1242 <_IO_stdin_used+0x42>
     f10:	c0 20 00 00 01 ac 	larl	%r2,1268 <_IO_stdin_used+0x68>
     f16:	c0 e5 ff ff fe 61 	brasl	%r14,bd8 <fopen@plt>
     f1c:	c4 2b 00 00 10 b2 	stgrl	%r2,3080 <fp>
# 		if(!fp)
     f22:	b9 02 00 22       	ltgr	%r2,%r2
     f26:	a7 84 00 38       	je	f96 <io_init+0x186>
# 		fprintf(fp, "%d", pin);
     f2a:	b9 04 00 4b       	lgr	%r4,%r11
     f2e:	c0 30 00 00 01 b7 	larl	%r3,129c <_IO_stdin_used+0x9c>
     f34:	c0 e5 ff ff fe b2 	brasl	%r14,c98 <fprintf@plt>
# 		fclose(fp);
     f3a:	c0 a0 00 00 10 a3 	larl	%r10,3080 <fp>
     f40:	e3 20 a0 00 00 04 	lg	%r2,0(%r10)
     f46:	c0 e5 ff ff fe d9 	brasl	%r14,cf8 <fclose@plt>
# 		printf("Opening Direction file %s\n",path);
     f4c:	ec 9f 00 a0 00 d9 	aghik	%r9,%r15,160
     f52:	b9 04 00 39       	lgr	%r3,%r9
     f56:	c0 20 00 00 01 68 	larl	%r2,1226 <_IO_stdin_used+0x26>
     f5c:	c0 e5 ff ff fe 2e 	brasl	%r14,bb8 <printf@plt>
# 		fp = fopen(path,"w");
     f62:	c0 30 00 00 01 70 	larl	%r3,1242 <_IO_stdin_used+0x42>
     f68:	b9 04 00 29       	lgr	%r2,%r9
     f6c:	c0 e5 ff ff fe 36 	brasl	%r14,bd8 <fopen@plt>
     f72:	e3 20 a0 00 00 24 	stg	%r2,0(%r10)
# 		if(!fp)
     f78:	b9 02 00 22       	ltgr	%r2,%r2
     f7c:	a7 74 ff 76       	jne	e68 <io_init+0x58>
# 			printf("ERROR: Failed to open GPIO direction\n");
     f80:	c0 20 00 00 01 90 	larl	%r2,12a0 <_IO_stdin_used+0xa0>
     f86:	c0 e5 ff ff fe 69 	brasl	%r14,c58 <puts@plt>
# 			exit(-1);
     f8c:	a7 29 ff ff       	lghi	%r2,-1
     f90:	c0 e5 ff ff fe 74 	brasl	%r14,c78 <exit@plt>
# 			printf("ERROR: Failed to export IO\n");
     f96:	c0 20 00 00 01 75 	larl	%r2,1280 <_IO_stdin_used+0x80>
     f9c:	c0 e5 ff ff fe 5e 	brasl	%r14,c58 <puts@plt>
# 			exit(-1);
     fa2:	a7 29 ff ff       	lghi	%r2,-1
     fa6:	c0 e5 ff ff fe 69 	brasl	%r14,c78 <exit@plt>
# 		printf("ERROR: Failed to open GPIO value\n");
     fac:	c0 20 00 00 01 aa 	larl	%r2,1300 <_IO_stdin_used+0x100>
     fb2:	c0 e5 ff ff fe 53 	brasl	%r14,c58 <puts@plt>
# 		exit(-1);
     fb8:	a7 29 ff ff       	lghi	%r2,-1
     fbc:	c0 e5 ff ff fe 5e 	brasl	%r14,c78 <exit@plt>
     fc2:	07 07             	nopr	%r7
     fc4:	07 07             	nopr	%r7
     fc6:	07 07             	nopr	%r7

0000000000000fc8 <io_write>:
# 
# void io_write(bool status)
# {
     fc8:	eb ef f0 70 00 24 	stmg	%r14,%r15,112(%r15)
     fce:	e3 f0 ff 60 ff 71 	lay	%r15,-160(%r15)
# 	fprintf(fp,(status) ? "1" : "0");
     fd4:	b9 02 00 22       	ltgr	%r2,%r2
     fd8:	c0 10 00 00 01 a6 	larl	%r1,1324 <_IO_stdin_used+0x124>
     fde:	c0 30 00 00 01 a2 	larl	%r3,1322 <_IO_stdin_used+0x122>
     fe4:	b9 e2 80 31       	locgre	%r3,%r1
     fe8:	c4 28 00 00 10 4c 	lgrl	%r2,3080 <fp>
     fee:	c0 e5 ff ff fe 55 	brasl	%r14,c98 <fprintf@plt>
# 	fflush(fp);
     ff4:	c4 28 00 00 10 46 	lgrl	%r2,3080 <fp>
     ffa:	c0 e5 ff ff fd ff 	brasl	%r14,bf8 <fflush@plt>
# }
    1000:	eb ef f1 10 00 04 	lmg	%r14,%r15,272(%r15)
    1006:	07 fe             	br	%r14

0000000000001008 <fsleep>:
# 
# /* Float sleep function */
# void fsleep(double dur)
# {
    1008:	eb df f0 68 00 24 	stmg	%r13,%r15,104(%r15)
    100e:	c0 d0 00 00 01 f9 	larl	%r13,1400 <_IO_stdin_used+0x200>
    1014:	e3 f0 ff 50 ff 71 	lay	%r15,-176(%r15)
# 	struct timespec tim;
#    	tim.tv_sec = 0;
    101a:	e5 48 f0 a0 00 00 	mvghi	160(%r15),0
#    	tim.tv_nsec = dur * 1000000000.0;
    1020:	ed 00 d0 00 00 1c 	mdb	%f0,0(%r13)
    1026:	b3 a9 50 10       	cgdbr	%r1,5,%f0
    102a:	e3 10 f0 a8 00 24 	stg	%r1,168(%r15)
# 	nanosleep(&tim , NULL);
    1030:	a7 39 00 00       	lghi	%r3,0
    1034:	41 20 f0 a0       	la	%r2,160(%r15)
    1038:	c0 e5 ff ff fd f0 	brasl	%r14,c18 <nanosleep@plt>
# }
    103e:	eb df f1 18 00 04 	lmg	%r13,%r15,280(%r15)
    1044:	07 fe             	br	%r14
    1046:	07 07             	nopr	%r7

0000000000001048 <morse_letter>:
#     "----.", //9
# };
# 
# /* Function is only correct for letters and numbers, nothing else */
# void morse_letter(const char let)
# {
    1048:	eb bf f0 58 00 24 	stmg	%r11,%r15,88(%r15)
    104e:	c0 d0 00 00 01 dd 	larl	%r13,1408 <_IO_stdin_used+0x208>
    1054:	e3 f0 ff 60 ff 71 	lay	%r15,-160(%r15)
# 	/* If it's a space, wait the space time and exit */
# 	if(let == ' ')
    105a:	a7 2e 00 20       	chi	%r2,32
    105e:	a7 84 00 33       	je	10c4 <morse_letter+0x7c>
    1062:	b9 04 00 32       	lgr	%r3,%r2
# 		return;
# 	}
# 
# 	/* Find the string from the table */
# 	const char * pattern = ".";//Initialize to ensure it's always valid
# 	if(let >= '0' && let <= '9')
    1066:	ec 12 ff d0 00 d8 	ahik	%r1,%r2,-48
    106c:	b9 94 00 11       	llcr	%r1,%r1
    1070:	c2 1f 00 00 00 09 	clfi	%r1,9
    1076:	a7 24 00 34       	jh	10de <morse_letter+0x96>
# 	{
# 		pattern = morse_tbl[let - '0' + 26]; //For numbers
    107a:	ec 12 ff ea 00 d8 	ahik	%r1,%r2,-22
    1080:	b9 14 00 11       	lgfr	%r1,%r1
    1084:	eb 11 00 03 00 0d 	sllg	%r1,%r1,3
    108a:	c0 20 00 00 0e 1b 	larl	%r2,2cc0 <morse_tbl>
    1090:	e3 b1 20 00 00 04 	lg	%r11,0(%r1,%r2)
# 	else 
# 	{
# 		printf("Invalid Letter %c\n",let);
# 		return;
# 	}
# 	printf("Letter %c to morse %s\n",let,pattern);
    1096:	b9 04 00 4b       	lgr	%r4,%r11
    109a:	c0 20 00 00 01 49 	larl	%r2,132c <_IO_stdin_used+0x12c>
    10a0:	c0 e5 ff ff fd 8c 	brasl	%r14,bb8 <printf@plt>
# 
# 	/* Loop through remaining symbols and output them */
# 	while(pattern[0])
    10a6:	e3 10 b0 00 00 94 	llc	%r1,0(%r11)
    10ac:	12 11             	ltr	%r1,%r1
    10ae:	a7 74 00 41       	jne	1130 <morse_letter+0xe8>
# 		fsleep(time_space);
# 		/* Increment pointer */
# 		pattern++;
# 	};
# 	/* Wait additional character delay */
# 	fsleep(time_letter);
    10b2:	68 00 d0 18       	ld	%f0,24(%r13)
    10b6:	c0 e5 ff ff ff a9 	brasl	%r14,1008 <fsleep>
# }
    10bc:	eb bf f0 f8 00 04 	lmg	%r11,%r15,248(%r15)
    10c2:	07 fe             	br	%r14
# 		printf("Space\n");
    10c4:	c0 20 00 00 01 31 	larl	%r2,1326 <_IO_stdin_used+0x126>
    10ca:	c0 e5 ff ff fd c7 	brasl	%r14,c58 <puts@plt>
# 		fsleep(time_word);
    10d0:	68 00 d0 10       	ld	%f0,16(%r13)
    10d4:	c0 e5 ff ff ff 9a 	brasl	%r14,1008 <fsleep>
# 		return;
    10da:	a7 f4 ff f1       	j	10bc <morse_letter+0x74>
# 		pattern = morse_tbl[(let & 0x1F) - 1]; //For letters
    10de:	ec 12 3b bf 00 55 	risbgz	%r1,%r2,59,63,0
    10e4:	a7 1a ff ff       	ahi	%r1,-1
    10e8:	b9 14 00 11       	lgfr	%r1,%r1
    10ec:	eb 11 00 03 00 0d 	sllg	%r1,%r1,3
    10f2:	c0 20 00 00 0d e7 	larl	%r2,2cc0 <morse_tbl>
    10f8:	e3 b1 20 00 00 04 	lg	%r11,0(%r1,%r2)
    10fe:	a7 f4 ff cc       	j	1096 <morse_letter+0x4e>
# 			fsleep(time_dit);
    1102:	68 00 d0 08       	ld	%f0,8(%r13)
    1106:	c0 e5 ff ff ff 81 	brasl	%r14,1008 <fsleep>
# 		io_write(0);
    110c:	a7 29 00 00       	lghi	%r2,0
    1110:	c0 e5 ff ff ff 5c 	brasl	%r14,fc8 <io_write>
# 		fsleep(time_space);
    1116:	68 00 d0 08       	ld	%f0,8(%r13)
    111a:	c0 e5 ff ff ff 77 	brasl	%r14,1008 <fsleep>
# 		pattern++;
    1120:	a7 bb 00 01       	aghi	%r11,1
# 	while(pattern[0])
    1124:	e3 10 b0 00 00 94 	llc	%r1,0(%r11)
    112a:	12 11             	ltr	%r1,%r1
    112c:	a7 84 ff c3       	je	10b2 <morse_letter+0x6a>
# 		io_write(1);
    1130:	a7 29 00 01       	lghi	%r2,1
    1134:	c0 e5 ff ff ff 4a 	brasl	%r14,fc8 <io_write>
# 		if(pattern[0] == '.')
    113a:	e3 10 b0 00 00 94 	llc	%r1,0(%r11)
    1140:	a7 1e 00 2e       	chi	%r1,46
    1144:	a7 84 ff df       	je	1102 <morse_letter+0xba>
# 			fsleep(time_dah);
    1148:	68 00 d0 00       	ld	%f0,0(%r13)
    114c:	c0 e5 ff ff ff 5e 	brasl	%r14,1008 <fsleep>
    1152:	a7 f4 ff dd       	j	110c <morse_letter+0xc4>
    1156:	07 07             	nopr	%r7

0000000000001158 <morse>:
# 
# /* Output a string in morse code */
# void morse(const char * string)
# {
    1158:	eb bf f0 58 00 24 	stmg	%r11,%r15,88(%r15)
    115e:	e3 f0 ff 60 ff 71 	lay	%r15,-160(%r15)
    1164:	b9 04 00 b2       	lgr	%r11,%r2
# 	/* Output all letters in the string */
# 	while(string[0])
    1168:	bf 21 20 00       	icm	%r2,1,0(%r2)
    116c:	a7 84 00 0d       	je	1186 <morse+0x2e>
# 	{
# 		morse_letter(string[0]);
    1170:	b9 84 00 22       	llgcr	%r2,%r2
    1174:	c0 e5 ff ff ff 6a 	brasl	%r14,1048 <morse_letter>
# 		string++;
    117a:	a7 bb 00 01       	aghi	%r11,1
# 	while(string[0])
    117e:	bf 21 b0 00       	icm	%r2,1,0(%r11)
    1182:	a7 74 ff f7       	jne	1170 <morse+0x18>
# 	}
# }
    1186:	eb bf f0 f8 00 04 	lmg	%r11,%r15,248(%r15)
    118c:	07 fe             	br	%r14
    118e:	07 07             	nopr	%r7

0000000000001190 <main>:
# int main (int argc, char** argv) {
    1190:	eb ef f0 70 00 24 	stmg	%r14,%r15,112(%r15)
    1196:	e3 f0 ff 60 ff 71 	lay	%r15,-160(%r15)
# 
#     printf("Hello from RISC-V!\n");
    119c:	c0 20 00 00 00 d4 	larl	%r2,1344 <_IO_stdin_used+0x144>
    11a2:	c0 e5 ff ff fd 5b 	brasl	%r14,c58 <puts@plt>
# 	io_init(blinky);
    11a8:	a7 29 01 b8       	lghi	%r2,440
    11ac:	c0 e5 ff ff fe 32 	brasl	%r14,e10 <io_init>
# 	morse("Hello World from RISC V");
    11b2:	c0 20 00 00 00 d3 	larl	%r2,1358 <_IO_stdin_used+0x158>
    11b8:	c0 e5 ff ff ff d0 	brasl	%r14,1158 <morse>
#     return 0;
    11be:	a7 29 00 00       	lghi	%r2,0
    11c2:	eb ef f1 10 00 04 	lmg	%r14,%r15,272(%r15)
    11c8:	07 fe             	br	%r14
    11ca:	07 07             	nopr	%r7
    11cc:	07 07             	nopr	%r7
    11ce:	07 07             	nopr	%r7

Disassembly of section .fini:

00000000000011d0 <_fini>:
    11d0:	eb 6f f0 30 00 24 	stmg	%r6,%r15,48(%r15)
    11d6:	b9 04 00 1f       	lgr	%r1,%r15
    11da:	a7 fb ff 60       	aghi	%r15,-160
    11de:	e3 10 f0 00 00 24 	stg	%r1,0(%r15)
    11e4:	c0 c0 00 00 0e ee 	larl	%r12,2fc0 <_GLOBAL_OFFSET_TABLE_>
    11ea:	07 07             	nopr	%r7
    11ec:	e3 40 f1 10 00 04 	lg	%r4,272(%r15)
    11f2:	eb 6f f0 d0 00 04 	lmg	%r6,%r15,208(%r15)
    11f8:	07 f4             	br	%r4
    11fa:	07 07             	nopr	%r7
Contents of the .eh_frame section (loaded from a.out):


00000000 0000000000000014 00000000 CIE
  Version:               1
  Augmentation:          "zR"
  Code alignment factor: 1
  Data alignment factor: -8
  Return address column: 14
  Augmentation data:     1b
  DW_CFA_def_cfa: r15 ofs 160
  DW_CFA_undefined: r14
  DW_CFA_nop

00000018 0000000000000014 0000001c FDE cie=00000000 pc=0000000000000d18..0000000000000d5a
  DW_CFA_nop
  DW_CFA_nop
  DW_CFA_nop
  DW_CFA_nop
  DW_CFA_nop
  DW_CFA_nop
  DW_CFA_nop

00000030 0000000000000014 00000000 CIE
  Version:               1
  Augmentation:          "zR"
  Code alignment factor: 1
  Data alignment factor: -8
  Return address column: 14
  Augmentation data:     1b
  DW_CFA_def_cfa: r15 ofs 160
  DW_CFA_nop
  DW_CFA_nop
  DW_CFA_nop

00000048 0000000000000030 0000001c FDE cie=00000030 pc=0000000000000e10..0000000000000fc2
  DW_CFA_advance_loc: 6 to 0000000000000e16
  DW_CFA_offset: r9 at cfa-88
  DW_CFA_offset: r10 at cfa-80
  DW_CFA_offset: r11 at cfa-72
  DW_CFA_offset: r12 at cfa-64
  DW_CFA_offset: r13 at cfa-56
  DW_CFA_offset: r14 at cfa-48
  DW_CFA_offset: r15 at cfa-40
  DW_CFA_advance_loc: 6 to 0000000000000e1c
  DW_CFA_def_cfa_offset: 384
  DW_CFA_advance_loc1: 224 to 0000000000000efc
  DW_CFA_remember_state
  DW_CFA_restore: r15
  DW_CFA_restore: r14
  DW_CFA_restore: r13
  DW_CFA_restore: r12
  DW_CFA_restore: r11
  DW_CFA_restore: r10
  DW_CFA_restore: r9
  DW_CFA_def_cfa_offset: 160
  DW_CFA_advance_loc: 2 to 0000000000000efe
  DW_CFA_restore_state
  DW_CFA_nop

0000007c 000000000000001c 00000050 FDE cie=00000030 pc=0000000000000fc8..0000000000001008
  DW_CFA_advance_loc: 6 to 0000000000000fce
  DW_CFA_offset: r14 at cfa-48
  DW_CFA_offset: r15 at cfa-40
  DW_CFA_advance_loc: 6 to 0000000000000fd4
  DW_CFA_def_cfa_offset: 320
  DW_CFA_advance_loc: 50 to 0000000000001006
  DW_CFA_restore: r15
  DW_CFA_restore: r14
  DW_CFA_def_cfa_offset: 160

0000009c 0000000000000020 00000070 FDE cie=00000030 pc=0000000000001008..0000000000001046
  DW_CFA_advance_loc: 6 to 000000000000100e
  DW_CFA_offset: r13 at cfa-56
  DW_CFA_offset: r14 at cfa-48
  DW_CFA_offset: r15 at cfa-40
  DW_CFA_advance_loc: 12 to 000000000000101a
  DW_CFA_def_cfa_offset: 336
  DW_CFA_advance_loc: 42 to 0000000000001044
  DW_CFA_restore: r15
  DW_CFA_restore: r14
  DW_CFA_restore: r13
  DW_CFA_def_cfa_offset: 160
  DW_CFA_nop

000000c0 000000000000002c 00000094 FDE cie=00000030 pc=0000000000001048..0000000000001156
  DW_CFA_advance_loc: 6 to 000000000000104e
  DW_CFA_offset: r11 at cfa-72
  DW_CFA_offset: r12 at cfa-64
  DW_CFA_offset: r13 at cfa-56
  DW_CFA_offset: r14 at cfa-48
  DW_CFA_offset: r15 at cfa-40
  DW_CFA_advance_loc: 12 to 000000000000105a
  DW_CFA_def_cfa_offset: 320
  DW_CFA_advance_loc1: 104 to 00000000000010c2
  DW_CFA_remember_state
  DW_CFA_restore: r15
  DW_CFA_restore: r14
  DW_CFA_restore: r13
  DW_CFA_restore: r12
  DW_CFA_restore: r11
  DW_CFA_def_cfa_offset: 160
  DW_CFA_advance_loc: 2 to 00000000000010c4
  DW_CFA_restore_state
  DW_CFA_nop
  DW_CFA_nop
  DW_CFA_nop

000000f0 0000000000000028 000000c4 FDE cie=00000030 pc=0000000000001158..000000000000118e
  DW_CFA_advance_loc: 6 to 000000000000115e
  DW_CFA_offset: r11 at cfa-72
  DW_CFA_offset: r12 at cfa-64
  DW_CFA_offset: r13 at cfa-56
  DW_CFA_offset: r14 at cfa-48
  DW_CFA_offset: r15 at cfa-40
  DW_CFA_advance_loc: 6 to 0000000000001164
  DW_CFA_def_cfa_offset: 320
  DW_CFA_advance_loc: 40 to 000000000000118c
  DW_CFA_restore: r15
  DW_CFA_restore: r14
  DW_CFA_restore: r13
  DW_CFA_restore: r12
  DW_CFA_restore: r11
  DW_CFA_def_cfa_offset: 160
  DW_CFA_nop
  DW_CFA_nop
  DW_CFA_nop

0000011c 000000000000001c 000000f0 FDE cie=00000030 pc=0000000000001190..00000000000011ca
  DW_CFA_advance_loc: 6 to 0000000000001196
  DW_CFA_offset: r14 at cfa-48
  DW_CFA_offset: r15 at cfa-40
  DW_CFA_advance_loc: 6 to 000000000000119c
  DW_CFA_def_cfa_offset: 320
  DW_CFA_advance_loc: 44 to 00000000000011c8
  DW_CFA_restore: r15
  DW_CFA_restore: r14
  DW_CFA_def_cfa_offset: 160

0000013c ZERO terminator


Contents of the .debug_aranges section (loaded from a.out):

  Length:                   44
  Version:                  2
  Offset into .debug_info:  0
  Pointer Size:             8
  Segment Size:             0

    Address            Length
    0000000000000e10 00000000000003ba
    0000000000000000 0000000000000000

Contents of the .debug_info section (loaded from a.out):

  Compilation Unit @ offset 0:
   Length:        0x9fe (32-bit)
   Version:       5
   Unit Type:     DW_UT_compile (1)
   Abbrev Offset: 0
   Pointer Size:  8
 <0><c>: Abbrev Number: 26 (DW_TAG_compile_unit)
    <d>   DW_AT_producer    : (indirect string, offset: 0x31c): GNU C99 12.2.0 -march=z196 -m64 -mzarch -g -O1 -std=gnu99 -fasynchronous-unwind-tables
    <11>   DW_AT_language    : 12	(ANSI C99)
    <12>   DW_AT_name        : (indirect string, offset: 0xdb): ../morse.c
    <16>   DW_AT_comp_dir    : (indirect string, offset: 0x2ba): /root/hello-world/s390-linux-gnu
    <1a>   DW_AT_low_pc      : 0xe10
    <22>   DW_AT_high_pc     : 0x3ba
    <2a>   DW_AT_stmt_list   : 0
 <1><2e>: Abbrev Number: 4 (DW_TAG_base_type)
    <2f>   DW_AT_byte_size   : 8
    <30>   DW_AT_encoding    : 4	(float)
    <31>   DW_AT_name        : (indirect string, offset: 0xf2): double
 <1><35>: Abbrev Number: 8 (DW_TAG_typedef)
    <36>   DW_AT_name        : (indirect string, offset: 0x26): size_t
    <3a>   DW_AT_decl_file   : 2
    <3b>   DW_AT_decl_line   : 214
    <3c>   DW_AT_decl_column : 23
    <3d>   DW_AT_type        : <0x41>
 <1><41>: Abbrev Number: 4 (DW_TAG_base_type)
    <42>   DW_AT_byte_size   : 8
    <43>   DW_AT_encoding    : 7	(unsigned)
    <44>   DW_AT_name        : (indirect string, offset: 0x55): long unsigned int
 <1><48>: Abbrev Number: 4 (DW_TAG_base_type)
    <49>   DW_AT_byte_size   : 8
    <4a>   DW_AT_encoding    : 5	(signed)
    <4b>   DW_AT_name        : (indirect string, offset: 0x76): long int
 <1><4f>: Abbrev Number: 27 (DW_TAG_pointer_type)
    <50>   DW_AT_byte_size   : 8
 <1><51>: Abbrev Number: 4 (DW_TAG_base_type)
    <52>   DW_AT_byte_size   : 1
    <53>   DW_AT_encoding    : 8	(unsigned char)
    <54>   DW_AT_name        : (indirect string, offset: 0x233): unsigned char
 <1><58>: Abbrev Number: 4 (DW_TAG_base_type)
    <59>   DW_AT_byte_size   : 2
    <5a>   DW_AT_encoding    : 7	(unsigned)
    <5b>   DW_AT_name        : (indirect string, offset: 0x13b): short unsigned int
 <1><5f>: Abbrev Number: 4 (DW_TAG_base_type)
    <60>   DW_AT_byte_size   : 4
    <61>   DW_AT_encoding    : 7	(unsigned)
    <62>   DW_AT_name        : (indirect string, offset: 0x5a): unsigned int
 <1><66>: Abbrev Number: 4 (DW_TAG_base_type)
    <67>   DW_AT_byte_size   : 1
    <68>   DW_AT_encoding    : 6	(signed char)
    <69>   DW_AT_name        : (indirect string, offset: 0x235): signed char
 <1><6d>: Abbrev Number: 4 (DW_TAG_base_type)
    <6e>   DW_AT_byte_size   : 2
    <6f>   DW_AT_encoding    : 5	(signed)
    <70>   DW_AT_name        : (indirect string, offset: 0x241): short int
 <1><74>: Abbrev Number: 28 (DW_TAG_base_type)
    <75>   DW_AT_byte_size   : 4
    <76>   DW_AT_encoding    : 5	(signed)
    <77>   DW_AT_name        : int
 <1><7b>: Abbrev Number: 12 (DW_TAG_const_type)
    <7c>   DW_AT_type        : <0x74>
 <1><80>: Abbrev Number: 8 (DW_TAG_typedef)
    <81>   DW_AT_name        : (indirect string, offset: 0): __off_t
    <85>   DW_AT_decl_file   : 3
    <86>   DW_AT_decl_line   : 152
    <87>   DW_AT_decl_column : 25
    <88>   DW_AT_type        : <0x48>
 <1><8c>: Abbrev Number: 8 (DW_TAG_typedef)
    <8d>   DW_AT_name        : (indirect string, offset: 0x287): __off64_t
    <91>   DW_AT_decl_file   : 3
    <92>   DW_AT_decl_line   : 153
    <93>   DW_AT_decl_column : 27
    <94>   DW_AT_type        : <0x48>
 <1><98>: Abbrev Number: 8 (DW_TAG_typedef)
    <99>   DW_AT_name        : (indirect string, offset: 0x2db): __time_t
    <9d>   DW_AT_decl_file   : 3
    <9e>   DW_AT_decl_line   : 160
    <9f>   DW_AT_decl_column : 26
    <a0>   DW_AT_type        : <0x48>
 <1><a4>: Abbrev Number: 8 (DW_TAG_typedef)
    <a5>   DW_AT_name        : (indirect string, offset: 0x19c): __syscall_slong_t
    <a9>   DW_AT_decl_file   : 3
    <aa>   DW_AT_decl_line   : 197
    <ab>   DW_AT_decl_column : 33
    <ac>   DW_AT_type        : <0x48>
 <1><b0>: Abbrev Number: 6 (DW_TAG_pointer_type)
    <b1>   DW_AT_byte_size   : 8
    <b1>   DW_AT_type        : <0xb5>
 <1><b5>: Abbrev Number: 4 (DW_TAG_base_type)
    <b6>   DW_AT_byte_size   : 1
    <b7>   DW_AT_encoding    : 8	(unsigned char)
    <b8>   DW_AT_name        : (indirect string, offset: 0x23c): char
 <1><bc>: Abbrev Number: 12 (DW_TAG_const_type)
    <bd>   DW_AT_type        : <0xb5>
 <1><c1>: Abbrev Number: 21 (DW_TAG_structure_type)
    <c2>   DW_AT_name        : (indirect string, offset: 0x1d9): _IO_FILE
    <c6>   DW_AT_byte_size   : 216
    <c7>   DW_AT_decl_file   : 4
    <c8>   DW_AT_decl_line   : 49
    <c9>   DW_AT_decl_column : 8
    <c9>   DW_AT_sibling     : <0x247>
 <2><cd>: Abbrev Number: 2 (DW_TAG_member)
    <ce>   DW_AT_name        : (indirect string, offset: 0xbc): _flags
    <d2>   DW_AT_decl_file   : 4
    <d3>   DW_AT_decl_line   : 51
    <d4>   DW_AT_decl_column : 7
    <d5>   DW_AT_type        : <0x74>
    <d9>   DW_AT_data_member_location: 0
 <2><da>: Abbrev Number: 2 (DW_TAG_member)
    <db>   DW_AT_name        : (indirect string, offset: 0x8): _IO_read_ptr
    <df>   DW_AT_decl_file   : 4
    <e0>   DW_AT_decl_line   : 54
    <e1>   DW_AT_decl_column : 9
    <e2>   DW_AT_type        : <0xb0>
    <e6>   DW_AT_data_member_location: 8
 <2><e7>: Abbrev Number: 2 (DW_TAG_member)
    <e8>   DW_AT_name        : (indirect string, offset: 0xaf): _IO_read_end
    <ec>   DW_AT_decl_file   : 4
    <ed>   DW_AT_decl_line   : 55
    <ee>   DW_AT_decl_column : 9
    <ef>   DW_AT_type        : <0xb0>
    <f3>   DW_AT_data_member_location: 16
 <2><f4>: Abbrev Number: 2 (DW_TAG_member)
    <f5>   DW_AT_name        : (indirect string, offset: 0x291): _IO_read_base
    <f9>   DW_AT_decl_file   : 4
    <fa>   DW_AT_decl_line   : 56
    <fb>   DW_AT_decl_column : 9
    <fc>   DW_AT_type        : <0xb0>
    <100>   DW_AT_data_member_location: 24
 <2><101>: Abbrev Number: 2 (DW_TAG_member)
    <102>   DW_AT_name        : (indirect string, offset: 0x378): _IO_write_base
    <106>   DW_AT_decl_file   : 4
    <107>   DW_AT_decl_line   : 57
    <108>   DW_AT_decl_column : 9
    <109>   DW_AT_type        : <0xb0>
    <10d>   DW_AT_data_member_location: 32
 <2><10e>: Abbrev Number: 2 (DW_TAG_member)
    <10f>   DW_AT_name        : (indirect string, offset: 0x12d): _IO_write_ptr
    <113>   DW_AT_decl_file   : 4
    <114>   DW_AT_decl_line   : 58
    <115>   DW_AT_decl_column : 9
    <116>   DW_AT_type        : <0xb0>
    <11a>   DW_AT_data_member_location: 40
 <2><11b>: Abbrev Number: 2 (DW_TAG_member)
    <11c>   DW_AT_name        : (indirect string, offset: 0x1ae): _IO_write_end
    <120>   DW_AT_decl_file   : 4
    <121>   DW_AT_decl_line   : 59
    <122>   DW_AT_decl_column : 9
    <123>   DW_AT_type        : <0xb0>
    <127>   DW_AT_data_member_location: 48
 <2><128>: Abbrev Number: 2 (DW_TAG_member)
    <129>   DW_AT_name        : (indirect string, offset: 0x43): _IO_buf_base
    <12d>   DW_AT_decl_file   : 4
    <12e>   DW_AT_decl_line   : 60
    <12f>   DW_AT_decl_column : 9
    <130>   DW_AT_type        : <0xb0>
    <134>   DW_AT_data_member_location: 56
 <2><135>: Abbrev Number: 2 (DW_TAG_member)
    <136>   DW_AT_name        : (indirect string, offset: 0xc3): _IO_buf_end
    <13a>   DW_AT_decl_file   : 4
    <13b>   DW_AT_decl_line   : 61
    <13c>   DW_AT_decl_column : 9
    <13d>   DW_AT_type        : <0xb0>
    <141>   DW_AT_data_member_location: 64
 <2><142>: Abbrev Number: 2 (DW_TAG_member)
    <143>   DW_AT_name        : (indirect string, offset: 0x14e): _IO_save_base
    <147>   DW_AT_decl_file   : 4
    <148>   DW_AT_decl_line   : 64
    <149>   DW_AT_decl_column : 9
    <14a>   DW_AT_type        : <0xb0>
    <14e>   DW_AT_data_member_location: 72
 <2><14f>: Abbrev Number: 2 (DW_TAG_member)
    <150>   DW_AT_name        : (indirect string, offset: 0x2f9): _IO_backup_base
    <154>   DW_AT_decl_file   : 4
    <155>   DW_AT_decl_line   : 65
    <156>   DW_AT_decl_column : 9
    <157>   DW_AT_type        : <0xb0>
    <15b>   DW_AT_data_member_location: 80
 <2><15c>: Abbrev Number: 2 (DW_TAG_member)
    <15d>   DW_AT_name        : (indirect string, offset: 0x29f): _IO_save_end
    <161>   DW_AT_decl_file   : 4
    <162>   DW_AT_decl_line   : 66
    <163>   DW_AT_decl_column : 9
    <164>   DW_AT_type        : <0xb0>
    <168>   DW_AT_data_member_location: 88
 <2><169>: Abbrev Number: 2 (DW_TAG_member)
    <16a>   DW_AT_name        : (indirect string, offset: 0x203): _markers
    <16e>   DW_AT_decl_file   : 4
    <16f>   DW_AT_decl_line   : 68
    <170>   DW_AT_decl_column : 22
    <171>   DW_AT_type        : <0x260>
    <175>   DW_AT_data_member_location: 96
 <2><176>: Abbrev Number: 2 (DW_TAG_member)
    <177>   DW_AT_name        : (indirect string, offset: 0x15): _chain
    <17b>   DW_AT_decl_file   : 4
    <17c>   DW_AT_decl_line   : 70
    <17d>   DW_AT_decl_column : 20
    <17e>   DW_AT_type        : <0x265>
    <182>   DW_AT_data_member_location: 104
 <2><183>: Abbrev Number: 2 (DW_TAG_member)
    <184>   DW_AT_name        : (indirect string, offset: 0x97): _fileno
    <188>   DW_AT_decl_file   : 4
    <189>   DW_AT_decl_line   : 72
    <18a>   DW_AT_decl_column : 7
    <18b>   DW_AT_type        : <0x74>
    <18f>   DW_AT_data_member_location: 112
 <2><190>: Abbrev Number: 2 (DW_TAG_member)
    <191>   DW_AT_name        : (indirect string, offset: 0x16a): _flags2
    <195>   DW_AT_decl_file   : 4
    <196>   DW_AT_decl_line   : 73
    <197>   DW_AT_decl_column : 7
    <198>   DW_AT_type        : <0x74>
    <19c>   DW_AT_data_member_location: 116
 <2><19d>: Abbrev Number: 2 (DW_TAG_member)
    <19e>   DW_AT_name        : (indirect string, offset: 0xf9): _old_offset
    <1a2>   DW_AT_decl_file   : 4
    <1a3>   DW_AT_decl_line   : 74
    <1a4>   DW_AT_decl_column : 11
    <1a5>   DW_AT_type        : <0x80>
    <1a9>   DW_AT_data_member_location: 120
 <2><1aa>: Abbrev Number: 2 (DW_TAG_member)
    <1ab>   DW_AT_name        : (indirect string, offset: 0xcf): _cur_column
    <1af>   DW_AT_decl_file   : 4
    <1b0>   DW_AT_decl_line   : 77
    <1b1>   DW_AT_decl_column : 18
    <1b2>   DW_AT_type        : <0x58>
    <1b6>   DW_AT_data_member_location: 128
 <2><1b7>: Abbrev Number: 2 (DW_TAG_member)
    <1b8>   DW_AT_name        : (indirect string, offset: 0x26c): _vtable_offset
    <1bc>   DW_AT_decl_file   : 4
    <1bd>   DW_AT_decl_line   : 78
    <1be>   DW_AT_decl_column : 15
    <1bf>   DW_AT_type        : <0x66>
    <1c3>   DW_AT_data_member_location: 130
 <2><1c4>: Abbrev Number: 2 (DW_TAG_member)
    <1c5>   DW_AT_name        : (indirect string, offset: 0x2d): _shortbuf
    <1c9>   DW_AT_decl_file   : 4
    <1ca>   DW_AT_decl_line   : 79
    <1cb>   DW_AT_decl_column : 8
    <1cc>   DW_AT_type        : <0x26a>
    <1d0>   DW_AT_data_member_location: 131
 <2><1d1>: Abbrev Number: 2 (DW_TAG_member)
    <1d2>   DW_AT_name        : (indirect string, offset: 0x15c): _lock
    <1d6>   DW_AT_decl_file   : 4
    <1d7>   DW_AT_decl_line   : 81
    <1d8>   DW_AT_decl_column : 15
    <1d9>   DW_AT_type        : <0x27a>
    <1dd>   DW_AT_data_member_location: 136
 <2><1de>: Abbrev Number: 2 (DW_TAG_member)
    <1df>   DW_AT_name        : (indirect string, offset: 0xfd): _offset
    <1e3>   DW_AT_decl_file   : 4
    <1e4>   DW_AT_decl_line   : 89
    <1e5>   DW_AT_decl_column : 13
    <1e6>   DW_AT_type        : <0x8c>
    <1ea>   DW_AT_data_member_location: 144
 <2><1eb>: Abbrev Number: 2 (DW_TAG_member)
    <1ec>   DW_AT_name        : (indirect string, offset: 0xe9): _codecvt
    <1f0>   DW_AT_decl_file   : 4
    <1f1>   DW_AT_decl_line   : 91
    <1f2>   DW_AT_decl_column : 23
    <1f3>   DW_AT_type        : <0x284>
    <1f7>   DW_AT_data_member_location: 152
 <2><1f8>: Abbrev Number: 2 (DW_TAG_member)
    <1f9>   DW_AT_name        : (indirect string, offset: 0x24e): _wide_data
    <1fd>   DW_AT_decl_file   : 4
    <1fe>   DW_AT_decl_line   : 92
    <1ff>   DW_AT_decl_column : 25
    <200>   DW_AT_type        : <0x28e>
    <204>   DW_AT_data_member_location: 160
 <2><205>: Abbrev Number: 2 (DW_TAG_member)
    <206>   DW_AT_name        : (indirect string, offset: 0x30e): _freeres_list
    <20a>   DW_AT_decl_file   : 4
    <20b>   DW_AT_decl_line   : 93
    <20c>   DW_AT_decl_column : 20
    <20d>   DW_AT_type        : <0x265>
    <211>   DW_AT_data_member_location: 168
 <2><212>: Abbrev Number: 2 (DW_TAG_member)
    <213>   DW_AT_name        : (indirect string, offset: 0x118): _freeres_buf
    <217>   DW_AT_decl_file   : 4
    <218>   DW_AT_decl_line   : 94
    <219>   DW_AT_decl_column : 9
    <21a>   DW_AT_type        : <0x4f>
    <21e>   DW_AT_data_member_location: 176
 <2><21f>: Abbrev Number: 2 (DW_TAG_member)
    <220>   DW_AT_name        : (indirect string, offset: 0x2b3): __pad5
    <224>   DW_AT_decl_file   : 4
    <225>   DW_AT_decl_line   : 95
    <226>   DW_AT_decl_column : 10
    <227>   DW_AT_type        : <0x35>
    <22b>   DW_AT_data_member_location: 184
 <2><22c>: Abbrev Number: 2 (DW_TAG_member)
    <22d>   DW_AT_name        : (indirect string, offset: 0x172): _mode
    <231>   DW_AT_decl_file   : 4
    <232>   DW_AT_decl_line   : 96
    <233>   DW_AT_decl_column : 7
    <234>   DW_AT_type        : <0x74>
    <238>   DW_AT_data_member_location: 192
 <2><239>: Abbrev Number: 2 (DW_TAG_member)
    <23a>   DW_AT_name        : (indirect string, offset: 0x2e4): _unused2
    <23e>   DW_AT_decl_file   : 4
    <23f>   DW_AT_decl_line   : 98
    <240>   DW_AT_decl_column : 8
    <241>   DW_AT_type        : <0x293>
    <245>   DW_AT_data_member_location: 196
 <2><246>: Abbrev Number: 0
 <1><247>: Abbrev Number: 8 (DW_TAG_typedef)
    <248>   DW_AT_name        : (indirect string, offset: 0x1dd): FILE
    <24c>   DW_AT_decl_file   : 5
    <24d>   DW_AT_decl_line   : 7
    <24e>   DW_AT_decl_column : 25
    <24f>   DW_AT_type        : <0xc1>
 <1><253>: Abbrev Number: 29 (DW_TAG_typedef)
    <254>   DW_AT_name        : (indirect string, offset: 0x1c5): _IO_lock_t
    <258>   DW_AT_decl_file   : 4
    <259>   DW_AT_decl_line   : 43
    <25a>   DW_AT_decl_column : 14
 <1><25b>: Abbrev Number: 16 (DW_TAG_structure_type)
    <25c>   DW_AT_name        : (indirect string, offset: 0x10d): _IO_marker
    <260>   DW_AT_declaration : 1
 <1><260>: Abbrev Number: 6 (DW_TAG_pointer_type)
    <261>   DW_AT_byte_size   : 8
    <261>   DW_AT_type        : <0x25b>
 <1><265>: Abbrev Number: 6 (DW_TAG_pointer_type)
    <266>   DW_AT_byte_size   : 8
    <266>   DW_AT_type        : <0xc1>
 <1><26a>: Abbrev Number: 13 (DW_TAG_array_type)
    <26b>   DW_AT_type        : <0xb5>
    <26f>   DW_AT_sibling     : <0x27a>
 <2><273>: Abbrev Number: 14 (DW_TAG_subrange_type)
    <274>   DW_AT_type        : <0x41>
    <278>   DW_AT_upper_bound : 0
 <2><279>: Abbrev Number: 0
 <1><27a>: Abbrev Number: 6 (DW_TAG_pointer_type)
    <27b>   DW_AT_byte_size   : 8
    <27b>   DW_AT_type        : <0x253>
 <1><27f>: Abbrev Number: 16 (DW_TAG_structure_type)
    <280>   DW_AT_name        : (indirect string, offset: 0xe6): _IO_codecvt
    <284>   DW_AT_declaration : 1
 <1><284>: Abbrev Number: 6 (DW_TAG_pointer_type)
    <285>   DW_AT_byte_size   : 8
    <285>   DW_AT_type        : <0x27f>
 <1><289>: Abbrev Number: 16 (DW_TAG_structure_type)
    <28a>   DW_AT_name        : (indirect string, offset: 0x24b): _IO_wide_data
    <28e>   DW_AT_declaration : 1
 <1><28e>: Abbrev Number: 6 (DW_TAG_pointer_type)
    <28f>   DW_AT_byte_size   : 8
    <28f>   DW_AT_type        : <0x289>
 <1><293>: Abbrev Number: 13 (DW_TAG_array_type)
    <294>   DW_AT_type        : <0xb5>
    <298>   DW_AT_sibling     : <0x2a3>
 <2><29c>: Abbrev Number: 14 (DW_TAG_subrange_type)
    <29d>   DW_AT_type        : <0x41>
    <2a1>   DW_AT_upper_bound : 19
 <2><2a2>: Abbrev Number: 0
 <1><2a3>: Abbrev Number: 6 (DW_TAG_pointer_type)
    <2a4>   DW_AT_byte_size   : 8
    <2a4>   DW_AT_type        : <0x247>
 <1><2a8>: Abbrev Number: 22 (DW_TAG_restrict_type)
    <2a9>   DW_AT_type        : <0x2a3>
 <1><2ad>: Abbrev Number: 4 (DW_TAG_base_type)
    <2ae>   DW_AT_byte_size   : 8
    <2af>   DW_AT_encoding    : 5	(signed)
    <2b0>   DW_AT_name        : (indirect string, offset: 0x71): long long int
 <1><2b4>: Abbrev Number: 21 (DW_TAG_structure_type)
    <2b5>   DW_AT_name        : (indirect string, offset: 0x263): timespec
    <2b9>   DW_AT_byte_size   : 16
    <2ba>   DW_AT_decl_file   : 6
    <2bb>   DW_AT_decl_line   : 11
    <2bc>   DW_AT_decl_column : 8
    <2bc>   DW_AT_sibling     : <0x2db>
 <2><2c0>: Abbrev Number: 2 (DW_TAG_member)
    <2c1>   DW_AT_name        : (indirect string, offset: 0x195): tv_sec
    <2c5>   DW_AT_decl_file   : 6
    <2c6>   DW_AT_decl_line   : 16
    <2c7>   DW_AT_decl_column : 12
    <2c8>   DW_AT_type        : <0x98>
    <2cc>   DW_AT_data_member_location: 0
 <2><2cd>: Abbrev Number: 2 (DW_TAG_member)
    <2ce>   DW_AT_name        : (indirect string, offset: 0x18d): tv_nsec
    <2d2>   DW_AT_decl_file   : 6
    <2d3>   DW_AT_decl_line   : 21
    <2d4>   DW_AT_decl_column : 21
    <2d5>   DW_AT_type        : <0xa4>
    <2d9>   DW_AT_data_member_location: 8
 <2><2da>: Abbrev Number: 0
 <1><2db>: Abbrev Number: 12 (DW_TAG_const_type)
    <2dc>   DW_AT_type        : <0x2b4>
 <1><2e0>: Abbrev Number: 4 (DW_TAG_base_type)
    <2e1>   DW_AT_byte_size   : 8
    <2e2>   DW_AT_encoding    : 7	(unsigned)
    <2e3>   DW_AT_name        : (indirect string, offset: 0x50): long long unsigned int
 <1><2e7>: Abbrev Number: 6 (DW_TAG_pointer_type)
    <2e8>   DW_AT_byte_size   : 8
    <2e8>   DW_AT_type        : <0xbc>
 <1><2ec>: Abbrev Number: 22 (DW_TAG_restrict_type)
    <2ed>   DW_AT_type        : <0x2e7>
 <1><2f1>: Abbrev Number: 30 (DW_TAG_variable)
    <2f2>   DW_AT_name        : (indirect string, offset: 0x90): blinky
    <2f6>   DW_AT_decl_file   : 1
    <2f7>   DW_AT_decl_line   : 12
    <2f8>   DW_AT_decl_column : 18
    <2f9>   DW_AT_type        : <0x7b>
    <2fd>   DW_AT_const_value : 440
 <1><2ff>: Abbrev Number: 23 (DW_TAG_variable)
    <300>   DW_AT_name        : fp
    <303>   DW_AT_decl_file   : 1
    <303>   DW_AT_decl_line   : 17
    <304>   DW_AT_decl_column : 14
    <305>   DW_AT_type        : <0x2a3>
    <309>   DW_AT_location    : 9 byte block: 3 0 0 0 0 0 0 30 80 	(DW_OP_addr: 3080)
 <1><313>: Abbrev Number: 9 (DW_TAG_variable)
    <314>   DW_AT_name        : (indirect string, offset: 0x219): time_dit
    <318>   DW_AT_decl_file   : 1
    <318>   DW_AT_decl_line   : 85
    <319>   DW_AT_decl_column : 21
    <319>   DW_AT_type        : <0x326>
    <31d>   DW_AT_const_value : 8 byte block: 3f d5 1e b8 51 eb 85 1f 
 <1><326>: Abbrev Number: 12 (DW_TAG_const_type)
    <327>   DW_AT_type        : <0x2e>
 <1><32b>: Abbrev Number: 9 (DW_TAG_variable)
    <32c>   DW_AT_name        : (indirect string, offset: 0x1bc): time_dah
    <330>   DW_AT_decl_file   : 1
    <330>   DW_AT_decl_line   : 86
    <331>   DW_AT_decl_column : 21
    <331>   DW_AT_type        : <0x326>
    <335>   DW_AT_const_value : 8 byte block: 3f ef ae 14 7a e1 47 ae 
 <1><33e>: Abbrev Number: 9 (DW_TAG_variable)
    <33f>   DW_AT_name        : (indirect string, offset: 0x222): time_space
    <343>   DW_AT_decl_file   : 1
    <343>   DW_AT_decl_line   : 88
    <344>   DW_AT_decl_column : 21
    <344>   DW_AT_type        : <0x326>
    <348>   DW_AT_const_value : 8 byte block: 3f d5 1e b8 51 eb 85 1f 
 <1><351>: Abbrev Number: 9 (DW_TAG_variable)
    <352>   DW_AT_name        : (indirect string, offset: 0x1e2): time_letter
    <356>   DW_AT_decl_file   : 1
    <356>   DW_AT_decl_line   : 90
    <357>   DW_AT_decl_column : 21
    <357>   DW_AT_type        : <0x326>
    <35b>   DW_AT_const_value : 8 byte block: 3f e5 1e b8 51 eb 85 1f 
 <1><364>: Abbrev Number: 9 (DW_TAG_variable)
    <365>   DW_AT_name        : (indirect string, offset: 0x1c): time_word
    <369>   DW_AT_decl_file   : 1
    <369>   DW_AT_decl_line   : 92
    <36a>   DW_AT_decl_column : 21
    <36a>   DW_AT_type        : <0x326>
    <36e>   DW_AT_const_value : 8 byte block: 3f f5 1e b8 51 eb 85 1f 
 <1><377>: Abbrev Number: 13 (DW_TAG_array_type)
    <378>   DW_AT_type        : <0x2e7>
    <37c>   DW_AT_sibling     : <0x387>
 <2><380>: Abbrev Number: 14 (DW_TAG_subrange_type)
    <381>   DW_AT_type        : <0x41>
    <385>   DW_AT_upper_bound : 35
 <2><386>: Abbrev Number: 0
 <1><387>: Abbrev Number: 24 (DW_TAG_variable)
    <388>   DW_AT_name        : (indirect string, offset: 0x259): morse_tbl
    <38c>   DW_AT_decl_file   : 1
    <38c>   DW_AT_decl_line   : 100
    <38d>   DW_AT_decl_column : 20
    <38e>   DW_AT_type        : <0x377>
    <392>   DW_AT_location    : 9 byte block: 3 0 0 0 0 0 0 2c c0 	(DW_OP_addr: 2cc0)
 <1><39c>: Abbrev Number: 10 (DW_TAG_subprogram)
    <39d>   DW_AT_external    : 1
    <39d>   DW_AT_name        : (indirect string, offset: 0x67): nanosleep
    <3a1>   DW_AT_decl_file   : 7
    <3a2>   DW_AT_decl_line   : 281
    <3a4>   DW_AT_decl_column : 12
    <3a5>   DW_AT_prototyped  : 1
    <3a5>   DW_AT_type        : <0x74>
    <3a9>   DW_AT_declaration : 1
    <3a9>   DW_AT_sibling     : <0x3b8>
 <2><3ad>: Abbrev Number: 5 (DW_TAG_formal_parameter)
    <3ae>   DW_AT_type        : <0x3b8>
 <2><3b2>: Abbrev Number: 5 (DW_TAG_formal_parameter)
    <3b3>   DW_AT_type        : <0x3bd>
 <2><3b7>: Abbrev Number: 0
 <1><3b8>: Abbrev Number: 6 (DW_TAG_pointer_type)
    <3b9>   DW_AT_byte_size   : 8
    <3b9>   DW_AT_type        : <0x2db>
 <1><3bd>: Abbrev Number: 6 (DW_TAG_pointer_type)
    <3be>   DW_AT_byte_size   : 8
    <3be>   DW_AT_type        : <0x2b4>
 <1><3c2>: Abbrev Number: 25 (DW_TAG_subprogram)
    <3c3>   DW_AT_external    : 1
    <3c3>   DW_AT_name        : (indirect string, offset: 0x1fc): fflush
    <3c7>   DW_AT_decl_file   : 8
    <3c7>   DW_AT_decl_line   : 230
    <3c8>   DW_AT_decl_column : 12
    <3c8>   DW_AT_prototyped  : 1
    <3c8>   DW_AT_type        : <0x74>
    <3cc>   DW_AT_declaration : 1
    <3cc>   DW_AT_sibling     : <0x3d6>
 <2><3d0>: Abbrev Number: 5 (DW_TAG_formal_parameter)
    <3d1>   DW_AT_type        : <0x2a3>
 <2><3d5>: Abbrev Number: 0
 <1><3d6>: Abbrev Number: 25 (DW_TAG_subprogram)
    <3d7>   DW_AT_external    : 1
    <3d7>   DW_AT_name        : (indirect string, offset: 0x280): fclose
    <3db>   DW_AT_decl_file   : 8
    <3db>   DW_AT_decl_line   : 178
    <3dc>   DW_AT_decl_column : 12
    <3dc>   DW_AT_prototyped  : 1
    <3dc>   DW_AT_type        : <0x74>
    <3e0>   DW_AT_declaration : 1
    <3e0>   DW_AT_sibling     : <0x3ea>
 <2><3e4>: Abbrev Number: 5 (DW_TAG_formal_parameter)
    <3e5>   DW_AT_type        : <0x2a3>
 <2><3e9>: Abbrev Number: 0
 <1><3ea>: Abbrev Number: 10 (DW_TAG_subprogram)
    <3eb>   DW_AT_external    : 1
    <3eb>   DW_AT_name        : (indirect string, offset: 0x125): fprintf
    <3ef>   DW_AT_decl_file   : 8
    <3f0>   DW_AT_decl_line   : 350
    <3f2>   DW_AT_decl_column : 12
    <3f3>   DW_AT_prototyped  : 1
    <3f3>   DW_AT_type        : <0x74>
    <3f7>   DW_AT_declaration : 1
    <3f7>   DW_AT_sibling     : <0x407>
 <2><3fb>: Abbrev Number: 5 (DW_TAG_formal_parameter)
    <3fc>   DW_AT_type        : <0x2a8>
 <2><400>: Abbrev Number: 5 (DW_TAG_formal_parameter)
    <401>   DW_AT_type        : <0x2ec>
 <2><405>: Abbrev Number: 17 (DW_TAG_unspecified_parameters)
 <2><406>: Abbrev Number: 0
 <1><407>: Abbrev Number: 31 (DW_TAG_subprogram)
    <408>   DW_AT_external    : 1
    <408>   DW_AT_name        : (indirect string, offset: 0x27b): exit
    <40c>   DW_AT_decl_file   : 9
    <40d>   DW_AT_decl_line   : 637
    <40f>   DW_AT_decl_column : 13
    <410>   DW_AT_prototyped  : 1
    <410>   DW_AT_noreturn    : 1
    <410>   DW_AT_declaration : 1
    <410>   DW_AT_sibling     : <0x41a>
 <2><414>: Abbrev Number: 5 (DW_TAG_formal_parameter)
    <415>   DW_AT_type        : <0x74>
 <2><419>: Abbrev Number: 0
 <1><41a>: Abbrev Number: 10 (DW_TAG_subprogram)
    <41b>   DW_AT_external    : 1
    <41b>   DW_AT_name        : (indirect string, offset: 0x1f6): fopen
    <41f>   DW_AT_decl_file   : 8
    <420>   DW_AT_decl_line   : 258
    <422>   DW_AT_decl_column : 14
    <423>   DW_AT_prototyped  : 1
    <423>   DW_AT_type        : <0x2a3>
    <427>   DW_AT_declaration : 1
    <427>   DW_AT_sibling     : <0x436>
 <2><42b>: Abbrev Number: 5 (DW_TAG_formal_parameter)
    <42c>   DW_AT_type        : <0x2ec>
 <2><430>: Abbrev Number: 5 (DW_TAG_formal_parameter)
    <431>   DW_AT_type        : <0x2ec>
 <2><435>: Abbrev Number: 0
 <1><436>: Abbrev Number: 10 (DW_TAG_subprogram)
    <437>   DW_AT_external    : 1
    <437>   DW_AT_name        : (indirect string, offset: 0x126): printf
    <43b>   DW_AT_decl_file   : 8
    <43c>   DW_AT_decl_line   : 356
    <43e>   DW_AT_decl_column : 12
    <43f>   DW_AT_prototyped  : 1
    <43f>   DW_AT_type        : <0x74>
    <443>   DW_AT_declaration : 1
    <443>   DW_AT_sibling     : <0x44e>
 <2><447>: Abbrev Number: 5 (DW_TAG_formal_parameter)
    <448>   DW_AT_type        : <0x2e7>
 <2><44c>: Abbrev Number: 17 (DW_TAG_unspecified_parameters)
 <2><44d>: Abbrev Number: 0
 <1><44e>: Abbrev Number: 10 (DW_TAG_subprogram)
    <44f>   DW_AT_external    : 1
    <44f>   DW_AT_name        : (indirect string, offset: 0x162): sprintf
    <453>   DW_AT_decl_file   : 8
    <454>   DW_AT_decl_line   : 358
    <456>   DW_AT_decl_column : 12
    <457>   DW_AT_prototyped  : 1
    <457>   DW_AT_type        : <0x74>
    <45b>   DW_AT_declaration : 1
    <45b>   DW_AT_sibling     : <0x46b>
 <2><45f>: Abbrev Number: 5 (DW_TAG_formal_parameter)
    <460>   DW_AT_type        : <0xb0>
 <2><464>: Abbrev Number: 5 (DW_TAG_formal_parameter)
    <465>   DW_AT_type        : <0x2e7>
 <2><469>: Abbrev Number: 17 (DW_TAG_unspecified_parameters)
 <2><46a>: Abbrev Number: 0
 <1><46b>: Abbrev Number: 32 (DW_TAG_subprogram)
    <46c>   DW_AT_external    : 1
    <46c>   DW_AT_name        : (indirect string, offset: 0x373): main
    <470>   DW_AT_decl_file   : 1
    <471>   DW_AT_decl_line   : 201
    <472>   DW_AT_decl_column : 5
    <473>   DW_AT_prototyped  : 1
    <473>   DW_AT_type        : <0x74>
    <477>   DW_AT_low_pc      : 0x1190
    <47f>   DW_AT_high_pc     : 0x3a
    <487>   DW_AT_frame_base  : 1 byte block: 9c 	(DW_OP_call_frame_cfa)
    <489>   DW_AT_call_all_calls: 1
    <489>   DW_AT_sibling     : <0x507>
 <2><48d>: Abbrev Number: 15 (DW_TAG_formal_parameter)
    <48e>   DW_AT_name        : (indirect string, offset: 0x309): argc
    <492>   DW_AT_decl_file   : 1
    <492>   DW_AT_decl_line   : 201
    <493>   DW_AT_decl_column : 15
    <494>   DW_AT_type        : <0x74>
    <498>   DW_AT_location    : 0x10 (location list)
    <49c>   DW_AT_GNU_locviews: 0xc
 <2><4a0>: Abbrev Number: 15 (DW_TAG_formal_parameter)
    <4a1>   DW_AT_name        : (indirect string, offset: 0x2ed): argv
    <4a5>   DW_AT_decl_file   : 1
    <4a5>   DW_AT_decl_line   : 201
    <4a6>   DW_AT_decl_column : 28
    <4a7>   DW_AT_type        : <0x507>
    <4ab>   DW_AT_location    : 0x26 (location list)
    <4af>   DW_AT_GNU_locviews: 0x22
 <2><4b3>: Abbrev Number: 3 (DW_TAG_call_site)
    <4b4>   DW_AT_call_return_pc: 0x11a8
    <4bc>   DW_AT_call_origin : <0x9e6>
    <4c0>   DW_AT_sibling     : <0x4d2>
 <3><4c4>: Abbrev Number: 1 (DW_TAG_call_site_parameter)
    <4c5>   DW_AT_location    : 1 byte block: 52 	(DW_OP_reg2 (r2))
    <4c7>   DW_AT_call_value  : 9 byte block: 3 0 0 0 0 0 0 13 44 	(DW_OP_addr: 1344)
 <3><4d1>: Abbrev Number: 0
 <2><4d2>: Abbrev Number: 3 (DW_TAG_call_site)
    <4d3>   DW_AT_call_return_pc: 0x11b2
    <4db>   DW_AT_call_origin : <0x6ea>
    <4df>   DW_AT_sibling     : <0x4eb>
 <3><4e3>: Abbrev Number: 1 (DW_TAG_call_site_parameter)
    <4e4>   DW_AT_location    : 1 byte block: 52 	(DW_OP_reg2 (r2))
    <4e6>   DW_AT_call_value  : 3 byte block: a 1 b8 	(DW_OP_const2u: 440)
 <3><4ea>: Abbrev Number: 0
 <2><4eb>: Abbrev Number: 18 (DW_TAG_call_site)
    <4ec>   DW_AT_call_return_pc: 0x11be
    <4f4>   DW_AT_call_origin : <0x50c>
 <3><4f8>: Abbrev Number: 1 (DW_TAG_call_site_parameter)
    <4f9>   DW_AT_location    : 1 byte block: 52 	(DW_OP_reg2 (r2))
    <4fb>   DW_AT_call_value  : 9 byte block: 3 0 0 0 0 0 0 13 58 	(DW_OP_addr: 1358)
 <3><505>: Abbrev Number: 0
 <2><506>: Abbrev Number: 0
 <1><507>: Abbrev Number: 6 (DW_TAG_pointer_type)
    <508>   DW_AT_byte_size   : 8
    <508>   DW_AT_type        : <0xb0>
 <1><50c>: Abbrev Number: 11 (DW_TAG_subprogram)
    <50d>   DW_AT_external    : 1
    <50d>   DW_AT_name        : (indirect string, offset: 0x187): morse
    <511>   DW_AT_decl_file   : 1
    <511>   DW_AT_decl_line   : 192
    <512>   DW_AT_decl_column : 6
    <512>   DW_AT_prototyped  : 1
    <512>   DW_AT_low_pc      : 0x1158
    <51a>   DW_AT_high_pc     : 0x36
    <522>   DW_AT_frame_base  : 1 byte block: 9c 	(DW_OP_call_frame_cfa)
    <524>   DW_AT_call_all_calls: 1
    <524>   DW_AT_sibling     : <0x549>
 <2><528>: Abbrev Number: 15 (DW_TAG_formal_parameter)
    <529>   DW_AT_name        : (indirect string, offset: 0x37): string
    <52d>   DW_AT_decl_file   : 1
    <52d>   DW_AT_decl_line   : 192
    <52e>   DW_AT_decl_column : 25
    <52f>   DW_AT_type        : <0x2e7>
    <533>   DW_AT_location    : 0x3c (location list)
    <537>   DW_AT_GNU_locviews: 0x38
 <2><53b>: Abbrev Number: 7 (DW_TAG_call_site)
    <53c>   DW_AT_call_return_pc: 0x117a
    <544>   DW_AT_call_origin : <0x549>
 <2><548>: Abbrev Number: 0
 <1><549>: Abbrev Number: 11 (DW_TAG_subprogram)
    <54a>   DW_AT_external    : 1
    <54a>   DW_AT_name        : (indirect string, offset: 0x20c): morse_letter
    <54e>   DW_AT_decl_file   : 1
    <54e>   DW_AT_decl_line   : 140
    <54f>   DW_AT_decl_column : 6
    <54f>   DW_AT_prototyped  : 1
    <54f>   DW_AT_low_pc      : 0x1048
    <557>   DW_AT_high_pc     : 0x10e
    <55f>   DW_AT_frame_base  : 1 byte block: 9c 	(DW_OP_call_frame_cfa)
    <561>   DW_AT_call_all_calls: 1
    <561>   DW_AT_sibling     : <0x640>
 <2><565>: Abbrev Number: 19 (DW_TAG_formal_parameter)
    <566>   DW_AT_name        : let
    <56a>   DW_AT_decl_file   : 1
    <56a>   DW_AT_decl_line   : 140
    <56b>   DW_AT_decl_column : 30
    <56c>   DW_AT_type        : <0xbc>
    <570>   DW_AT_location    : 0x57 (location list)
    <574>   DW_AT_GNU_locviews: 0x4b
 <2><578>: Abbrev Number: 33 (DW_TAG_variable)
    <579>   DW_AT_name        : (indirect string, offset: 0x1ee): pattern
    <57d>   DW_AT_decl_file   : 1
    <57e>   DW_AT_decl_line   : 151
    <57f>   DW_AT_decl_column : 15
    <580>   DW_AT_type        : <0x2e7>
    <584>   DW_AT_location    : 0x93 (location list)
    <588>   DW_AT_GNU_locviews: 0x8b
 <2><58c>: Abbrev Number: 3 (DW_TAG_call_site)
    <58d>   DW_AT_call_return_pc: 0x10a6
    <595>   DW_AT_call_origin : <0x436>
    <599>   DW_AT_sibling     : <0x5b1>
 <3><59d>: Abbrev Number: 1 (DW_TAG_call_site_parameter)
    <59e>   DW_AT_location    : 1 byte block: 52 	(DW_OP_reg2 (r2))
    <5a0>   DW_AT_call_value  : 9 byte block: 3 0 0 0 0 0 0 13 2c 	(DW_OP_addr: 132c)
 <3><5aa>: Abbrev Number: 1 (DW_TAG_call_site_parameter)
    <5ab>   DW_AT_location    : 1 byte block: 54 	(DW_OP_reg4 (r4))
    <5ad>   DW_AT_call_value  : 2 byte block: 7b 0 	(DW_OP_breg11 (r11): 0)
 <3><5b0>: Abbrev Number: 0
 <2><5b1>: Abbrev Number: 7 (DW_TAG_call_site)
    <5b2>   DW_AT_call_return_pc: 0x10bc
    <5ba>   DW_AT_call_origin : <0x640>
 <2><5be>: Abbrev Number: 3 (DW_TAG_call_site)
    <5bf>   DW_AT_call_return_pc: 0x10d0
    <5c7>   DW_AT_call_origin : <0x9e6>
    <5cb>   DW_AT_sibling     : <0x5dd>
 <3><5cf>: Abbrev Number: 1 (DW_TAG_call_site_parameter)
    <5d0>   DW_AT_location    : 1 byte block: 52 	(DW_OP_reg2 (r2))
    <5d2>   DW_AT_call_value  : 9 byte block: 3 0 0 0 0 0 0 13 26 	(DW_OP_addr: 1326)
 <3><5dc>: Abbrev Number: 0
 <2><5dd>: Abbrev Number: 7 (DW_TAG_call_site)
    <5de>   DW_AT_call_return_pc: 0x10da
    <5e6>   DW_AT_call_origin : <0x640>
 <2><5ea>: Abbrev Number: 7 (DW_TAG_call_site)
    <5eb>   DW_AT_call_return_pc: 0x110c
    <5f3>   DW_AT_call_origin : <0x640>
 <2><5f7>: Abbrev Number: 3 (DW_TAG_call_site)
    <5f8>   DW_AT_call_return_pc: 0x1116
    <600>   DW_AT_call_origin : <0x699>
    <604>   DW_AT_sibling     : <0x60e>
 <3><608>: Abbrev Number: 1 (DW_TAG_call_site_parameter)
    <609>   DW_AT_location    : 1 byte block: 52 	(DW_OP_reg2 (r2))
    <60b>   DW_AT_call_value  : 1 byte block: 30 	(DW_OP_lit0)
 <3><60d>: Abbrev Number: 0
 <2><60e>: Abbrev Number: 7 (DW_TAG_call_site)
    <60f>   DW_AT_call_return_pc: 0x1120
    <617>   DW_AT_call_origin : <0x640>
 <2><61b>: Abbrev Number: 3 (DW_TAG_call_site)
    <61c>   DW_AT_call_return_pc: 0x113a
    <624>   DW_AT_call_origin : <0x699>
    <628>   DW_AT_sibling     : <0x632>
 <3><62c>: Abbrev Number: 1 (DW_TAG_call_site_parameter)
    <62d>   DW_AT_location    : 1 byte block: 52 	(DW_OP_reg2 (r2))
    <62f>   DW_AT_call_value  : 1 byte block: 31 	(DW_OP_lit1)
 <3><631>: Abbrev Number: 0
 <2><632>: Abbrev Number: 7 (DW_TAG_call_site)
    <633>   DW_AT_call_return_pc: 0x1152
    <63b>   DW_AT_call_origin : <0x640>
 <2><63f>: Abbrev Number: 0
 <1><640>: Abbrev Number: 11 (DW_TAG_subprogram)
    <641>   DW_AT_external    : 1
    <641>   DW_AT_name        : (indirect string, offset: 0x2ac): fsleep
    <645>   DW_AT_decl_file   : 1
    <645>   DW_AT_decl_line   : 70
    <646>   DW_AT_decl_column : 6
    <646>   DW_AT_prototyped  : 1
    <646>   DW_AT_low_pc      : 0x1008
    <64e>   DW_AT_high_pc     : 0x3e
    <656>   DW_AT_frame_base  : 1 byte block: 9c 	(DW_OP_call_frame_cfa)
    <658>   DW_AT_call_all_calls: 1
    <658>   DW_AT_sibling     : <0x699>
 <2><65c>: Abbrev Number: 19 (DW_TAG_formal_parameter)
    <65d>   DW_AT_name        : dur
    <661>   DW_AT_decl_file   : 1
    <661>   DW_AT_decl_line   : 70
    <662>   DW_AT_decl_column : 20
    <663>   DW_AT_type        : <0x2e>
    <667>   DW_AT_location    : 0xc6 (location list)
    <66b>   DW_AT_GNU_locviews: 0xc2
 <2><66f>: Abbrev Number: 23 (DW_TAG_variable)
    <670>   DW_AT_name        : tim
    <674>   DW_AT_decl_file   : 1
    <674>   DW_AT_decl_line   : 72
    <675>   DW_AT_decl_column : 18
    <676>   DW_AT_type        : <0x2b4>
    <67a>   DW_AT_location    : 3 byte block: 91 d0 7e 	(DW_OP_fbreg: -176)
 <2><67e>: Abbrev Number: 18 (DW_TAG_call_site)
    <67f>   DW_AT_call_return_pc: 0x103e
    <687>   DW_AT_call_origin : <0x39c>
 <3><68b>: Abbrev Number: 1 (DW_TAG_call_site_parameter)
    <68c>   DW_AT_location    : 1 byte block: 52 	(DW_OP_reg2 (r2))
    <68e>   DW_AT_call_value  : 3 byte block: 91 d0 7e 	(DW_OP_fbreg: -176)
 <3><692>: Abbrev Number: 1 (DW_TAG_call_site_parameter)
    <693>   DW_AT_location    : 1 byte block: 53 	(DW_OP_reg3 (r3))
    <695>   DW_AT_call_value  : 1 byte block: 30 	(DW_OP_lit0)
 <3><697>: Abbrev Number: 0
 <2><698>: Abbrev Number: 0
 <1><699>: Abbrev Number: 11 (DW_TAG_subprogram)
    <69a>   DW_AT_external    : 1
    <69a>   DW_AT_name        : (indirect string, offset: 0x1d0): io_write
    <69e>   DW_AT_decl_file   : 1
    <69e>   DW_AT_decl_line   : 63
    <69f>   DW_AT_decl_column : 6
    <69f>   DW_AT_prototyped  : 1
    <69f>   DW_AT_low_pc      : 0xfc8
    <6a7>   DW_AT_high_pc     : 0x40
    <6af>   DW_AT_frame_base  : 1 byte block: 9c 	(DW_OP_call_frame_cfa)
    <6b1>   DW_AT_call_all_calls: 1
    <6b1>   DW_AT_sibling     : <0x6e3>
 <2><6b5>: Abbrev Number: 15 (DW_TAG_formal_parameter)
    <6b6>   DW_AT_name        : (indirect string, offset: 0x2f2): status
    <6ba>   DW_AT_decl_file   : 1
    <6ba>   DW_AT_decl_line   : 63
    <6bb>   DW_AT_decl_column : 20
    <6bc>   DW_AT_type        : <0x6e3>
    <6c0>   DW_AT_location    : 0xde (location list)
    <6c4>   DW_AT_GNU_locviews: 0xda
 <2><6c8>: Abbrev Number: 7 (DW_TAG_call_site)
    <6c9>   DW_AT_call_return_pc: 0xff4
    <6d1>   DW_AT_call_origin : <0x3ea>
 <2><6d5>: Abbrev Number: 7 (DW_TAG_call_site)
    <6d6>   DW_AT_call_return_pc: 0x1000
    <6de>   DW_AT_call_origin : <0x3c2>
 <2><6e2>: Abbrev Number: 0
 <1><6e3>: Abbrev Number: 4 (DW_TAG_base_type)
    <6e4>   DW_AT_byte_size   : 1
    <6e5>   DW_AT_encoding    : 2	(boolean)
    <6e6>   DW_AT_name        : (indirect string, offset: 0x22d): _Bool
 <1><6ea>: Abbrev Number: 11 (DW_TAG_subprogram)
    <6eb>   DW_AT_external    : 1
    <6eb>   DW_AT_name        : (indirect string, offset: 0x105): io_init
    <6ef>   DW_AT_decl_file   : 1
    <6ef>   DW_AT_decl_line   : 18
    <6f0>   DW_AT_decl_column : 6
    <6f0>   DW_AT_prototyped  : 1
    <6f0>   DW_AT_low_pc      : 0xe10
    <6f8>   DW_AT_high_pc     : 0x1b2
    <700>   DW_AT_frame_base  : 1 byte block: 9c 	(DW_OP_call_frame_cfa)
    <702>   DW_AT_call_all_calls: 1
    <702>   DW_AT_sibling     : <0x9d6>
 <2><706>: Abbrev Number: 19 (DW_TAG_formal_parameter)
    <707>   DW_AT_name        : pin
    <70b>   DW_AT_decl_file   : 1
    <70b>   DW_AT_decl_line   : 18
    <70c>   DW_AT_decl_column : 24
    <70d>   DW_AT_type        : <0x7b>
    <711>   DW_AT_location    : 0xf4 (location list)
    <715>   DW_AT_GNU_locviews: 0xf0
 <2><719>: Abbrev Number: 24 (DW_TAG_variable)
    <71a>   DW_AT_name        : (indirect string, offset: 0x3e): path
    <71e>   DW_AT_decl_file   : 1
    <71e>   DW_AT_decl_line   : 20
    <71f>   DW_AT_decl_column : 7
    <720>   DW_AT_type        : <0x9d6>
    <724>   DW_AT_location    : 3 byte block: 91 a0 7e 	(DW_OP_fbreg: -224)
 <2><728>: Abbrev Number: 3 (DW_TAG_call_site)
    <729>   DW_AT_call_return_pc: 0xe3a
    <731>   DW_AT_call_origin : <0x44e>
    <735>   DW_AT_sibling     : <0x753>
 <3><739>: Abbrev Number: 1 (DW_TAG_call_site_parameter)
    <73a>   DW_AT_location    : 1 byte block: 52 	(DW_OP_reg2 (r2))
    <73c>   DW_AT_call_value  : 2 byte block: 7a 0 	(DW_OP_breg10 (r10): 0)
 <3><73f>: Abbrev Number: 1 (DW_TAG_call_site_parameter)
    <740>   DW_AT_location    : 1 byte block: 53 	(DW_OP_reg3 (r3))
    <742>   DW_AT_call_value  : 9 byte block: 3 0 0 0 0 0 0 12 4 	(DW_OP_addr: 1204)
 <3><74c>: Abbrev Number: 1 (DW_TAG_call_site_parameter)
    <74d>   DW_AT_location    : 1 byte block: 54 	(DW_OP_reg4 (r4))
    <74f>   DW_AT_call_value  : 2 byte block: 7b 0 	(DW_OP_breg11 (r11): 0)
 <3><752>: Abbrev Number: 0
 <2><753>: Abbrev Number: 3 (DW_TAG_call_site)
    <754>   DW_AT_call_return_pc: 0xe4a
    <75c>   DW_AT_call_origin : <0x436>
    <760>   DW_AT_sibling     : <0x778>
 <3><764>: Abbrev Number: 1 (DW_TAG_call_site_parameter)
    <765>   DW_AT_location    : 1 byte block: 52 	(DW_OP_reg2 (r2))
    <767>   DW_AT_call_value  : 9 byte block: 3 0 0 0 0 0 0 12 26 	(DW_OP_addr: 1226)
 <3><771>: Abbrev Number: 1 (DW_TAG_call_site_parameter)
    <772>   DW_AT_location    : 1 byte block: 53 	(DW_OP_reg3 (r3))
    <774>   DW_AT_call_value  : 2 byte block: 7a 0 	(DW_OP_breg10 (r10): 0)
 <3><777>: Abbrev Number: 0
 <2><778>: Abbrev Number: 3 (DW_TAG_call_site)
    <779>   DW_AT_call_return_pc: 0xe5a
    <781>   DW_AT_call_origin : <0x41a>
    <785>   DW_AT_sibling     : <0x79d>
 <3><789>: Abbrev Number: 1 (DW_TAG_call_site_parameter)
    <78a>   DW_AT_location    : 1 byte block: 52 	(DW_OP_reg2 (r2))
    <78c>   DW_AT_call_value  : 2 byte block: 7a 0 	(DW_OP_breg10 (r10): 0)
 <3><78f>: Abbrev Number: 1 (DW_TAG_call_site_parameter)
    <790>   DW_AT_location    : 1 byte block: 53 	(DW_OP_reg3 (r3))
    <792>   DW_AT_call_value  : 9 byte block: 3 0 0 0 0 0 0 12 42 	(DW_OP_addr: 1242)
 <3><79c>: Abbrev Number: 0
 <2><79d>: Abbrev Number: 3 (DW_TAG_call_site)
    <79e>   DW_AT_call_return_pc: 0xe88
    <7a6>   DW_AT_call_origin : <0x9ef>
    <7aa>   DW_AT_sibling     : <0x7c6>
 <3><7ae>: Abbrev Number: 1 (DW_TAG_call_site_parameter)
    <7af>   DW_AT_location    : 1 byte block: 52 	(DW_OP_reg2 (r2))
    <7b1>   DW_AT_call_value  : 9 byte block: 3 0 0 0 0 0 0 12 c6 	(DW_OP_addr: 12c6)
 <3><7bb>: Abbrev Number: 1 (DW_TAG_call_site_parameter)
    <7bc>   DW_AT_location    : 1 byte block: 53 	(DW_OP_reg3 (r3))
    <7be>   DW_AT_call_value  : 1 byte block: 31 	(DW_OP_lit1)
 <3><7c0>: Abbrev Number: 1 (DW_TAG_call_site_parameter)
    <7c1>   DW_AT_location    : 1 byte block: 54 	(DW_OP_reg4 (r4))
    <7c3>   DW_AT_call_value  : 1 byte block: 33 	(DW_OP_lit3)
 <3><7c5>: Abbrev Number: 0
 <2><7c6>: Abbrev Number: 7 (DW_TAG_call_site)
    <7c7>   DW_AT_call_return_pc: 0xe94
    <7cf>   DW_AT_call_origin : <0x3d6>
 <2><7d3>: Abbrev Number: 3 (DW_TAG_call_site)
    <7d4>   DW_AT_call_return_pc: 0xeae
    <7dc>   DW_AT_call_origin : <0x44e>
    <7e0>   DW_AT_sibling     : <0x7fe>
 <3><7e4>: Abbrev Number: 1 (DW_TAG_call_site_parameter)
    <7e5>   DW_AT_location    : 1 byte block: 52 	(DW_OP_reg2 (r2))
    <7e7>   DW_AT_call_value  : 2 byte block: 79 0 	(DW_OP_breg9 (r9): 0)
 <3><7ea>: Abbrev Number: 1 (DW_TAG_call_site_parameter)
    <7eb>   DW_AT_location    : 1 byte block: 53 	(DW_OP_reg3 (r3))
    <7ed>   DW_AT_call_value  : 9 byte block: 3 0 0 0 0 0 0 12 ca 	(DW_OP_addr: 12ca)
 <3><7f7>: Abbrev Number: 1 (DW_TAG_call_site_parameter)
    <7f8>   DW_AT_location    : 1 byte block: 54 	(DW_OP_reg4 (r4))
    <7fa>   DW_AT_call_value  : 2 byte block: 7b 0 	(DW_OP_breg11 (r11): 0)
 <3><7fd>: Abbrev Number: 0
 <2><7fe>: Abbrev Number: 3 (DW_TAG_call_site)
    <7ff>   DW_AT_call_return_pc: 0xebe
    <807>   DW_AT_call_origin : <0x436>
    <80b>   DW_AT_sibling     : <0x823>
 <3><80f>: Abbrev Number: 1 (DW_TAG_call_site_parameter)
    <810>   DW_AT_location    : 1 byte block: 52 	(DW_OP_reg2 (r2))
    <812>   DW_AT_call_value  : 9 byte block: 3 0 0 0 0 0 0 12 e8 	(DW_OP_addr: 12e8)
 <3><81c>: Abbrev Number: 1 (DW_TAG_call_site_parameter)
    <81d>   DW_AT_location    : 1 byte block: 53 	(DW_OP_reg3 (r3))
    <81f>   DW_AT_call_value  : 2 byte block: 79 0 	(DW_OP_breg9 (r9): 0)
 <3><822>: Abbrev Number: 0
 <2><823>: Abbrev Number: 3 (DW_TAG_call_site)
    <824>   DW_AT_call_return_pc: 0xece
    <82c>   DW_AT_call_origin : <0x41a>
    <830>   DW_AT_sibling     : <0x848>
 <3><834>: Abbrev Number: 1 (DW_TAG_call_site_parameter)
    <835>   DW_AT_location    : 1 byte block: 52 	(DW_OP_reg2 (r2))
    <837>   DW_AT_call_value  : 2 byte block: 79 0 	(DW_OP_breg9 (r9): 0)
 <3><83a>: Abbrev Number: 1 (DW_TAG_call_site_parameter)
    <83b>   DW_AT_location    : 1 byte block: 53 	(DW_OP_reg3 (r3))
    <83d>   DW_AT_call_value  : 9 byte block: 3 0 0 0 0 0 0 12 42 	(DW_OP_addr: 1242)
 <3><847>: Abbrev Number: 0
 <2><848>: Abbrev Number: 3 (DW_TAG_call_site)
    <849>   DW_AT_call_return_pc: 0xeea
    <851>   DW_AT_call_origin : <0x9f8>
    <855>   DW_AT_sibling     : <0x860>
 <3><859>: Abbrev Number: 1 (DW_TAG_call_site_parameter)
    <85a>   DW_AT_location    : 1 byte block: 52 	(DW_OP_reg2 (r2))
    <85c>   DW_AT_call_value  : 2 byte block: 8 30 	(DW_OP_const1u: 48)
 <3><85f>: Abbrev Number: 0
 <2><860>: Abbrev Number: 7 (DW_TAG_call_site)
    <861>   DW_AT_call_return_pc: 0xef6
    <869>   DW_AT_call_origin : <0x3c2>
 <2><86d>: Abbrev Number: 3 (DW_TAG_call_site)
    <86e>   DW_AT_call_return_pc: 0xf0a
    <876>   DW_AT_call_origin : <0x9e6>
    <87a>   DW_AT_sibling     : <0x88c>
 <3><87e>: Abbrev Number: 1 (DW_TAG_call_site_parameter)
    <87f>   DW_AT_location    : 1 byte block: 52 	(DW_OP_reg2 (r2))
    <881>   DW_AT_call_value  : 9 byte block: 3 0 0 0 0 0 0 12 44 	(DW_OP_addr: 1244)
 <3><88b>: Abbrev Number: 0
 <2><88c>: Abbrev Number: 3 (DW_TAG_call_site)
    <88d>   DW_AT_call_return_pc: 0xf1c
    <895>   DW_AT_call_origin : <0x41a>
    <899>   DW_AT_sibling     : <0x8b8>
 <3><89d>: Abbrev Number: 1 (DW_TAG_call_site_parameter)
    <89e>   DW_AT_location    : 1 byte block: 52 	(DW_OP_reg2 (r2))
    <8a0>   DW_AT_call_value  : 9 byte block: 3 0 0 0 0 0 0 12 68 	(DW_OP_addr: 1268)
 <3><8aa>: Abbrev Number: 1 (DW_TAG_call_site_parameter)
    <8ab>   DW_AT_location    : 1 byte block: 53 	(DW_OP_reg3 (r3))
    <8ad>   DW_AT_call_value  : 9 byte block: 3 0 0 0 0 0 0 12 42 	(DW_OP_addr: 1242)
 <3><8b7>: Abbrev Number: 0
 <2><8b8>: Abbrev Number: 3 (DW_TAG_call_site)
    <8b9>   DW_AT_call_return_pc: 0xf3a
    <8c1>   DW_AT_call_origin : <0x3ea>
    <8c5>   DW_AT_sibling     : <0x8dd>
 <3><8c9>: Abbrev Number: 1 (DW_TAG_call_site_parameter)
    <8ca>   DW_AT_location    : 1 byte block: 53 	(DW_OP_reg3 (r3))
    <8cc>   DW_AT_call_value  : 9 byte block: 3 0 0 0 0 0 0 12 9c 	(DW_OP_addr: 129c)
 <3><8d6>: Abbrev Number: 1 (DW_TAG_call_site_parameter)
    <8d7>   DW_AT_location    : 1 byte block: 54 	(DW_OP_reg4 (r4))
    <8d9>   DW_AT_call_value  : 2 byte block: 7b 0 	(DW_OP_breg11 (r11): 0)
 <3><8dc>: Abbrev Number: 0
 <2><8dd>: Abbrev Number: 7 (DW_TAG_call_site)
    <8de>   DW_AT_call_return_pc: 0xf4c
    <8e6>   DW_AT_call_origin : <0x3d6>
 <2><8ea>: Abbrev Number: 3 (DW_TAG_call_site)
    <8eb>   DW_AT_call_return_pc: 0xf62
    <8f3>   DW_AT_call_origin : <0x436>
    <8f7>   DW_AT_sibling     : <0x90f>
 <3><8fb>: Abbrev Number: 1 (DW_TAG_call_site_parameter)
    <8fc>   DW_AT_location    : 1 byte block: 52 	(DW_OP_reg2 (r2))
    <8fe>   DW_AT_call_value  : 9 byte block: 3 0 0 0 0 0 0 12 26 	(DW_OP_addr: 1226)
 <3><908>: Abbrev Number: 1 (DW_TAG_call_site_parameter)
    <909>   DW_AT_location    : 1 byte block: 53 	(DW_OP_reg3 (r3))
    <90b>   DW_AT_call_value  : 2 byte block: 79 0 	(DW_OP_breg9 (r9): 0)
 <3><90e>: Abbrev Number: 0
 <2><90f>: Abbrev Number: 3 (DW_TAG_call_site)
    <910>   DW_AT_call_return_pc: 0xf72
    <918>   DW_AT_call_origin : <0x41a>
    <91c>   DW_AT_sibling     : <0x934>
 <3><920>: Abbrev Number: 1 (DW_TAG_call_site_parameter)
    <921>   DW_AT_location    : 1 byte block: 52 	(DW_OP_reg2 (r2))
    <923>   DW_AT_call_value  : 2 byte block: 79 0 	(DW_OP_breg9 (r9): 0)
 <3><926>: Abbrev Number: 1 (DW_TAG_call_site_parameter)
    <927>   DW_AT_location    : 1 byte block: 53 	(DW_OP_reg3 (r3))
    <929>   DW_AT_call_value  : 9 byte block: 3 0 0 0 0 0 0 12 42 	(DW_OP_addr: 1242)
 <3><933>: Abbrev Number: 0
 <2><934>: Abbrev Number: 3 (DW_TAG_call_site)
    <935>   DW_AT_call_return_pc: 0xf8c
    <93d>   DW_AT_call_origin : <0x9e6>
    <941>   DW_AT_sibling     : <0x953>
 <3><945>: Abbrev Number: 1 (DW_TAG_call_site_parameter)
    <946>   DW_AT_location    : 1 byte block: 52 	(DW_OP_reg2 (r2))
    <948>   DW_AT_call_value  : 9 byte block: 3 0 0 0 0 0 0 12 a0 	(DW_OP_addr: 12a0)
 <3><952>: Abbrev Number: 0
 <2><953>: Abbrev Number: 3 (DW_TAG_call_site)
    <954>   DW_AT_call_return_pc: 0xf96
    <95c>   DW_AT_call_origin : <0x407>
    <960>   DW_AT_sibling     : <0x96b>
 <3><964>: Abbrev Number: 1 (DW_TAG_call_site_parameter)
    <965>   DW_AT_location    : 1 byte block: 52 	(DW_OP_reg2 (r2))
    <967>   DW_AT_call_value  : 2 byte block: 9 ff 	(DW_OP_const1s: -1)
 <3><96a>: Abbrev Number: 0
 <2><96b>: Abbrev Number: 3 (DW_TAG_call_site)
    <96c>   DW_AT_call_return_pc: 0xfa2
    <974>   DW_AT_call_origin : <0x9e6>
    <978>   DW_AT_sibling     : <0x98a>
 <3><97c>: Abbrev Number: 1 (DW_TAG_call_site_parameter)
    <97d>   DW_AT_location    : 1 byte block: 52 	(DW_OP_reg2 (r2))
    <97f>   DW_AT_call_value  : 9 byte block: 3 0 0 0 0 0 0 12 80 	(DW_OP_addr: 1280)
 <3><989>: Abbrev Number: 0
 <2><98a>: Abbrev Number: 3 (DW_TAG_call_site)
    <98b>   DW_AT_call_return_pc: 0xfac
    <993>   DW_AT_call_origin : <0x407>
    <997>   DW_AT_sibling     : <0x9a2>
 <3><99b>: Abbrev Number: 1 (DW_TAG_call_site_parameter)
    <99c>   DW_AT_location    : 1 byte block: 52 	(DW_OP_reg2 (r2))
    <99e>   DW_AT_call_value  : 2 byte block: 9 ff 	(DW_OP_const1s: -1)
 <3><9a1>: Abbrev Number: 0
 <2><9a2>: Abbrev Number: 3 (DW_TAG_call_site)
    <9a3>   DW_AT_call_return_pc: 0xfb8
    <9ab>   DW_AT_call_origin : <0x9e6>
    <9af>   DW_AT_sibling     : <0x9c1>
 <3><9b3>: Abbrev Number: 1 (DW_TAG_call_site_parameter)
    <9b4>   DW_AT_location    : 1 byte block: 52 	(DW_OP_reg2 (r2))
    <9b6>   DW_AT_call_value  : 9 byte block: 3 0 0 0 0 0 0 13 0 	(DW_OP_addr: 1300)
 <3><9c0>: Abbrev Number: 0
 <2><9c1>: Abbrev Number: 18 (DW_TAG_call_site)
    <9c2>   DW_AT_call_return_pc: 0xfc2
    <9ca>   DW_AT_call_origin : <0x407>
 <3><9ce>: Abbrev Number: 1 (DW_TAG_call_site_parameter)
    <9cf>   DW_AT_location    : 1 byte block: 52 	(DW_OP_reg2 (r2))
    <9d1>   DW_AT_call_value  : 2 byte block: 9 ff 	(DW_OP_const1s: -1)
 <3><9d4>: Abbrev Number: 0
 <2><9d5>: Abbrev Number: 0
 <1><9d6>: Abbrev Number: 13 (DW_TAG_array_type)
    <9d7>   DW_AT_type        : <0xb5>
    <9db>   DW_AT_sibling     : <0x9e6>
 <2><9df>: Abbrev Number: 14 (DW_TAG_subrange_type)
    <9e0>   DW_AT_type        : <0x41>
    <9e4>   DW_AT_upper_bound : 63
 <2><9e5>: Abbrev Number: 0
 <1><9e6>: Abbrev Number: 20 (DW_TAG_subprogram)
    <9e7>   DW_AT_external    : 1
    <9e7>   DW_AT_declaration : 1
    <9e7>   DW_AT_linkage_name: (indirect string, offset: 0x182): puts
    <9eb>   DW_AT_name        : (indirect string, offset: 0x178): __builtin_puts
    <9ef>   DW_AT_decl_file   : 10
    <9ef>   DW_AT_decl_line   : 0
 <1><9ef>: Abbrev Number: 20 (DW_TAG_subprogram)
    <9f0>   DW_AT_external    : 1
    <9f0>   DW_AT_declaration : 1
    <9f0>   DW_AT_linkage_name: (indirect string, offset: 0x89): fwrite
    <9f4>   DW_AT_name        : (indirect string, offset: 0x7f): __builtin_fwrite
    <9f8>   DW_AT_decl_file   : 10
    <9f8>   DW_AT_decl_line   : 0
 <1><9f8>: Abbrev Number: 20 (DW_TAG_subprogram)
    <9f9>   DW_AT_external    : 1
    <9f9>   DW_AT_declaration : 1
    <9f9>   DW_AT_linkage_name: (indirect string, offset: 0xa9): fputc
    <9fd>   DW_AT_name        : (indirect string, offset: 0x9f): __builtin_fputc
    <a01>   DW_AT_decl_file   : 10
    <a01>   DW_AT_decl_line   : 0
 <1><a01>: Abbrev Number: 0

Contents of the .debug_abbrev section (loaded from a.out):

  Number TAG (0)
   1      DW_TAG_call_site_parameter    [no children]
    DW_AT_location     DW_FORM_exprloc
    DW_AT_call_value   DW_FORM_exprloc
    DW_AT value: 0     DW_FORM value: 0
   2      DW_TAG_member    [no children]
    DW_AT_name         DW_FORM_strp
    DW_AT_decl_file    DW_FORM_data1
    DW_AT_decl_line    DW_FORM_data1
    DW_AT_decl_column  DW_FORM_data1
    DW_AT_type         DW_FORM_ref4
    DW_AT_data_member_location DW_FORM_data1
    DW_AT value: 0     DW_FORM value: 0
   3      DW_TAG_call_site    [has children]
    DW_AT_call_return_pc DW_FORM_addr
    DW_AT_call_origin  DW_FORM_ref4
    DW_AT_sibling      DW_FORM_ref4
    DW_AT value: 0     DW_FORM value: 0
   4      DW_TAG_base_type    [no children]
    DW_AT_byte_size    DW_FORM_data1
    DW_AT_encoding     DW_FORM_data1
    DW_AT_name         DW_FORM_strp
    DW_AT value: 0     DW_FORM value: 0
   5      DW_TAG_formal_parameter    [no children]
    DW_AT_type         DW_FORM_ref4
    DW_AT value: 0     DW_FORM value: 0
   6      DW_TAG_pointer_type    [no children]
    DW_AT_byte_size    DW_FORM_implicit_const: 8
    DW_AT_type         DW_FORM_ref4
    DW_AT value: 0     DW_FORM value: 0
   7      DW_TAG_call_site    [no children]
    DW_AT_call_return_pc DW_FORM_addr
    DW_AT_call_origin  DW_FORM_ref4
    DW_AT value: 0     DW_FORM value: 0
   8      DW_TAG_typedef    [no children]
    DW_AT_name         DW_FORM_strp
    DW_AT_decl_file    DW_FORM_data1
    DW_AT_decl_line    DW_FORM_data1
    DW_AT_decl_column  DW_FORM_data1
    DW_AT_type         DW_FORM_ref4
    DW_AT value: 0     DW_FORM value: 0
   9      DW_TAG_variable    [no children]
    DW_AT_name         DW_FORM_strp
    DW_AT_decl_file    DW_FORM_implicit_const: 1
    DW_AT_decl_line    DW_FORM_data1
    DW_AT_decl_column  DW_FORM_implicit_const: 21
    DW_AT_type         DW_FORM_ref4
    DW_AT_const_value  DW_FORM_block1
    DW_AT value: 0     DW_FORM value: 0
   10      DW_TAG_subprogram    [has children]
    DW_AT_external     DW_FORM_flag_present
    DW_AT_name         DW_FORM_strp
    DW_AT_decl_file    DW_FORM_data1
    DW_AT_decl_line    DW_FORM_data2
    DW_AT_decl_column  DW_FORM_data1
    DW_AT_prototyped   DW_FORM_flag_present
    DW_AT_type         DW_FORM_ref4
    DW_AT_declaration  DW_FORM_flag_present
    DW_AT_sibling      DW_FORM_ref4
    DW_AT value: 0     DW_FORM value: 0
   11      DW_TAG_subprogram    [has children]
    DW_AT_external     DW_FORM_flag_present
    DW_AT_name         DW_FORM_strp
    DW_AT_decl_file    DW_FORM_implicit_const: 1
    DW_AT_decl_line    DW_FORM_data1
    DW_AT_decl_column  DW_FORM_implicit_const: 6
    DW_AT_prototyped   DW_FORM_flag_present
    DW_AT_low_pc       DW_FORM_addr
    DW_AT_high_pc      DW_FORM_data8
    DW_AT_frame_base   DW_FORM_exprloc
    DW_AT_call_all_calls DW_FORM_flag_present
    DW_AT_sibling      DW_FORM_ref4
    DW_AT value: 0     DW_FORM value: 0
   12      DW_TAG_const_type    [no children]
    DW_AT_type         DW_FORM_ref4
    DW_AT value: 0     DW_FORM value: 0
   13      DW_TAG_array_type    [has children]
    DW_AT_type         DW_FORM_ref4
    DW_AT_sibling      DW_FORM_ref4
    DW_AT value: 0     DW_FORM value: 0
   14      DW_TAG_subrange_type    [no children]
    DW_AT_type         DW_FORM_ref4
    DW_AT_upper_bound  DW_FORM_data1
    DW_AT value: 0     DW_FORM value: 0
   15      DW_TAG_formal_parameter    [no children]
    DW_AT_name         DW_FORM_strp
    DW_AT_decl_file    DW_FORM_implicit_const: 1
    DW_AT_decl_line    DW_FORM_data1
    DW_AT_decl_column  DW_FORM_data1
    DW_AT_type         DW_FORM_ref4
    DW_AT_location     DW_FORM_sec_offset
    DW_AT_GNU_locviews DW_FORM_sec_offset
    DW_AT value: 0     DW_FORM value: 0
   16      DW_TAG_structure_type    [no children]
    DW_AT_name         DW_FORM_strp
    DW_AT_declaration  DW_FORM_flag_present
    DW_AT value: 0     DW_FORM value: 0
   17      DW_TAG_unspecified_parameters    [no children]
    DW_AT value: 0     DW_FORM value: 0
   18      DW_TAG_call_site    [has children]
    DW_AT_call_return_pc DW_FORM_addr
    DW_AT_call_origin  DW_FORM_ref4
    DW_AT value: 0     DW_FORM value: 0
   19      DW_TAG_formal_parameter    [no children]
    DW_AT_name         DW_FORM_string
    DW_AT_decl_file    DW_FORM_implicit_const: 1
    DW_AT_decl_line    DW_FORM_data1
    DW_AT_decl_column  DW_FORM_data1
    DW_AT_type         DW_FORM_ref4
    DW_AT_location     DW_FORM_sec_offset
    DW_AT_GNU_locviews DW_FORM_sec_offset
    DW_AT value: 0     DW_FORM value: 0
   20      DW_TAG_subprogram    [no children]
    DW_AT_external     DW_FORM_flag_present
    DW_AT_declaration  DW_FORM_flag_present
    DW_AT_linkage_name DW_FORM_strp
    DW_AT_name         DW_FORM_strp
    DW_AT_decl_file    DW_FORM_implicit_const: 10
    DW_AT_decl_line    DW_FORM_implicit_const: 0
    DW_AT value: 0     DW_FORM value: 0
   21      DW_TAG_structure_type    [has children]
    DW_AT_name         DW_FORM_strp
    DW_AT_byte_size    DW_FORM_data1
    DW_AT_decl_file    DW_FORM_data1
    DW_AT_decl_line    DW_FORM_data1
    DW_AT_decl_column  DW_FORM_implicit_const: 8
    DW_AT_sibling      DW_FORM_ref4
    DW_AT value: 0     DW_FORM value: 0
   22      DW_TAG_restrict_type    [no children]
    DW_AT_type         DW_FORM_ref4
    DW_AT value: 0     DW_FORM value: 0
   23      DW_TAG_variable    [no children]
    DW_AT_name         DW_FORM_string
    DW_AT_decl_file    DW_FORM_implicit_const: 1
    DW_AT_decl_line    DW_FORM_data1
    DW_AT_decl_column  DW_FORM_data1
    DW_AT_type         DW_FORM_ref4
    DW_AT_location     DW_FORM_exprloc
    DW_AT value: 0     DW_FORM value: 0
   24      DW_TAG_variable    [no children]
    DW_AT_name         DW_FORM_strp
    DW_AT_decl_file    DW_FORM_implicit_const: 1
    DW_AT_decl_line    DW_FORM_data1
    DW_AT_decl_column  DW_FORM_data1
    DW_AT_type         DW_FORM_ref4
    DW_AT_location     DW_FORM_exprloc
    DW_AT value: 0     DW_FORM value: 0
   25      DW_TAG_subprogram    [has children]
    DW_AT_external     DW_FORM_flag_present
    DW_AT_name         DW_FORM_strp
    DW_AT_decl_file    DW_FORM_implicit_const: 8
    DW_AT_decl_line    DW_FORM_data1
    DW_AT_decl_column  DW_FORM_implicit_const: 12
    DW_AT_prototyped   DW_FORM_flag_present
    DW_AT_type         DW_FORM_ref4
    DW_AT_declaration  DW_FORM_flag_present
    DW_AT_sibling      DW_FORM_ref4
    DW_AT value: 0     DW_FORM value: 0
   26      DW_TAG_compile_unit    [has children]
    DW_AT_producer     DW_FORM_strp
    DW_AT_language     DW_FORM_data1
    DW_AT_name         DW_FORM_strp
    DW_AT_comp_dir     DW_FORM_strp
    DW_AT_low_pc       DW_FORM_addr
    DW_AT_high_pc      DW_FORM_data8
    DW_AT_stmt_list    DW_FORM_sec_offset
    DW_AT value: 0     DW_FORM value: 0
   27      DW_TAG_pointer_type    [no children]
    DW_AT_byte_size    DW_FORM_data1
    DW_AT value: 0     DW_FORM value: 0
   28      DW_TAG_base_type    [no children]
    DW_AT_byte_size    DW_FORM_data1
    DW_AT_encoding     DW_FORM_data1
    DW_AT_name         DW_FORM_string
    DW_AT value: 0     DW_FORM value: 0
   29      DW_TAG_typedef    [no children]
    DW_AT_name         DW_FORM_strp
    DW_AT_decl_file    DW_FORM_data1
    DW_AT_decl_line    DW_FORM_data1
    DW_AT_decl_column  DW_FORM_data1
    DW_AT value: 0     DW_FORM value: 0
   30      DW_TAG_variable    [no children]
    DW_AT_name         DW_FORM_strp
    DW_AT_decl_file    DW_FORM_data1
    DW_AT_decl_line    DW_FORM_data1
    DW_AT_decl_column  DW_FORM_data1
    DW_AT_type         DW_FORM_ref4
    DW_AT_const_value  DW_FORM_data2
    DW_AT value: 0     DW_FORM value: 0
   31      DW_TAG_subprogram    [has children]
    DW_AT_external     DW_FORM_flag_present
    DW_AT_name         DW_FORM_strp
    DW_AT_decl_file    DW_FORM_data1
    DW_AT_decl_line    DW_FORM_data2
    DW_AT_decl_column  DW_FORM_data1
    DW_AT_prototyped   DW_FORM_flag_present
    DW_AT_noreturn     DW_FORM_flag_present
    DW_AT_declaration  DW_FORM_flag_present
    DW_AT_sibling      DW_FORM_ref4
    DW_AT value: 0     DW_FORM value: 0
   32      DW_TAG_subprogram    [has children]
    DW_AT_external     DW_FORM_flag_present
    DW_AT_name         DW_FORM_strp
    DW_AT_decl_file    DW_FORM_data1
    DW_AT_decl_line    DW_FORM_data1
    DW_AT_decl_column  DW_FORM_data1
    DW_AT_prototyped   DW_FORM_flag_present
    DW_AT_type         DW_FORM_ref4
    DW_AT_low_pc       DW_FORM_addr
    DW_AT_high_pc      DW_FORM_data8
    DW_AT_frame_base   DW_FORM_exprloc
    DW_AT_call_all_calls DW_FORM_flag_present
    DW_AT_sibling      DW_FORM_ref4
    DW_AT value: 0     DW_FORM value: 0
   33      DW_TAG_variable    [no children]
    DW_AT_name         DW_FORM_strp
    DW_AT_decl_file    DW_FORM_data1
    DW_AT_decl_line    DW_FORM_data1
    DW_AT_decl_column  DW_FORM_data1
    DW_AT_type         DW_FORM_ref4
    DW_AT_location     DW_FORM_sec_offset
    DW_AT_GNU_locviews DW_FORM_sec_offset
    DW_AT value: 0     DW_FORM value: 0

Raw dump of debug contents of section .debug_line (loaded from a.out):

  Offset:                      0
  Length:                      691
  DWARF Version:               3
  Prologue Length:             300
  Minimum Instruction Length:  1
  Initial value of 'is_stmt':  1
  Line Base:                   -5
  Line Range:                  14
  Opcode Base:                 13

 Opcodes:
  Opcode 1 has 0 args
  Opcode 2 has 1 arg
  Opcode 3 has 1 arg
  Opcode 4 has 1 arg
  Opcode 5 has 1 arg
  Opcode 6 has 0 args
  Opcode 7 has 0 args
  Opcode 8 has 0 args
  Opcode 9 has 1 arg
  Opcode 10 has 0 args
  Opcode 11 has 0 args
  Opcode 12 has 1 arg

 The Directory Table (offset 0x1b):
  1	..
  2	/usr/lib/gcc-cross/s390x-linux-gnu/12/include
  3	/usr/s390x-linux-gnu/include/bits
  4	/usr/s390x-linux-gnu/include/bits/types
  5	/usr/s390x-linux-gnu/include

 The File Name Table (offset 0xb4):
  Entry	Dir	Time	Size	Name
  1	1	0	0	morse.c
  2	2	0	0	stddef.h
  3	3	0	0	types.h
  4	4	0	0	struct_FILE.h
  5	4	0	0	FILE.h
  6	4	0	0	struct_timespec.h
  7	5	0	0	time.h
  8	5	0	0	stdio.h
  9	5	0	0	stdlib.h
  10	0	0	0	<built-in>

 Line Number Statements:
  [0x00000136]  Set column to 1
  [0x00000138]  Extended opcode 2: set Address to 0xe10
  [0x00000143]  Advance Line by 18 to 19
  [0x00000145]  Copy
  [0x00000146]  Set is_stmt to 0
  [0x00000147]  Copy (view 1)
  [0x00000148]  Set column to 2
  [0x0000014a]  Set is_stmt to 1
  [0x0000014b]  Special opcode 230: advance Address by 16 to 0xe20 and Line by 1 to 20
  [0x0000014c]  Special opcode 7: advance Address by 0 to 0xe20 and Line by 2 to 22 (view 1)
  [0x0000014d]  Set is_stmt to 0
  [0x0000014e]  Advance PC by constant 17 to 0xe31
  [0x0000014f]  Special opcode 47: advance Address by 3 to 0xe34 and Line by 0 to 22
  [0x00000150]  Set is_stmt to 1
  [0x00000151]  Special opcode 90: advance Address by 6 to 0xe3a and Line by 1 to 23
  [0x00000152]  Special opcode 230: advance Address by 16 to 0xe4a and Line by 1 to 24
  [0x00000153]  Set column to 7
  [0x00000155]  Set is_stmt to 0
  [0x00000156]  Copy (view 1)
  [0x00000157]  Set column to 5
  [0x00000159]  Special opcode 229: advance Address by 16 to 0xe5a and Line by 0 to 24
  [0x0000015a]  Set column to 2
  [0x0000015c]  Set is_stmt to 1
  [0x0000015d]  Special opcode 90: advance Address by 6 to 0xe60 and Line by 1 to 25
  [0x0000015e]  Set column to 4
  [0x00000160]  Set is_stmt to 0
  [0x00000161]  Copy (view 1)
  [0x00000162]  Set column to 2
  [0x00000164]  Set is_stmt to 1
  [0x00000165]  Advance Line by 22 to 47
  [0x00000167]  Special opcode 117: advance Address by 8 to 0xe68 and Line by 0 to 47
  [0x00000168]  Advance PC by constant 17 to 0xe79
  [0x00000169]  Special opcode 216: advance Address by 15 to 0xe88 and Line by 1 to 48
  [0x0000016a]  Special opcode 175: advance Address by 12 to 0xe94 and Line by 2 to 50
  [0x0000016b]  Advance PC by constant 17 to 0xea5
  [0x0000016c]  Special opcode 132: advance Address by 9 to 0xeae and Line by 1 to 51
  [0x0000016d]  Special opcode 230: advance Address by 16 to 0xebe and Line by 1 to 52
  [0x0000016e]  Set column to 7
  [0x00000170]  Set is_stmt to 0
  [0x00000171]  Copy (view 1)
  [0x00000172]  Set column to 5
  [0x00000174]  Advance PC by constant 17 to 0xecf
  [0x00000175]  Special opcode 47: advance Address by 3 to 0xed2 and Line by 0 to 52
  [0x00000176]  Set column to 2
  [0x00000178]  Set is_stmt to 1
  [0x00000179]  Special opcode 90: advance Address by 6 to 0xed8 and Line by 1 to 53
  [0x0000017a]  Set column to 4
  [0x0000017c]  Set is_stmt to 0
  [0x0000017d]  Copy (view 1)
  [0x0000017e]  Set column to 2
  [0x00000180]  Set is_stmt to 1
  [0x00000181]  Special opcode 123: advance Address by 8 to 0xee0 and Line by 6 to 59
  [0x00000182]  Special opcode 146: advance Address by 10 to 0xeea and Line by 1 to 60
  [0x00000183]  Set column to 1
  [0x00000185]  Set is_stmt to 0
  [0x00000186]  Special opcode 174: advance Address by 12 to 0xef6 and Line by 1 to 61
  [0x00000187]  Set column to 3
  [0x00000189]  Set is_stmt to 1
  [0x0000018a]  Advance Line by -33 to 28
  [0x0000018c]  Special opcode 117: advance Address by 8 to 0xefe and Line by 0 to 28
  [0x0000018d]  Special opcode 174: advance Address by 12 to 0xf0a and Line by 1 to 29
  [0x0000018e]  Set column to 8
  [0x00000190]  Set is_stmt to 0
  [0x00000191]  Copy (view 1)
  [0x00000192]  Set column to 6
  [0x00000194]  Advance PC by constant 17 to 0xf1b
  [0x00000195]  Special opcode 19: advance Address by 1 to 0xf1c and Line by 0 to 29
  [0x00000196]  Set column to 3
  [0x00000198]  Set is_stmt to 1
  [0x00000199]  Special opcode 90: advance Address by 6 to 0xf22 and Line by 1 to 30
  [0x0000019a]  Set column to 5
  [0x0000019c]  Set is_stmt to 0
  [0x0000019d]  Copy (view 1)
  [0x0000019e]  Set column to 3
  [0x000001a0]  Set is_stmt to 1
  [0x000001a1]  Special opcode 122: advance Address by 8 to 0xf2a and Line by 5 to 35
  [0x000001a2]  Special opcode 230: advance Address by 16 to 0xf3a and Line by 1 to 36
  [0x000001a3]  Advance PC by constant 17 to 0xf4b
  [0x000001a4]  Special opcode 21: advance Address by 1 to 0xf4c and Line by 2 to 38
  [0x000001a5]  Advance PC by constant 17 to 0xf5d
  [0x000001a6]  Special opcode 76: advance Address by 5 to 0xf62 and Line by 1 to 39
  [0x000001a7]  Set column to 8
  [0x000001a9]  Set is_stmt to 0
  [0x000001aa]  Copy (view 1)
  [0x000001ab]  Set column to 6
  [0x000001ad]  Special opcode 229: advance Address by 16 to 0xf72 and Line by 0 to 39
  [0x000001ae]  Set column to 3
  [0x000001b0]  Set is_stmt to 1
  [0x000001b1]  Special opcode 90: advance Address by 6 to 0xf78 and Line by 1 to 40
  [0x000001b2]  Set column to 5
  [0x000001b4]  Set is_stmt to 0
  [0x000001b5]  Copy (view 1)
  [0x000001b6]  Set column to 4
  [0x000001b8]  Set is_stmt to 1
  [0x000001b9]  Special opcode 119: advance Address by 8 to 0xf80 and Line by 2 to 42
  [0x000001ba]  Special opcode 174: advance Address by 12 to 0xf8c and Line by 1 to 43
  [0x000001bb]  Advance Line by -11 to 32
  [0x000001bd]  Special opcode 145: advance Address by 10 to 0xf96 and Line by 0 to 32
  [0x000001be]  Special opcode 174: advance Address by 12 to 0xfa2 and Line by 1 to 33
  [0x000001bf]  Set column to 3
  [0x000001c1]  Advance Line by 22 to 55
  [0x000001c3]  Special opcode 145: advance Address by 10 to 0xfac and Line by 0 to 55
  [0x000001c4]  Special opcode 174: advance Address by 12 to 0xfb8 and Line by 1 to 56
  [0x000001c5]  Set column to 1
  [0x000001c7]  Special opcode 237: advance Address by 16 to 0xfc8 and Line by 8 to 64
  [0x000001c8]  Set is_stmt to 0
  [0x000001c9]  Copy (view 1)
  [0x000001ca]  Set column to 2
  [0x000001cc]  Set is_stmt to 1
  [0x000001cd]  Special opcode 174: advance Address by 12 to 0xfd4 and Line by 1 to 65
  [0x000001ce]  Set is_stmt to 0
  [0x000001cf]  Advance PC by constant 17 to 0xfe5
  [0x000001d0]  Special opcode 131: advance Address by 9 to 0xfee and Line by 0 to 65
  [0x000001d1]  Set is_stmt to 1
  [0x000001d2]  Special opcode 90: advance Address by 6 to 0xff4 and Line by 1 to 66
  [0x000001d3]  Set column to 1
  [0x000001d5]  Set is_stmt to 0
  [0x000001d6]  Special opcode 174: advance Address by 12 to 0x1000 and Line by 1 to 67
  [0x000001d7]  Set is_stmt to 1
  [0x000001d8]  Special opcode 121: advance Address by 8 to 0x1008 and Line by 4 to 71
  [0x000001d9]  Set is_stmt to 0
  [0x000001da]  Copy (view 1)
  [0x000001db]  Set column to 2
  [0x000001dd]  Set is_stmt to 1
  [0x000001de]  Advance PC by constant 17 to 0x1019
  [0x000001df]  Special opcode 20: advance Address by 1 to 0x101a and Line by 1 to 72
  [0x000001e0]  Set column to 5
  [0x000001e2]  Special opcode 6: advance Address by 0 to 0x101a and Line by 1 to 73 (view 1)
  [0x000001e3]  Set column to 16
  [0x000001e5]  Set is_stmt to 0
  [0x000001e6]  Copy (view 2)
  [0x000001e7]  Set column to 5
  [0x000001e9]  Set is_stmt to 1
  [0x000001ea]  Special opcode 90: advance Address by 6 to 0x1020 and Line by 1 to 74
  [0x000001eb]  Set column to 23
  [0x000001ed]  Set is_stmt to 0
  [0x000001ee]  Copy (view 1)
  [0x000001ef]  Set column to 17
  [0x000001f1]  Special opcode 89: advance Address by 6 to 0x1026 and Line by 0 to 74
  [0x000001f2]  Set column to 2
  [0x000001f4]  Set is_stmt to 1
  [0x000001f5]  Special opcode 146: advance Address by 10 to 0x1030 and Line by 1 to 75
  [0x000001f6]  Set column to 1
  [0x000001f8]  Set is_stmt to 0
  [0x000001f9]  Special opcode 202: advance Address by 14 to 0x103e and Line by 1 to 76
  [0x000001fa]  Set is_stmt to 1
  [0x000001fb]  Advance Line by 65 to 141
  [0x000001fe]  Special opcode 145: advance Address by 10 to 0x1048 and Line by 0 to 141
  [0x000001ff]  Set is_stmt to 0
  [0x00000200]  Copy (view 1)
  [0x00000201]  Set column to 2
  [0x00000203]  Set is_stmt to 1
  [0x00000204]  Advance PC by constant 17 to 0x1059
  [0x00000205]  Special opcode 21: advance Address by 1 to 0x105a and Line by 2 to 143
  [0x00000206]  Set column to 4
  [0x00000208]  Set is_stmt to 0
  [0x00000209]  Copy (view 1)
  [0x0000020a]  Set column to 2
  [0x0000020c]  Set is_stmt to 1
  [0x0000020d]  Special opcode 181: advance Address by 12 to 0x1066 and Line by 8 to 151
  [0x0000020e]  Special opcode 6: advance Address by 0 to 0x1066 and Line by 1 to 152 (view 1)
  [0x0000020f]  Set column to 16
  [0x00000211]  Set is_stmt to 0
  [0x00000212]  Copy (view 2)
  [0x00000213]  Set column to 4
  [0x00000215]  Special opcode 89: advance Address by 6 to 0x106c and Line by 0 to 152
  [0x00000216]  Set column to 3
  [0x00000218]  Set is_stmt to 1
  [0x00000219]  Special opcode 203: advance Address by 14 to 0x107a and Line by 2 to 154
  [0x0000021a]  Set column to 33
  [0x0000021c]  Set is_stmt to 0
  [0x0000021d]  Copy (view 1)
  [0x0000021e]  Set column to 11
  [0x00000220]  Special opcode 89: advance Address by 6 to 0x1080 and Line by 0 to 154
  [0x00000221]  Special opcode 229: advance Address by 16 to 0x1090 and Line by 0 to 154
  [0x00000222]  Set column to 2
  [0x00000224]  Set is_stmt to 1
  [0x00000225]  Advance Line by 11 to 165
  [0x00000227]  Special opcode 89: advance Address by 6 to 0x1096 and Line by 0 to 165
  [0x00000228]  Special opcode 232: advance Address by 16 to 0x10a6 and Line by 3 to 168
  [0x00000229]  Set column to 8
  [0x0000022b]  Copy (view 1)
  [0x0000022c]  Set column to 3
  [0x0000022e]  Advance Line by 18 to 186
  [0x00000230]  Special opcode 173: advance Address by 12 to 0x10b2 and Line by 0 to 186
  [0x00000231]  Set column to 2
  [0x00000233]  Special opcode 7: advance Address by 0 to 0x10b2 and Line by 2 to 188 (view 1)
  [0x00000234]  Set column to 1
  [0x00000236]  Set is_stmt to 0
  [0x00000237]  Special opcode 146: advance Address by 10 to 0x10bc and Line by 1 to 189
  [0x00000238]  Set column to 3
  [0x0000023a]  Set is_stmt to 1
  [0x0000023b]  Advance Line by -44 to 145
  [0x0000023d]  Special opcode 117: advance Address by 8 to 0x10c4 and Line by 0 to 145
  [0x0000023e]  Set is_stmt to 0
  [0x0000023f]  Special opcode 89: advance Address by 6 to 0x10ca and Line by 0 to 145
  [0x00000240]  Set is_stmt to 1
  [0x00000241]  Special opcode 90: advance Address by 6 to 0x10d0 and Line by 1 to 146
  [0x00000242]  Special opcode 146: advance Address by 10 to 0x10da and Line by 1 to 147
  [0x00000243]  Set column to 7
  [0x00000245]  Advance Line by 9 to 156
  [0x00000247]  Special opcode 61: advance Address by 4 to 0x10de and Line by 0 to 156
  [0x00000248]  Set column to 3
  [0x0000024a]  Special opcode 7: advance Address by 0 to 0x10de and Line by 2 to 158 (view 1)
  [0x0000024b]  Set column to 28
  [0x0000024d]  Set is_stmt to 0
  [0x0000024e]  Copy (view 2)
  [0x0000024f]  Set column to 36
  [0x00000251]  Special opcode 89: advance Address by 6 to 0x10e4 and Line by 0 to 158
  [0x00000252]  Set column to 11
  [0x00000254]  Special opcode 61: advance Address by 4 to 0x10e8 and Line by 0 to 158
  [0x00000255]  Special opcode 229: advance Address by 16 to 0x10f8 and Line by 0 to 158
  [0x00000256]  Special opcode 89: advance Address by 6 to 0x10fe and Line by 0 to 158
  [0x00000257]  Set column to 4
  [0x00000259]  Set is_stmt to 1
  [0x0000025a]  Advance Line by 17 to 175
  [0x0000025c]  Special opcode 61: advance Address by 4 to 0x1102 and Line by 0 to 175
  [0x0000025d]  Set column to 3
  [0x0000025f]  Special opcode 152: advance Address by 10 to 0x110c and Line by 7 to 182
  [0x00000260]  Special opcode 146: advance Address by 10 to 0x1116 and Line by 1 to 183
  [0x00000261]  Special opcode 147: advance Address by 10 to 0x1120 and Line by 2 to 185
  [0x00000262]  Set column to 10
  [0x00000264]  Set is_stmt to 0
  [0x00000265]  Copy (view 1)
  [0x00000266]  Set column to 8
  [0x00000268]  Set is_stmt to 1
  [0x00000269]  Advance Line by -17 to 168
  [0x0000026b]  Special opcode 61: advance Address by 4 to 0x1124 and Line by 0 to 168
  [0x0000026c]  Set column to 3
  [0x0000026e]  Special opcode 176: advance Address by 12 to 0x1130 and Line by 3 to 171
  [0x0000026f]  Special opcode 147: advance Address by 10 to 0x113a and Line by 2 to 173
  [0x00000270]  Set column to 5
  [0x00000272]  Set is_stmt to 0
  [0x00000273]  Copy (view 1)
  [0x00000274]  Set column to 4
  [0x00000276]  Set is_stmt to 1
  [0x00000277]  Special opcode 207: advance Address by 14 to 0x1148 and Line by 6 to 179
  [0x00000278]  Set column to 1
  [0x0000027a]  Advance Line by 14 to 193
  [0x0000027c]  Special opcode 229: advance Address by 16 to 0x1158 and Line by 0 to 193
  [0x0000027d]  Set is_stmt to 0
  [0x0000027e]  Copy (view 1)
  [0x0000027f]  Set column to 2
  [0x00000281]  Set is_stmt to 1
  [0x00000282]  Special opcode 231: advance Address by 16 to 0x1168 and Line by 2 to 195
  [0x00000283]  Set column to 8
  [0x00000285]  Copy (view 1)
  [0x00000286]  Set is_stmt to 0
  [0x00000287]  Special opcode 61: advance Address by 4 to 0x116c and Line by 0 to 195
  [0x00000288]  Set column to 3
  [0x0000028a]  Set is_stmt to 1
  [0x0000028b]  Special opcode 63: advance Address by 4 to 0x1170 and Line by 2 to 197
  [0x0000028c]  Special opcode 146: advance Address by 10 to 0x117a and Line by 1 to 198
  [0x0000028d]  Set column to 9
  [0x0000028f]  Set is_stmt to 0
  [0x00000290]  Copy (view 1)
  [0x00000291]  Set column to 8
  [0x00000293]  Set is_stmt to 1
  [0x00000294]  Special opcode 58: advance Address by 4 to 0x117e and Line by -3 to 195
  [0x00000295]  Set column to 1
  [0x00000297]  Set is_stmt to 0
  [0x00000298]  Special opcode 122: advance Address by 8 to 0x1186 and Line by 5 to 200
  [0x00000299]  Special opcode 89: advance Address by 6 to 0x118c and Line by 0 to 200
  [0x0000029a]  Set column to 34
  [0x0000029c]  Set is_stmt to 1
  [0x0000029d]  Special opcode 62: advance Address by 4 to 0x1190 and Line by 1 to 201
  [0x0000029e]  Set is_stmt to 0
  [0x0000029f]  Copy (view 1)
  [0x000002a0]  Set column to 5
  [0x000002a2]  Set is_stmt to 1
  [0x000002a3]  Special opcode 175: advance Address by 12 to 0x119c and Line by 2 to 203
  [0x000002a4]  Set is_stmt to 0
  [0x000002a5]  Special opcode 89: advance Address by 6 to 0x11a2 and Line by 0 to 203
  [0x000002a6]  Set column to 2
  [0x000002a8]  Set is_stmt to 1
  [0x000002a9]  Special opcode 90: advance Address by 6 to 0x11a8 and Line by 1 to 204
  [0x000002aa]  Special opcode 146: advance Address by 10 to 0x11b2 and Line by 1 to 205
  [0x000002ab]  Set column to 5
  [0x000002ad]  Special opcode 174: advance Address by 12 to 0x11be and Line by 1 to 206
  [0x000002ae]  Set column to 1
  [0x000002b0]  Set is_stmt to 0
  [0x000002b1]  Special opcode 6: advance Address by 0 to 0x11be and Line by 1 to 207 (view 1)
  [0x000002b2]  Advance PC by 12 to 0x11ca
  [0x000002b4]  Extended opcode 1: End of Sequence


Contents of the .debug_str section (loaded from a.out):

  0x00000000 5f5f6f66 665f7400 5f494f5f 72656164 __off_t._IO_read
  0x00000010 5f707472 005f6368 61696e00 74696d65 _ptr._chain.time
  0x00000020 5f776f72 64007369 7a655f74 005f7368 _word.size_t._sh
  0x00000030 6f727462 75660073 7472696e 67007061 ortbuf.string.pa
  0x00000040 7468005f 494f5f62 75665f62 61736500 th._IO_buf_base.
  0x00000050 6c6f6e67 206c6f6e 6720756e 7369676e long long unsign
  0x00000060 65642069 6e74006e 616e6f73 6c656570 ed int.nanosleep
  0x00000070 006c6f6e 67206c6f 6e672069 6e74005f .long long int._
  0x00000080 5f627569 6c74696e 5f667772 69746500 _builtin_fwrite.
  0x00000090 626c696e 6b79005f 66696c65 6e6f005f blinky._fileno._
  0x000000a0 5f627569 6c74696e 5f667075 7463005f _builtin_fputc._
  0x000000b0 494f5f72 6561645f 656e6400 5f666c61 IO_read_end._fla
  0x000000c0 6773005f 494f5f62 75665f65 6e64005f gs._IO_buf_end._
  0x000000d0 6375725f 636f6c75 6d6e002e 2e2f6d6f cur_column.../mo
  0x000000e0 7273652e 63005f49 4f5f636f 64656376 rse.c._IO_codecv
  0x000000f0 7400646f 75626c65 005f6f6c 645f6f66 t.double._old_of
  0x00000100 66736574 00696f5f 696e6974 005f494f fset.io_init._IO
  0x00000110 5f6d6172 6b657200 5f667265 65726573 _marker._freeres
  0x00000120 5f627566 00667072 696e7466 005f494f _buf.fprintf._IO
  0x00000130 5f777269 74655f70 74720073 686f7274 _write_ptr.short
  0x00000140 20756e73 69676e65 6420696e 74005f49  unsigned int._I
  0x00000150 4f5f7361 76655f62 61736500 5f6c6f63 O_save_base._loc
  0x00000160 6b007370 72696e74 66005f66 6c616773 k.sprintf._flags
  0x00000170 32005f6d 6f646500 5f5f6275 696c7469 2._mode.__builti
  0x00000180 6e5f7075 7473006d 6f727365 0074765f n_puts.morse.tv_
  0x00000190 6e736563 0074765f 73656300 5f5f7379 nsec.tv_sec.__sy
  0x000001a0 7363616c 6c5f736c 6f6e675f 74005f49 scall_slong_t._I
  0x000001b0 4f5f7772 6974655f 656e6400 74696d65 O_write_end.time
  0x000001c0 5f646168 005f494f 5f6c6f63 6b5f7400 _dah._IO_lock_t.
  0x000001d0 696f5f77 72697465 005f494f 5f46494c io_write._IO_FIL
  0x000001e0 45007469 6d655f6c 65747465 72007061 E.time_letter.pa
  0x000001f0 74746572 6e00666f 70656e00 66666c75 ttern.fopen.fflu
  0x00000200 7368005f 6d61726b 65727300 6d6f7273 sh._markers.mors
  0x00000210 655f6c65 74746572 0074696d 655f6469 e_letter.time_di
  0x00000220 74007469 6d655f73 70616365 005f426f t.time_space._Bo
  0x00000230 6f6c0075 6e736967 6e656420 63686172 ol.unsigned char
  0x00000240 0073686f 72742069 6e74005f 494f5f77 .short int._IO_w
  0x00000250 6964655f 64617461 006d6f72 73655f74 ide_data.morse_t
  0x00000260 626c0074 696d6573 70656300 5f767461 bl.timespec._vta
  0x00000270 626c655f 6f666673 65740065 78697400 ble_offset.exit.
  0x00000280 66636c6f 7365005f 5f6f6666 36345f74 fclose.__off64_t
  0x00000290 005f494f 5f726561 645f6261 7365005f ._IO_read_base._
  0x000002a0 494f5f73 6176655f 656e6400 66736c65 IO_save_end.fsle
  0x000002b0 6570005f 5f706164 35002f72 6f6f742f ep.__pad5./root/
  0x000002c0 68656c6c 6f2d776f 726c642f 73333930 hello-world/s390
  0x000002d0 2d6c696e 75782d67 6e75005f 5f74696d -linux-gnu.__tim
  0x000002e0 655f7400 5f756e75 73656432 00617267 e_t._unused2.arg
  0x000002f0 76007374 61747573 005f494f 5f626163 v.status._IO_bac
  0x00000300 6b75705f 62617365 00617267 63005f66 kup_base.argc._f
  0x00000310 72656572 65735f6c 69737400 474e5520 reeres_list.GNU 
  0x00000320 43393920 31322e32 2e30202d 6d617263 C99 12.2.0 -marc
  0x00000330 683d7a31 3936202d 6d363420 2d6d7a61 h=z196 -m64 -mza
  0x00000340 72636820 2d67202d 4f31202d 7374643d rch -g -O1 -std=
  0x00000350 676e7539 39202d66 6173796e 6368726f gnu99 -fasynchro
  0x00000360 6e6f7573 2d756e77 696e642d 7461626c nous-unwind-tabl
  0x00000370 6573006d 61696e00 5f494f5f 77726974 es.main._IO_writ
  0x00000380 655f6261 736500                     e_base.

Contents of the .debug_loclists section (loaded from a.out):

    Offset   Begin            End              Expression

    0000000c v000000000000000 v000000000000000 location view pair
    0000000e v000000000000000 v000000000000000 location view pair

    00000010 v000000000000000 v000000000000000 views at 0000000c for:
             0000000000001190 00000000000011a2 (DW_OP_reg2 (r2))
    00000017 v000000000000000 v000000000000000 views at 0000000e for:
             00000000000011a2 00000000000011ca (DW_OP_entry_value: (DW_OP_reg2 (r2)); DW_OP_stack_value)
    00000021 <End of list>

    00000022 v000000000000000 v000000000000000 location view pair
    00000024 v000000000000000 v000000000000000 location view pair

    00000026 v000000000000000 v000000000000000 views at 00000022 for:
             0000000000001190 00000000000011a7 (DW_OP_reg3 (r3))
    0000002d v000000000000000 v000000000000000 views at 00000024 for:
             00000000000011a7 00000000000011ca (DW_OP_entry_value: (DW_OP_reg3 (r3)); DW_OP_stack_value)
    00000037 <End of list>

    00000038 v000000000000000 v000000000000000 location view pair
    0000003a v000000000000000 v000000000000000 location view pair

    0000003c v000000000000000 v000000000000000 views at 00000038 for:
             0000000000001158 000000000000116c (DW_OP_reg2 (r2))
    00000043 v000000000000000 v000000000000000 views at 0000003a for:
             000000000000116c 000000000000118c (DW_OP_reg11 (r11))
    0000004a <End of list>

    0000004b v000000000000000 v000000000000000 location view pair
    0000004d v000000000000000 v000000000000000 location view pair
    0000004f v000000000000000 v000000000000000 location view pair
    00000051 v000000000000000 v000000000000000 location view pair
    00000053 v000000000000000 v000000000000000 location view pair
    00000055 v000000000000000 v000000000000000 location view pair

    00000057 v000000000000000 v000000000000000 views at 0000004b for:
             0000000000001048 0000000000001090 (DW_OP_reg2 (r2))
    0000005e v000000000000000 v000000000000000 views at 0000004d for:
             0000000000001090 00000000000010c4 (DW_OP_entry_value: (DW_OP_reg2 (r2)); DW_OP_stack_value)
    00000068 v000000000000000 v000000000000000 views at 0000004f for:
             00000000000010c4 00000000000010ca (DW_OP_reg2 (r2))
    0000006f v000000000000000 v000000000000000 views at 00000051 for:
             00000000000010ca 00000000000010de (DW_OP_entry_value: (DW_OP_reg2 (r2)); DW_OP_stack_value)
    00000079 v000000000000000 v000000000000000 views at 00000053 for:
             00000000000010de 00000000000010f8 (DW_OP_reg2 (r2))
    00000080 v000000000000000 v000000000000000 views at 00000055 for:
             00000000000010f8 0000000000001156 (DW_OP_entry_value: (DW_OP_reg2 (r2)); DW_OP_stack_value)
    0000008a <End of list>

    0000008b v000000000000001 v000000000000000 location view pair
    0000008d v000000000000000 v000000000000000 location view pair
    0000008f v000000000000000 v000000000000000 location view pair
    00000091 v000000000000000 v000000000000000 location view pair

    00000093 v000000000000001 v000000000000000 views at 0000008b for:
             0000000000001066 0000000000001096 (DW_OP_addr: 13fa; DW_OP_stack_value)
    000000a3 v000000000000000 v000000000000000 views at 0000008d for:
             0000000000001096 00000000000010bc (DW_OP_reg11 (r11))
    000000aa v000000000000000 v000000000000000 views at 0000008f for:
             00000000000010de 00000000000010fe (DW_OP_addr: 13fa; DW_OP_stack_value)
    000000ba v000000000000000 v000000000000000 views at 00000091 for:
             00000000000010fe 0000000000001156 (DW_OP_reg11 (r11))
    000000c1 <End of list>

    000000c2 v000000000000000 v000000000000000 location view pair
    000000c4 v000000000000000 v000000000000000 location view pair

    000000c6 v000000000000000 v000000000000000 views at 000000c2 for:
             0000000000001008 0000000000001026 (DW_OP_reg16 (f0))
    000000cd v000000000000000 v000000000000000 views at 000000c4 for:
             0000000000001026 0000000000001046 (DW_OP_entry_value: (DW_OP_regval_type: 16 (f0) <0x2e>); DW_OP_stack_value)
    000000d9 <End of list>

    000000da v000000000000000 v000000000000000 location view pair
    000000dc v000000000000000 v000000000000000 location view pair

    000000de v000000000000000 v000000000000000 views at 000000da for:
             0000000000000fc8 0000000000000fee (DW_OP_reg2 (r2))
    000000e5 v000000000000000 v000000000000000 views at 000000dc for:
             0000000000000fee 0000000000001008 (DW_OP_entry_value: (DW_OP_reg2 (r2)); DW_OP_stack_value)
    000000ef <End of list>

    000000f0 v000000000000000 v000000000000000 location view pair
    000000f2 v000000000000000 v000000000000000 location view pair

    000000f4 v000000000000000 v000000000000000 views at 000000f0 for:
             0000000000000e10 0000000000000e34 (DW_OP_reg2 (r2))
    000000f9 v000000000000000 v000000000000000 views at 000000f2 for:
             0000000000000e34 0000000000000fc2 (DW_OP_entry_value: (DW_OP_reg2 (r2)); DW_OP_stack_value)
    00000102 <End of list>

