
a.out:     file format elf64-powerpc

SYMBOL TABLE:
0000000000000200 l    d  .interp	0000000000000000              .interp
0000000000000214 l    d  .note.gnu.build-id	0000000000000000              .note.gnu.build-id
0000000000000238 l    d  .note.ABI-tag	0000000000000000              .note.ABI-tag
0000000000000258 l    d  .gnu.hash	0000000000000000              .gnu.hash
0000000000000278 l    d  .dynsym	0000000000000000              .dynsym
0000000000000350 l    d  .dynstr	0000000000000000              .dynstr
00000000000003dc l    d  .gnu.version	0000000000000000              .gnu.version
00000000000003f0 l    d  .gnu.version_r	0000000000000000              .gnu.version_r
0000000000000420 l    d  .rela.dyn	0000000000000000              .rela.dyn
0000000000000660 l    d  .rela.plt	0000000000000000              .rela.plt
00000000000006c0 l    d  .init	0000000000000000              .init
0000000000000720 l    d  .text	0000000000000000              .text
0000000000000984 l    d  .fini	0000000000000000              .fini
00000000000009a0 l    d  .rodata	0000000000000000              .rodata
00000000000009bc l    d  .eh_frame_hdr	0000000000000000              .eh_frame_hdr
00000000000009d8 l    d  .eh_frame	0000000000000000              .eh_frame
000000000001fc20 l    d  .init_array	0000000000000000              .init_array
000000000001fc28 l    d  .fini_array	0000000000000000              .fini_array
000000000001fc30 l    d  .data.rel.ro	0000000000000000              .data.rel.ro
000000000001fc50 l    d  .dynamic	0000000000000000              .dynamic
000000000001fe40 l    d  .opd	0000000000000000              .opd
000000000001ff00 l    d  .got	0000000000000000              .got
0000000000020000 l    d  .plt	0000000000000000              .plt
0000000000020078 l    d  .data	0000000000000000              .data
0000000000020088 l    d  .bss	0000000000000000              .bss
0000000000000000 l    d  .comment	0000000000000000              .comment
0000000000000000 l    d  .debug_aranges	0000000000000000              .debug_aranges
0000000000000000 l    d  .debug_info	0000000000000000              .debug_info
0000000000000000 l    d  .debug_abbrev	0000000000000000              .debug_abbrev
0000000000000000 l    d  .debug_line	0000000000000000              .debug_line
0000000000000000 l    d  .debug_str	0000000000000000              .debug_str
0000000000000000 l    d  .debug_loclists	0000000000000000              .debug_loclists
0000000000000000 l    df *ABS*	0000000000000000              Scrt1.o
0000000000000238 l     O .note.ABI-tag	0000000000000020              __abi_tag
0000000000000000 l    df *ABS*	0000000000000000              crtstuff.c
000000000001fe88 l     F .opd	0000000000000000              deregister_tm_clones
000000000001fea0 l     F .opd	0000000000000000              register_tm_clones
000000000001feb8 l     F .opd	0000000000000000              __do_global_dtors_aux
0000000000020088 l     O .bss	0000000000000001              completed.0
000000000001fc28 l     O .fini_array	0000000000000000              __do_global_dtors_aux_fini_array_entry
000000000001fed0 l     F .opd	0000000000000000              frame_dummy
000000000001fc20 l     O .init_array	0000000000000000              __frame_dummy_init_array_entry
0000000000000000 l    df *ABS*	0000000000000000              hello.c
0000000000000000 l    df *ABS*	0000000000000000              crtstuff.c
0000000000000a24 l     O .eh_frame	0000000000000000              __FRAME_END__
0000000000000000 l    df *ABS*	0000000000000000              
0000000000000938 l       .text	0000000000000000              __glink_PLTresolve
0000000000000720 l       .text	0000000000000000              0000001b.plt_call.__libc_start_main@@GLIBC_2.34
00000000000006c0 l       .init	0000000000000000              00000037.plt_call.__gmon_start__
000000000001fc50 l     O .dynamic	0000000000000000              _DYNAMIC
0000000000000740 l       .text	0000000000000000              0000001b.plt_call.__cxa_finalize@@GLIBC_2.3
00000000000009bc l       .eh_frame_hdr	0000000000000000              __GNU_EH_FRAME_HDR
0000000000000760 l       .text	0000000000000000              0000001b.plt_call.puts@@GLIBC_2.3
0000000000000000       F *UND*	0000000000000000              __libc_start_main@GLIBC_2.34
0000000000000000  w      *UND*	0000000000000000              _ITM_deregisterTMCloneTable
0000000000020078  w      .data	0000000000000000              data_start
0000000000020088 g       .data	0000000000000000              _edata
000000000001fe70 g     F .opd	0000000000000000              .hidden _fini
0000000000020078 g       .data	0000000000000000              __data_start
0000000000000000  w      *UND*	0000000000000000              __gmon_start__
0000000000020080 g     O .data	0000000000000000              .hidden __dso_handle
00000000000009a0 g     O .rodata	0000000000000004              _IO_stdin_used
0000000000000000  w    F *UND*	0000000000000000              __cxa_finalize@GLIBC_2.3
0000000000020090 g       .bss	0000000000000000              _end
000000000001fe40 g     F .opd	0000000000000040              _start
0000000000020088 g       .bss	0000000000000000              __bss_start
000000000001fee8 g     F .opd	000000000000003c              main
0000000000020088 g     O .data	0000000000000000              .hidden __TMC_END__
0000000000000000  w      *UND*	0000000000000000              _ITM_registerTMCloneTable
0000000000000000       F *UND*	0000000000000000              puts@GLIBC_2.3
000000000001fe58 g     F .opd	0000000000000000              .hidden _init



Disassembly of section .init:

00000000000006c0 <00000037.plt_call.__gmon_start__>:
 6c0:	f8 41 00 28 	std     r2,40(r1)
 6c4:	e9 82 81 30 	ld      r12,-32464(r2)
 6c8:	7d 89 03 a6 	mtctr   r12
 6cc:	e8 42 81 38 	ld      r2,-32456(r2)
 6d0:	4e 80 04 20 	bctr
	...

00000000000006e0 <._init>:
 6e0:	7c 08 02 a6 	mflr    r0
 6e4:	f8 01 00 10 	std     r0,16(r1)
 6e8:	f8 21 ff 91 	stdu    r1,-112(r1)
 6ec:	60 00 00 00 	nop
 6f0:	e8 02 80 08 	ld      r0,-32760(r2)
 6f4:	2f a0 00 00 	cmpdi   cr7,r0,0
 6f8:	41 fe 00 0c 	beq+    cr7,704 <._init+0x24>
 6fc:	4b ff ff c5 	bl      6c0 <00000037.plt_call.__gmon_start__>
 700:	e8 41 00 28 	ld      r2,40(r1)
 704:	38 21 00 70 	addi    r1,r1,112
 708:	e8 01 00 10 	ld      r0,16(r1)
 70c:	7c 08 03 a6 	mtlr    r0
 710:	4e 80 00 20 	blr

Disassembly of section .text:

0000000000000720 <0000001b.plt_call.__libc_start_main@@GLIBC_2.34>:
 720:	f8 41 00 28 	std     r2,40(r1)
 724:	e9 82 81 18 	ld      r12,-32488(r2)
 728:	7d 89 03 a6 	mtctr   r12
 72c:	e8 42 81 20 	ld      r2,-32480(r2)
 730:	4e 80 04 20 	bctr
	...

0000000000000740 <0000001b.plt_call.__cxa_finalize@@GLIBC_2.3>:
 740:	f8 41 00 28 	std     r2,40(r1)
 744:	e9 82 81 48 	ld      r12,-32440(r2)
 748:	7d 89 03 a6 	mtctr   r12
 74c:	e8 42 81 50 	ld      r2,-32432(r2)
 750:	4e 80 04 20 	bctr
	...

0000000000000760 <0000001b.plt_call.puts@@GLIBC_2.3>:
 760:	f8 41 00 28 	std     r2,40(r1)
 764:	e9 82 81 60 	ld      r12,-32416(r2)
 768:	7d 89 03 a6 	mtctr   r12
 76c:	e8 42 81 68 	ld      r2,-32408(r2)
 770:	4e 80 04 20 	bctr
	...

0000000000000780 <._start>:
 780:	7c 29 0b 78 	mr      r9,r1
 784:	78 21 06 e4 	clrrdi  r1,r1,4
 788:	38 00 00 00 	li      r0,0
 78c:	f8 21 ff 81 	stdu    r1,-128(r1)
 790:	7c 08 03 a6 	mtlr    r0
 794:	f8 01 00 00 	std     r0,0(r1)
 798:	3d 02 ff ff 	addis   r8,r2,-1
 79c:	39 08 7d 30 	addi    r8,r8,32048
 7a0:	4b ff ff 80 	b       720 <0000001b.plt_call.__libc_start_main@@GLIBC_2.34>
 7a4:	60 00 00 00 	nop
 7a8:	00 00 00 00 	.long 0x0
 7ac:	00 0c 20 40 	.long 0xc2040
 7b0:	00 00 00 00 	.long 0x0
 7b4:	00 00 00 28 	.long 0x28
 7b8:	00 06 5f 73 	.long 0x65f73
 7bc:	74 61 72 74 	andis.  r1,r3,29300

00000000000007c0 <.deregister_tm_clones>:
 7c0:	60 00 00 00 	nop
 7c4:	60 00 00 00 	nop
 7c8:	38 62 81 88 	addi    r3,r2,-32376
 7cc:	39 22 81 88 	addi    r9,r2,-32376
 7d0:	7c 29 18 00 	cmpd    r9,r3
 7d4:	4d 82 00 20 	beqlr
 7d8:	60 00 00 00 	nop
 7dc:	e9 22 80 10 	ld      r9,-32752(r2)
 7e0:	2c 29 00 00 	cmpdi   r9,0
 7e4:	4d 82 00 20 	beqlr
 7e8:	7c 08 02 a6 	mflr    r0
 7ec:	f8 01 00 10 	std     r0,16(r1)
 7f0:	f8 21 ff 91 	stdu    r1,-112(r1)
 7f4:	f8 41 00 28 	std     r2,40(r1)
 7f8:	e9 49 00 00 	ld      r10,0(r9)
 7fc:	e9 69 00 10 	ld      r11,16(r9)
 800:	7d 49 03 a6 	mtctr   r10
 804:	e8 49 00 08 	ld      r2,8(r9)
 808:	4e 80 04 21 	bctrl
 80c:	e8 41 00 28 	ld      r2,40(r1)
 810:	38 21 00 70 	addi    r1,r1,112
 814:	e8 01 00 10 	ld      r0,16(r1)
 818:	7c 08 03 a6 	mtlr    r0
 81c:	4e 80 00 20 	blr

0000000000000820 <.register_tm_clones>:
 820:	60 00 00 00 	nop
 824:	60 00 00 00 	nop
 828:	38 62 81 88 	addi    r3,r2,-32376
 82c:	38 82 81 88 	addi    r4,r2,-32376
 830:	7c 83 20 50 	subf    r4,r3,r4
 834:	7c 84 1e 74 	sradi   r4,r4,3
 838:	7c 84 0e 74 	sradi   r4,r4,1
 83c:	7c 84 01 95 	addze.  r4,r4
 840:	4d 82 00 20 	beqlr
 844:	60 00 00 00 	nop
 848:	e9 22 80 18 	ld      r9,-32744(r2)
 84c:	2c 29 00 00 	cmpdi   r9,0
 850:	4d 82 00 20 	beqlr
 854:	7c 08 02 a6 	mflr    r0
 858:	f8 01 00 10 	std     r0,16(r1)
 85c:	f8 21 ff 91 	stdu    r1,-112(r1)
 860:	f8 41 00 28 	std     r2,40(r1)
 864:	e9 49 00 00 	ld      r10,0(r9)
 868:	e9 69 00 10 	ld      r11,16(r9)
 86c:	7d 49 03 a6 	mtctr   r10
 870:	e8 49 00 08 	ld      r2,8(r9)
 874:	4e 80 04 21 	bctrl
 878:	e8 41 00 28 	ld      r2,40(r1)
 87c:	38 21 00 70 	addi    r1,r1,112
 880:	e8 01 00 10 	ld      r0,16(r1)
 884:	7c 08 03 a6 	mtlr    r0
 888:	4e 80 00 20 	blr
 88c:	60 00 00 00 	nop

0000000000000890 <.__do_global_dtors_aux>:
 890:	60 00 00 00 	nop
 894:	89 22 81 88 	lbz     r9,-32376(r2)
 898:	2c 09 00 00 	cmpwi   r9,0
 89c:	4c 82 00 20 	bnelr
 8a0:	7c 08 02 a6 	mflr    r0
 8a4:	60 00 00 00 	nop
 8a8:	e9 22 80 20 	ld      r9,-32736(r2)
 8ac:	2c 29 00 00 	cmpdi   r9,0
 8b0:	f8 01 00 10 	std     r0,16(r1)
 8b4:	f8 21 ff 91 	stdu    r1,-112(r1)
 8b8:	41 82 00 14 	beq     8cc <.__do_global_dtors_aux+0x3c>
 8bc:	60 00 00 00 	nop
 8c0:	e8 62 81 80 	ld      r3,-32384(r2)
 8c4:	4b ff fe 7d 	bl      740 <0000001b.plt_call.__cxa_finalize@@GLIBC_2.3>
 8c8:	e8 41 00 28 	ld      r2,40(r1)
 8cc:	4b ff fe f5 	bl      7c0 <.deregister_tm_clones>
 8d0:	38 21 00 70 	addi    r1,r1,112
 8d4:	39 20 00 01 	li      r9,1
 8d8:	60 00 00 00 	nop
 8dc:	e8 01 00 10 	ld      r0,16(r1)
 8e0:	99 22 81 88 	stb     r9,-32376(r2)
 8e4:	7c 08 03 a6 	mtlr    r0
 8e8:	4e 80 00 20 	blr
 8ec:	60 00 00 00 	nop

00000000000008f0 <.frame_dummy>:
 8f0:	4b ff ff 30 	b       820 <.register_tm_clones>

00000000000008f4 <.main>:
# #include <stdio.h>
# 
# int main (int argc, char** argv) {
 8f4:	7c 08 02 a6 	mflr    r0
 8f8:	f8 01 00 10 	std     r0,16(r1)
 8fc:	f8 21 ff 91 	stdu    r1,-112(r1)
# 
#     printf("Hello from RISC-V!\n");
 900:	3c 62 ff fe 	addis   r3,r2,-2
 904:	38 63 8a a8 	addi    r3,r3,-30040
 908:	4b ff fe 59 	bl      760 <0000001b.plt_call.puts@@GLIBC_2.3>
 90c:	e8 41 00 28 	ld      r2,40(r1)
#     return 0;
 910:	38 60 00 00 	li      r3,0
 914:	38 21 00 70 	addi    r1,r1,112
 918:	e8 01 00 10 	ld      r0,16(r1)
 91c:	7c 08 03 a6 	mtlr    r0
 920:	4e 80 00 20 	blr
 924:	00 00 00 00 	.long 0x0
 928:	00 00 00 01 	.long 0x1
 92c:	80 00 00 00 	lwz     r0,0(0)
 930:	00 00 00 00 	.long 0x0
 934:	00 01 f6 c0 	.long 0x1f6c0

0000000000000938 <__glink_PLTresolve>:
 938:	7d 88 02 a6 	mflr    r12
 93c:	42 9f 00 05 	bcl     20,4*cr7+so,940 <__glink_PLTresolve+0x8>
 940:	7d 68 02 a6 	mflr    r11
 944:	e8 4b ff f0 	ld      r2,-16(r11)
 948:	7d 88 03 a6 	mtlr    r12
 94c:	7d 62 5a 14 	add     r11,r2,r11
 950:	e9 8b 00 00 	ld      r12,0(r11)
 954:	e8 4b 00 08 	ld      r2,8(r11)
 958:	7d 89 03 a6 	mtctr   r12
 95c:	e9 6b 00 10 	ld      r11,16(r11)
 960:	4e 80 04 20 	bctr

0000000000000964 <__libc_start_main@plt>:
 964:	38 00 00 00 	li      r0,0
 968:	4b ff ff d0 	b       938 <__glink_PLTresolve>

000000000000096c <__gmon_start__@plt>:
 96c:	38 00 00 01 	li      r0,1
 970:	4b ff ff c8 	b       938 <__glink_PLTresolve>

0000000000000974 <__cxa_finalize@plt>:
 974:	38 00 00 02 	li      r0,2
 978:	4b ff ff c0 	b       938 <__glink_PLTresolve>

000000000000097c <puts@plt>:
 97c:	38 00 00 03 	li      r0,3
 980:	4b ff ff b8 	b       938 <__glink_PLTresolve>

Disassembly of section .fini:

0000000000000984 <._fini>:
 984:	7c 08 02 a6 	mflr    r0
 988:	f8 01 00 10 	std     r0,16(r1)
 98c:	f8 21 ff 91 	stdu    r1,-112(r1)
 990:	38 21 00 70 	addi    r1,r1,112
 994:	e8 01 00 10 	ld      r0,16(r1)
 998:	7c 08 03 a6 	mtlr    r0
 99c:	4e 80 00 20 	blr
Contents of the .eh_frame section (loaded from a.out):


00000000 0000000000000010 00000000 CIE
  Version:               1
  Augmentation:          "zR"
  Code alignment factor: 4
  Data alignment factor: -8
  Return address column: 65
  Augmentation data:     1b
  DW_CFA_def_cfa: r1 ofs 0

00000014 0000000000000014 00000018 FDE cie=00000000 pc=0000000000000938..0000000000000984
  DW_CFA_advance_loc: 8 to 0000000000000940
  DW_CFA_register: r65 in r12
  DW_CFA_advance_loc: 16 to 0000000000000950
  DW_CFA_restore_extended: r65

0000002c 000000000000001c 00000030 FDE cie=00000000 pc=00000000000008f4..0000000000000930
  DW_CFA_advance_loc: 12 to 0000000000000900
  DW_CFA_def_cfa_offset: 112
  DW_CFA_offset_extended_sf: r65 at cfa+16
  DW_CFA_advance_loc: 24 to 0000000000000918
  DW_CFA_def_cfa_offset: 0
  DW_CFA_advance_loc: 8 to 0000000000000920
  DW_CFA_restore_extended: r65
  DW_CFA_nop
  DW_CFA_nop
  DW_CFA_nop

0000004c ZERO terminator


Contents of the .debug_aranges section (loaded from a.out):

  Length:                   44
  Version:                  2
  Offset into .debug_info:  0
  Pointer Size:             8
  Segment Size:             0

    Address            Length
    00000000000008f4 000000000000003c
    0000000000000000 0000000000000000

Contents of the .debug_info section (loaded from a.out):

  Compilation Unit @ offset 0:
   Length:        0xe1 (32-bit)
   Version:       5
   Unit Type:     DW_UT_compile (1)
   Abbrev Offset: 0
   Pointer Size:  8
 <0><c>: Abbrev Number: 4 (DW_TAG_compile_unit)
    <d>   DW_AT_producer    : (indirect string, offset: 0x86): GNU C99 12.2.0 -msecure-plt -mcpu=power9 -g -O1 -std=gnu99 -fasynchronous-unwind-tables
    <11>   DW_AT_language    : 12	(ANSI C99)
    <12>   DW_AT_name        : (indirect string, offset: 0x47): ../hello.c
    <16>   DW_AT_comp_dir    : (indirect string, offset: 0): /root/hello-world/powerpc64-linux-gnu
    <1a>   DW_AT_low_pc      : 0x8f4
    <22>   DW_AT_high_pc     : 0x3c
    <2a>   DW_AT_stmt_list   : 0
 <1><2e>: Abbrev Number: 1 (DW_TAG_base_type)
    <2f>   DW_AT_byte_size   : 8
    <30>   DW_AT_encoding    : 7	(unsigned)
    <31>   DW_AT_name        : (indirect string, offset: 0x35): long unsigned int
 <1><35>: Abbrev Number: 1 (DW_TAG_base_type)
    <36>   DW_AT_byte_size   : 1
    <37>   DW_AT_encoding    : 8	(unsigned char)
    <38>   DW_AT_name        : (indirect string, offset: 0x5b): char
 <1><3c>: Abbrev Number: 1 (DW_TAG_base_type)
    <3d>   DW_AT_byte_size   : 1
    <3e>   DW_AT_encoding    : 8	(unsigned char)
    <3f>   DW_AT_name        : (indirect string, offset: 0x52): unsigned char
 <1><43>: Abbrev Number: 1 (DW_TAG_base_type)
    <44>   DW_AT_byte_size   : 2
    <45>   DW_AT_encoding    : 7	(unsigned)
    <46>   DW_AT_name        : (indirect string, offset: 0x73): short unsigned int
 <1><4a>: Abbrev Number: 1 (DW_TAG_base_type)
    <4b>   DW_AT_byte_size   : 4
    <4c>   DW_AT_encoding    : 7	(unsigned)
    <4d>   DW_AT_name        : (indirect string, offset: 0x3a): unsigned int
 <1><51>: Abbrev Number: 1 (DW_TAG_base_type)
    <52>   DW_AT_byte_size   : 1
    <53>   DW_AT_encoding    : 6	(signed char)
    <54>   DW_AT_name        : (indirect string, offset: 0x54): signed char
 <1><58>: Abbrev Number: 1 (DW_TAG_base_type)
    <59>   DW_AT_byte_size   : 2
    <5a>   DW_AT_encoding    : 5	(signed)
    <5b>   DW_AT_name        : (indirect string, offset: 0xde): short int
 <1><5f>: Abbrev Number: 5 (DW_TAG_base_type)
    <60>   DW_AT_byte_size   : 4
    <61>   DW_AT_encoding    : 5	(signed)
    <62>   DW_AT_name        : int
 <1><66>: Abbrev Number: 1 (DW_TAG_base_type)
    <67>   DW_AT_byte_size   : 8
    <68>   DW_AT_encoding    : 5	(signed)
    <69>   DW_AT_name        : (indirect string, offset: 0x65): long int
 <1><6d>: Abbrev Number: 2 (DW_TAG_pointer_type)
    <6e>   DW_AT_byte_size   : 8
    <6e>   DW_AT_type        : <0x35>
 <1><72>: Abbrev Number: 6 (DW_TAG_subprogram)
    <73>   DW_AT_external    : 1
    <73>   DW_AT_name        : (indirect string, offset: 0x60): main
    <77>   DW_AT_decl_file   : 1
    <78>   DW_AT_decl_line   : 3
    <79>   DW_AT_decl_column : 5
    <7a>   DW_AT_prototyped  : 1
    <7a>   DW_AT_type        : <0x5f>
    <7e>   DW_AT_low_pc      : 0x8f4
    <86>   DW_AT_high_pc     : 0x3c
    <8e>   DW_AT_frame_base  : 1 byte block: 9c 	(DW_OP_call_frame_cfa)
    <90>   DW_AT_call_all_calls: 1
    <90>   DW_AT_sibling     : <0xd4>
 <2><94>: Abbrev Number: 3 (DW_TAG_formal_parameter)
    <95>   DW_AT_name        : (indirect string, offset: 0x6e): argc
    <99>   DW_AT_decl_file   : 1
    <99>   DW_AT_decl_line   : 3
    <99>   DW_AT_decl_column : 15
    <9a>   DW_AT_type        : <0x5f>
    <9e>   DW_AT_location    : 0x10 (location list)
    <a2>   DW_AT_GNU_locviews: 0xc
 <2><a6>: Abbrev Number: 3 (DW_TAG_formal_parameter)
    <a7>   DW_AT_name        : (indirect string, offset: 0xe8): argv
    <ab>   DW_AT_decl_file   : 1
    <ab>   DW_AT_decl_line   : 3
    <ab>   DW_AT_decl_column : 28
    <ac>   DW_AT_type        : <0xd4>
    <b0>   DW_AT_location    : 0x22 (location list)
    <b4>   DW_AT_GNU_locviews: 0x1e
 <2><b8>: Abbrev Number: 7 (DW_TAG_call_site)
    <b9>   DW_AT_call_return_pc: 0x910
    <c1>   DW_AT_call_origin : <0xd9>
 <3><c5>: Abbrev Number: 8 (DW_TAG_call_site_parameter)
    <c6>   DW_AT_location    : 1 byte block: 53 	(DW_OP_reg3 (r3))
    <c8>   DW_AT_call_value  : 9 byte block: 3 0 0 0 0 0 0 9 a8 	(DW_OP_addr: 9a8)
 <3><d2>: Abbrev Number: 0
 <2><d3>: Abbrev Number: 0
 <1><d4>: Abbrev Number: 2 (DW_TAG_pointer_type)
    <d5>   DW_AT_byte_size   : 8
    <d5>   DW_AT_type        : <0x6d>
 <1><d9>: Abbrev Number: 9 (DW_TAG_subprogram)
    <da>   DW_AT_external    : 1
    <da>   DW_AT_declaration : 1
    <da>   DW_AT_linkage_name: (indirect string, offset: 0x30): puts
    <de>   DW_AT_name        : (indirect string, offset: 0x26): __builtin_puts
    <e2>   DW_AT_decl_file   : 2
    <e3>   DW_AT_decl_line   : 0
 <1><e4>: Abbrev Number: 0

Contents of the .debug_abbrev section (loaded from a.out):

  Number TAG (0)
   1      DW_TAG_base_type    [no children]
    DW_AT_byte_size    DW_FORM_data1
    DW_AT_encoding     DW_FORM_data1
    DW_AT_name         DW_FORM_strp
    DW_AT value: 0     DW_FORM value: 0
   2      DW_TAG_pointer_type    [no children]
    DW_AT_byte_size    DW_FORM_implicit_const: 8
    DW_AT_type         DW_FORM_ref4
    DW_AT value: 0     DW_FORM value: 0
   3      DW_TAG_formal_parameter    [no children]
    DW_AT_name         DW_FORM_strp
    DW_AT_decl_file    DW_FORM_implicit_const: 1
    DW_AT_decl_line    DW_FORM_implicit_const: 3
    DW_AT_decl_column  DW_FORM_data1
    DW_AT_type         DW_FORM_ref4
    DW_AT_location     DW_FORM_sec_offset
    DW_AT_GNU_locviews DW_FORM_sec_offset
    DW_AT value: 0     DW_FORM value: 0
   4      DW_TAG_compile_unit    [has children]
    DW_AT_producer     DW_FORM_strp
    DW_AT_language     DW_FORM_data1
    DW_AT_name         DW_FORM_strp
    DW_AT_comp_dir     DW_FORM_strp
    DW_AT_low_pc       DW_FORM_addr
    DW_AT_high_pc      DW_FORM_data8
    DW_AT_stmt_list    DW_FORM_sec_offset
    DW_AT value: 0     DW_FORM value: 0
   5      DW_TAG_base_type    [no children]
    DW_AT_byte_size    DW_FORM_data1
    DW_AT_encoding     DW_FORM_data1
    DW_AT_name         DW_FORM_string
    DW_AT value: 0     DW_FORM value: 0
   6      DW_TAG_subprogram    [has children]
    DW_AT_external     DW_FORM_flag_present
    DW_AT_name         DW_FORM_strp
    DW_AT_decl_file    DW_FORM_data1
    DW_AT_decl_line    DW_FORM_data1
    DW_AT_decl_column  DW_FORM_data1
    DW_AT_prototyped   DW_FORM_flag_present
    DW_AT_type         DW_FORM_ref4
    DW_AT_low_pc       DW_FORM_addr
    DW_AT_high_pc      DW_FORM_data8
    DW_AT_frame_base   DW_FORM_exprloc
    DW_AT_call_all_calls DW_FORM_flag_present
    DW_AT_sibling      DW_FORM_ref4
    DW_AT value: 0     DW_FORM value: 0
   7      DW_TAG_call_site    [has children]
    DW_AT_call_return_pc DW_FORM_addr
    DW_AT_call_origin  DW_FORM_ref4
    DW_AT value: 0     DW_FORM value: 0
   8      DW_TAG_call_site_parameter    [no children]
    DW_AT_location     DW_FORM_exprloc
    DW_AT_call_value   DW_FORM_exprloc
    DW_AT value: 0     DW_FORM value: 0
   9      DW_TAG_subprogram    [no children]
    DW_AT_external     DW_FORM_flag_present
    DW_AT_declaration  DW_FORM_flag_present
    DW_AT_linkage_name DW_FORM_strp
    DW_AT_name         DW_FORM_strp
    DW_AT_decl_file    DW_FORM_data1
    DW_AT_decl_line    DW_FORM_data1
    DW_AT value: 0     DW_FORM value: 0

Raw dump of debug contents of section .debug_line (loaded from a.out):

  Offset:                      0
  Length:                      86
  DWARF Version:               3
  Prologue Length:             47
  Minimum Instruction Length:  4
  Initial value of 'is_stmt':  1
  Line Base:                   -5
  Line Range:                  14
  Opcode Base:                 13

 Opcodes:
  Opcode 1 has 0 args
  Opcode 2 has 1 arg
  Opcode 3 has 1 arg
  Opcode 4 has 1 arg
  Opcode 5 has 1 arg
  Opcode 6 has 0 args
  Opcode 7 has 0 args
  Opcode 8 has 0 args
  Opcode 9 has 1 arg
  Opcode 10 has 0 args
  Opcode 11 has 0 args
  Opcode 12 has 1 arg

 The Directory Table (offset 0x1b):
  1	..

 The File Name Table (offset 0x1f):
  Entry	Dir	Time	Size	Name
  1	1	0	0	hello.c
  2	0	0	0	<built-in>

 Line Number Statements:
  [0x00000039]  Set column to 34
  [0x0000003b]  Extended opcode 2: set Address to 0x8f4
  [0x00000046]  Special opcode 7: advance Address by 0 to 0x8f4 and Line by 2 to 3
  [0x00000047]  Set is_stmt to 0
  [0x00000048]  Copy (view 1)
  [0x00000049]  Set column to 5
  [0x0000004b]  Set is_stmt to 1
  [0x0000004c]  Special opcode 49: advance Address by 12 to 0x900 and Line by 2 to 5
  [0x0000004d]  Set is_stmt to 0
  [0x0000004e]  Special opcode 19: advance Address by 4 to 0x904 and Line by 0 to 5
  [0x0000004f]  Set is_stmt to 1
  [0x00000050]  Special opcode 48: advance Address by 12 to 0x910 and Line by 1 to 6
  [0x00000051]  Set column to 1
  [0x00000053]  Set is_stmt to 0
  [0x00000054]  Special opcode 6: advance Address by 0 to 0x910 and Line by 1 to 7 (view 1)
  [0x00000055]  Advance PC by 32 to 0x930
  [0x00000057]  Extended opcode 1: End of Sequence


Contents of the .debug_str section (loaded from a.out):

  0x00000000 2f726f6f 742f6865 6c6c6f2d 776f726c /root/hello-worl
  0x00000010 642f706f 77657270 6336342d 6c696e75 d/powerpc64-linu
  0x00000020 782d676e 75005f5f 6275696c 74696e5f x-gnu.__builtin_
  0x00000030 70757473 006c6f6e 6720756e 7369676e puts.long unsign
  0x00000040 65642069 6e74002e 2e2f6865 6c6c6f2e ed int.../hello.
  0x00000050 6300756e 7369676e 65642063 68617200 c.unsigned char.
  0x00000060 6d61696e 006c6f6e 6720696e 74006172 main.long int.ar
  0x00000070 67630073 686f7274 20756e73 69676e65 gc.short unsigne
  0x00000080 6420696e 7400474e 55204339 39203132 d int.GNU C99 12
  0x00000090 2e322e30 202d6d73 65637572 652d706c .2.0 -msecure-pl
  0x000000a0 74202d6d 6370753d 706f7765 7239202d t -mcpu=power9 -
  0x000000b0 67202d4f 31202d73 74643d67 6e753939 g -O1 -std=gnu99
  0x000000c0 202d6661 73796e63 68726f6e 6f75732d  -fasynchronous-
  0x000000d0 756e7769 6e642d74 61626c65 73007368 unwind-tables.sh
  0x000000e0 6f727420 696e7400 61726776 00       ort int.argv.

Contents of the .debug_loclists section (loaded from a.out):

    Offset   Begin            End              Expression

    0000000c v000000000000000 v000000000000000 location view pair
    0000000e v000000000000000 v000000000000000 location view pair

    00000010 v000000000000000 v000000000000000 views at 0000000c for:
             00000000000008f4 0000000000000904 (DW_OP_reg3 (r3))
    00000015 v000000000000000 v000000000000000 views at 0000000e for:
             0000000000000904 0000000000000930 (DW_OP_entry_value: (DW_OP_reg3 (r3)); DW_OP_stack_value)
    0000001d <End of list>

    0000001e v000000000000000 v000000000000000 location view pair
    00000020 v000000000000000 v000000000000000 location view pair

    00000022 v000000000000000 v000000000000000 views at 0000001e for:
             00000000000008f4 000000000000090f (DW_OP_reg4 (r4))
    00000027 v000000000000000 v000000000000000 views at 00000020 for:
             000000000000090f 0000000000000930 (DW_OP_entry_value: (DW_OP_reg4 (r4)); DW_OP_stack_value)
    0000002f <End of list>

