
a.out:     file format elf64-powerpc

SYMBOL TABLE:
0000000000000200 l    d  .interp	0000000000000000              .interp
0000000000000214 l    d  .note.gnu.build-id	0000000000000000              .note.gnu.build-id
0000000000000238 l    d  .note.ABI-tag	0000000000000000              .note.ABI-tag
0000000000000258 l    d  .gnu.hash	0000000000000000              .gnu.hash
0000000000000278 l    d  .dynsym	0000000000000000              .dynsym
0000000000000440 l    d  .dynstr	0000000000000000              .dynstr
0000000000000516 l    d  .gnu.version	0000000000000000              .gnu.version
0000000000000540 l    d  .gnu.version_r	0000000000000000              .gnu.version_r
0000000000000580 l    d  .rela.dyn	0000000000000000              .rela.dyn
0000000000000c10 l    d  .rela.plt	0000000000000000              .rela.plt
0000000000000d60 l    d  .init	0000000000000000              .init
0000000000000dc0 l    d  .text	0000000000000000              .text
0000000000001614 l    d  .fini	0000000000000000              .fini
0000000000001630 l    d  .rodata	0000000000000000              .rodata
0000000000001928 l    d  .eh_frame_hdr	0000000000000000              .eh_frame_hdr
000000000000196c l    d  .eh_frame	0000000000000000              .eh_frame
000000000001fa88 l    d  .init_array	0000000000000000              .init_array
000000000001fa90 l    d  .fini_array	0000000000000000              .fini_array
000000000001fa98 l    d  .data.rel.ro	0000000000000000              .data.rel.ro
000000000001fbd8 l    d  .dynamic	0000000000000000              .dynamic
000000000001fdc8 l    d  .opd	0000000000000000              .opd
000000000001ff00 l    d  .got	0000000000000000              .got
0000000000020000 l    d  .plt	0000000000000000              .plt
0000000000020168 l    d  .data	0000000000000000              .data
0000000000020178 l    d  .bss	0000000000000000              .bss
0000000000000000 l    d  .comment	0000000000000000              .comment
0000000000000000 l    d  .debug_aranges	0000000000000000              .debug_aranges
0000000000000000 l    d  .debug_info	0000000000000000              .debug_info
0000000000000000 l    d  .debug_abbrev	0000000000000000              .debug_abbrev
0000000000000000 l    d  .debug_line	0000000000000000              .debug_line
0000000000000000 l    d  .debug_str	0000000000000000              .debug_str
0000000000000000 l    d  .debug_loclists	0000000000000000              .debug_loclists
0000000000000000 l    d  .gnu.attributes	0000000000000000              .gnu.attributes
0000000000000000 l    df *ABS*	0000000000000000              Scrt1.o
0000000000000238 l     O .note.ABI-tag	0000000000000020              __abi_tag
0000000000000000 l    df *ABS*	0000000000000000              crtstuff.c
000000000001fe10 l     F .opd	0000000000000000              deregister_tm_clones
000000000001fe28 l     F .opd	0000000000000000              register_tm_clones
000000000001fe40 l     F .opd	0000000000000000              __do_global_dtors_aux
0000000000020178 l     O .bss	0000000000000001              completed.0
000000000001fa90 l     O .fini_array	0000000000000000              __do_global_dtors_aux_fini_array_entry
000000000001fe58 l     F .opd	0000000000000000              frame_dummy
000000000001fa88 l     O .init_array	0000000000000000              __frame_dummy_init_array_entry
0000000000000000 l    df *ABS*	0000000000000000              morse.c
0000000000020180 l     O .bss	0000000000000008              fp
000000000001fab8 l     O .data.rel.ro	0000000000000120              morse_tbl
0000000000000000 l    df *ABS*	0000000000000000              crtstuff.c
0000000000001a84 l     O .eh_frame	0000000000000000              __FRAME_END__
0000000000000000 l    df *ABS*	0000000000000000              
0000000000000f20 l       .text	0000000000000000              0000001b.plt_call.fclose@@GLIBC_2.3
0000000000000ee0 l       .text	0000000000000000              0000001b.plt_call.fwrite@@GLIBC_2.3
0000000000000e20 l       .text	0000000000000000              0000001b.plt_call.nanosleep@@GLIBC_2.3
0000000000000ea0 l       .text	0000000000000000              0000001b.plt_call.fflush@@GLIBC_2.3
0000000000000e80 l       .text	0000000000000000              0000001b.plt_call.printf@@GLIBC_2.4
0000000000001578 l       .text	0000000000000000              __glink_PLTresolve
0000000000000e60 l       .text	0000000000000000              0000001b.plt_call.exit@@GLIBC_2.3
0000000000000e40 l       .text	0000000000000000              0000001b.plt_call.fputc@@GLIBC_2.3
0000000000000de0 l       .text	0000000000000000              0000001b.plt_call.fprintf@@GLIBC_2.4
0000000000000dc0 l       .text	0000000000000000              0000001b.plt_call.__libc_start_main@@GLIBC_2.34
0000000000000d60 l       .init	0000000000000000              00000037.plt_call.__gmon_start__
000000000001fbd8 l     O .dynamic	0000000000000000              _DYNAMIC
0000000000000ec0 l       .text	0000000000000000              0000001b.plt_call.__cxa_finalize@@GLIBC_2.3
0000000000001928 l       .eh_frame_hdr	0000000000000000              __GNU_EH_FRAME_HDR
0000000000000f00 l       .text	0000000000000000              0000001b.plt_call.fopen@@GLIBC_2.3
0000000000000f40 l       .text	0000000000000000              0000001b.plt_call.puts@@GLIBC_2.3
0000000000000e00 l       .text	0000000000000000              0000001b.plt_call.sprintf@@GLIBC_2.4
0000000000000000       F *UND*	0000000000000000              __libc_start_main@GLIBC_2.34
0000000000000000  w      *UND*	0000000000000000              _ITM_deregisterTMCloneTable
0000000000020168  w      .data	0000000000000000              data_start
0000000000000000       F *UND*	0000000000000000              printf@GLIBC_2.4
000000000001fe88 g     F .opd	0000000000000064              io_write
000000000001fed0 g     F .opd	0000000000000054              morse
0000000000020178 g       .data	0000000000000000              _edata
0000000000000000       F *UND*	0000000000000000              fclose@GLIBC_2.3
000000000001feb8 g     F .opd	0000000000000118              morse_letter
000000000001fdf8 g     F .opd	0000000000000000              .hidden _fini
000000000001fe70 g     F .opd	0000000000000224              io_init
0000000000000000       F *UND*	0000000000000000              fputc@GLIBC_2.3
0000000000020168 g       .data	0000000000000000              __data_start
0000000000000000  w      *UND*	0000000000000000              __gmon_start__
0000000000020170 g     O .data	0000000000000000              .hidden __dso_handle
0000000000001630 g     O .rodata	0000000000000004              _IO_stdin_used
0000000000000000  w    F *UND*	0000000000000000              __cxa_finalize@GLIBC_2.3
0000000000000000       F *UND*	0000000000000000              fprintf@GLIBC_2.4
000000000001fea0 g     F .opd	0000000000000054              fsleep
0000000000000000       F *UND*	0000000000000000              fopen@GLIBC_2.3
0000000000020188 g       .bss	0000000000000000              _end
0000000000000000       F *UND*	0000000000000000              fflush@GLIBC_2.3
000000000001fdc8 g     F .opd	0000000000000040              _start
0000000000000000       F *UND*	0000000000000000              nanosleep@GLIBC_2.3
0000000000020178 g       .bss	0000000000000000              __bss_start
000000000001fee8 g     F .opd	0000000000000050              main
0000000000000000       F *UND*	0000000000000000              sprintf@GLIBC_2.4
0000000000000000       F *UND*	0000000000000000              fwrite@GLIBC_2.3
0000000000020178 g     O .data	0000000000000000              .hidden __TMC_END__
0000000000000000  w      *UND*	0000000000000000              _ITM_registerTMCloneTable
0000000000000000       F *UND*	0000000000000000              puts@GLIBC_2.3
000000000001fde0 g     F .opd	0000000000000000              .hidden _init
0000000000000000       F *UND*	0000000000000000              exit@GLIBC_2.3



Disassembly of section .init:

0000000000000d60 <00000037.plt_call.__gmon_start__>:
 d60:	f8 41 00 28 	std     r2,40(r1)
 d64:	e9 82 81 78 	ld      r12,-32392(r2)
 d68:	7d 89 03 a6 	mtctr   r12
 d6c:	e8 42 81 80 	ld      r2,-32384(r2)
 d70:	4e 80 04 20 	bctr
	...

0000000000000d80 <._init>:
 d80:	7c 08 02 a6 	mflr    r0
 d84:	f8 01 00 10 	std     r0,16(r1)
 d88:	f8 21 ff 91 	stdu    r1,-112(r1)
 d8c:	60 00 00 00 	nop
 d90:	e8 02 80 08 	ld      r0,-32760(r2)
 d94:	2f a0 00 00 	cmpdi   cr7,r0,0
 d98:	41 fe 00 0c 	beq+    cr7,da4 <._init+0x24>
 d9c:	4b ff ff c5 	bl      d60 <00000037.plt_call.__gmon_start__>
 da0:	e8 41 00 28 	ld      r2,40(r1)
 da4:	38 21 00 70 	addi    r1,r1,112
 da8:	e8 01 00 10 	ld      r0,16(r1)
 dac:	7c 08 03 a6 	mtlr    r0
 db0:	4e 80 00 20 	blr

Disassembly of section .text:

0000000000000dc0 <0000001b.plt_call.__libc_start_main@@GLIBC_2.34>:
     dc0:	f8 41 00 28 	std     r2,40(r1)
     dc4:	e9 82 81 18 	ld      r12,-32488(r2)
     dc8:	7d 89 03 a6 	mtctr   r12
     dcc:	e8 42 81 20 	ld      r2,-32480(r2)
     dd0:	4e 80 04 20 	bctr
	...

0000000000000de0 <0000001b.plt_call.fprintf@@GLIBC_2.4>:
     de0:	f8 41 00 28 	std     r2,40(r1)
     de4:	e9 82 81 a8 	ld      r12,-32344(r2)
     de8:	7d 89 03 a6 	mtctr   r12
     dec:	e8 42 81 b0 	ld      r2,-32336(r2)
     df0:	4e 80 04 20 	bctr
	...

0000000000000e00 <0000001b.plt_call.sprintf@@GLIBC_2.4>:
     e00:	f8 41 00 28 	std     r2,40(r1)
     e04:	e9 82 82 08 	ld      r12,-32248(r2)
     e08:	7d 89 03 a6 	mtctr   r12
     e0c:	e8 42 82 10 	ld      r2,-32240(r2)
     e10:	4e 80 04 20 	bctr
	...

0000000000000e20 <0000001b.plt_call.nanosleep@@GLIBC_2.3>:
     e20:	f8 41 00 28 	std     r2,40(r1)
     e24:	e9 82 81 f0 	ld      r12,-32272(r2)
     e28:	7d 89 03 a6 	mtctr   r12
     e2c:	e8 42 81 f8 	ld      r2,-32264(r2)
     e30:	4e 80 04 20 	bctr
	...

0000000000000e40 <0000001b.plt_call.fputc@@GLIBC_2.3>:
     e40:	f8 41 00 28 	std     r2,40(r1)
     e44:	e9 82 81 60 	ld      r12,-32416(r2)
     e48:	7d 89 03 a6 	mtctr   r12
     e4c:	e8 42 81 68 	ld      r2,-32408(r2)
     e50:	4e 80 04 20 	bctr
	...

0000000000000e60 <0000001b.plt_call.exit@@GLIBC_2.3>:
     e60:	f8 41 00 28 	std     r2,40(r1)
     e64:	e9 82 82 50 	ld      r12,-32176(r2)
     e68:	7d 89 03 a6 	mtctr   r12
     e6c:	e8 42 82 58 	ld      r2,-32168(r2)
     e70:	4e 80 04 20 	bctr
	...

0000000000000e80 <0000001b.plt_call.printf@@GLIBC_2.4>:
     e80:	f8 41 00 28 	std     r2,40(r1)
     e84:	e9 82 81 30 	ld      r12,-32464(r2)
     e88:	7d 89 03 a6 	mtctr   r12
     e8c:	e8 42 81 38 	ld      r2,-32456(r2)
     e90:	4e 80 04 20 	bctr
	...

0000000000000ea0 <0000001b.plt_call.fflush@@GLIBC_2.3>:
     ea0:	f8 41 00 28 	std     r2,40(r1)
     ea4:	e9 82 81 d8 	ld      r12,-32296(r2)
     ea8:	7d 89 03 a6 	mtctr   r12
     eac:	e8 42 81 e0 	ld      r2,-32288(r2)
     eb0:	4e 80 04 20 	bctr
	...

0000000000000ec0 <0000001b.plt_call.__cxa_finalize@@GLIBC_2.3>:
     ec0:	f8 41 00 28 	std     r2,40(r1)
     ec4:	e9 82 81 90 	ld      r12,-32368(r2)
     ec8:	7d 89 03 a6 	mtctr   r12
     ecc:	e8 42 81 98 	ld      r2,-32360(r2)
     ed0:	4e 80 04 20 	bctr
	...

0000000000000ee0 <0000001b.plt_call.fwrite@@GLIBC_2.3>:
     ee0:	f8 41 00 28 	std     r2,40(r1)
     ee4:	e9 82 82 20 	ld      r12,-32224(r2)
     ee8:	7d 89 03 a6 	mtctr   r12
     eec:	e8 42 82 28 	ld      r2,-32216(r2)
     ef0:	4e 80 04 20 	bctr
	...

0000000000000f00 <0000001b.plt_call.fopen@@GLIBC_2.3>:
     f00:	f8 41 00 28 	std     r2,40(r1)
     f04:	e9 82 81 c0 	ld      r12,-32320(r2)
     f08:	7d 89 03 a6 	mtctr   r12
     f0c:	e8 42 81 c8 	ld      r2,-32312(r2)
     f10:	4e 80 04 20 	bctr
	...

0000000000000f20 <0000001b.plt_call.fclose@@GLIBC_2.3>:
     f20:	f8 41 00 28 	std     r2,40(r1)
     f24:	e9 82 81 48 	ld      r12,-32440(r2)
     f28:	7d 89 03 a6 	mtctr   r12
     f2c:	e8 42 81 50 	ld      r2,-32432(r2)
     f30:	4e 80 04 20 	bctr
	...

0000000000000f40 <0000001b.plt_call.puts@@GLIBC_2.3>:
     f40:	f8 41 00 28 	std     r2,40(r1)
     f44:	e9 82 82 38 	ld      r12,-32200(r2)
     f48:	7d 89 03 a6 	mtctr   r12
     f4c:	e8 42 82 40 	ld      r2,-32192(r2)
     f50:	4e 80 04 20 	bctr
	...

0000000000000f60 <._start>:
     f60:	7c 29 0b 78 	mr      r9,r1
     f64:	78 21 06 e4 	clrrdi  r1,r1,4
     f68:	38 00 00 00 	li      r0,0
     f6c:	f8 21 ff 81 	stdu    r1,-128(r1)
     f70:	7c 08 03 a6 	mtlr    r0
     f74:	f8 01 00 00 	std     r0,0(r1)
     f78:	3d 02 ff ff 	addis   r8,r2,-1
     f7c:	39 08 7b 98 	addi    r8,r8,31640
     f80:	4b ff fe 40 	b       dc0 <0000001b.plt_call.__libc_start_main@@GLIBC_2.34>
     f84:	60 00 00 00 	nop
     f88:	00 00 00 00 	.long 0x0
     f8c:	00 0c 20 40 	.long 0xc2040
     f90:	00 00 00 00 	.long 0x0
     f94:	00 00 00 28 	.long 0x28
     f98:	00 06 5f 73 	.long 0x65f73
     f9c:	74 61 72 74 	andis.  r1,r3,29300

0000000000000fa0 <.deregister_tm_clones>:
     fa0:	60 00 00 00 	nop
     fa4:	60 00 00 00 	nop
     fa8:	38 62 82 78 	addi    r3,r2,-32136
     fac:	39 22 82 78 	addi    r9,r2,-32136
     fb0:	7c 29 18 00 	cmpd    r9,r3
     fb4:	4d 82 00 20 	beqlr
     fb8:	60 00 00 00 	nop
     fbc:	e9 22 80 10 	ld      r9,-32752(r2)
     fc0:	2c 29 00 00 	cmpdi   r9,0
     fc4:	4d 82 00 20 	beqlr
     fc8:	7c 08 02 a6 	mflr    r0
     fcc:	f8 01 00 10 	std     r0,16(r1)
     fd0:	f8 21 ff 91 	stdu    r1,-112(r1)
     fd4:	f8 41 00 28 	std     r2,40(r1)
     fd8:	e9 49 00 00 	ld      r10,0(r9)
     fdc:	e9 69 00 10 	ld      r11,16(r9)
     fe0:	7d 49 03 a6 	mtctr   r10
     fe4:	e8 49 00 08 	ld      r2,8(r9)
     fe8:	4e 80 04 21 	bctrl
     fec:	e8 41 00 28 	ld      r2,40(r1)
     ff0:	38 21 00 70 	addi    r1,r1,112
     ff4:	e8 01 00 10 	ld      r0,16(r1)
     ff8:	7c 08 03 a6 	mtlr    r0
     ffc:	4e 80 00 20 	blr

0000000000001000 <.register_tm_clones>:
    1000:	60 00 00 00 	nop
    1004:	60 00 00 00 	nop
    1008:	38 62 82 78 	addi    r3,r2,-32136
    100c:	38 82 82 78 	addi    r4,r2,-32136
    1010:	7c 83 20 50 	subf    r4,r3,r4
    1014:	7c 84 1e 74 	sradi   r4,r4,3
    1018:	7c 84 0e 74 	sradi   r4,r4,1
    101c:	7c 84 01 95 	addze.  r4,r4
    1020:	4d 82 00 20 	beqlr
    1024:	60 00 00 00 	nop
    1028:	e9 22 80 18 	ld      r9,-32744(r2)
    102c:	2c 29 00 00 	cmpdi   r9,0
    1030:	4d 82 00 20 	beqlr
    1034:	7c 08 02 a6 	mflr    r0
    1038:	f8 01 00 10 	std     r0,16(r1)
    103c:	f8 21 ff 91 	stdu    r1,-112(r1)
    1040:	f8 41 00 28 	std     r2,40(r1)
    1044:	e9 49 00 00 	ld      r10,0(r9)
    1048:	e9 69 00 10 	ld      r11,16(r9)
    104c:	7d 49 03 a6 	mtctr   r10
    1050:	e8 49 00 08 	ld      r2,8(r9)
    1054:	4e 80 04 21 	bctrl
    1058:	e8 41 00 28 	ld      r2,40(r1)
    105c:	38 21 00 70 	addi    r1,r1,112
    1060:	e8 01 00 10 	ld      r0,16(r1)
    1064:	7c 08 03 a6 	mtlr    r0
    1068:	4e 80 00 20 	blr
    106c:	60 00 00 00 	nop

0000000000001070 <.__do_global_dtors_aux>:
    1070:	60 00 00 00 	nop
    1074:	89 22 82 78 	lbz     r9,-32136(r2)
    1078:	2c 09 00 00 	cmpwi   r9,0
    107c:	4c 82 00 20 	bnelr
    1080:	7c 08 02 a6 	mflr    r0
    1084:	60 00 00 00 	nop
    1088:	e9 22 80 20 	ld      r9,-32736(r2)
    108c:	2c 29 00 00 	cmpdi   r9,0
    1090:	f8 01 00 10 	std     r0,16(r1)
    1094:	f8 21 ff 91 	stdu    r1,-112(r1)
    1098:	41 82 00 14 	beq     10ac <.__do_global_dtors_aux+0x3c>
    109c:	60 00 00 00 	nop
    10a0:	e8 62 82 70 	ld      r3,-32144(r2)
    10a4:	4b ff fe 1d 	bl      ec0 <0000001b.plt_call.__cxa_finalize@@GLIBC_2.3>
    10a8:	e8 41 00 28 	ld      r2,40(r1)
    10ac:	4b ff fe f5 	bl      fa0 <.deregister_tm_clones>
    10b0:	38 21 00 70 	addi    r1,r1,112
    10b4:	39 20 00 01 	li      r9,1
    10b8:	60 00 00 00 	nop
    10bc:	e8 01 00 10 	ld      r0,16(r1)
    10c0:	99 22 82 78 	stb     r9,-32136(r2)
    10c4:	7c 08 03 a6 	mtlr    r0
    10c8:	4e 80 00 20 	blr
    10cc:	60 00 00 00 	nop

00000000000010d0 <.frame_dummy>:
    10d0:	4b ff ff 30 	b       1000 <.register_tm_clones>

00000000000010d4 <.io_init>:
# /* 
#  * IO Functions
#  */
# static FILE* fp = NULL;
# void io_init(const int pin)
# {	
    10d4:	7c 08 02 a6 	mflr    r0
    10d8:	f8 01 00 10 	std     r0,16(r1)
    10dc:	fb c1 ff f0 	std     r30,-16(r1)
    10e0:	fb e1 ff f8 	std     r31,-8(r1)
    10e4:	f8 21 ff 31 	stdu    r1,-208(r1)
    10e8:	7c 7f 1b 78 	mr      r31,r3
# 	char path[64];
# 	/* Open GPIO direction for writing */
# 	sprintf(path,"/sys/class/gpio/gpio%d/direction",pin);
    10ec:	7c 65 1b 78 	mr      r5,r3
    10f0:	3c 82 ff fe 	addis   r4,r2,-2
    10f4:	38 84 97 38 	addi    r4,r4,-26824
    10f8:	3b c1 00 70 	addi    r30,r1,112
    10fc:	7f c3 f3 78 	mr      r3,r30
    1100:	4b ff fd 01 	bl      e00 <0000001b.plt_call.sprintf@@GLIBC_2.4>
    1104:	e8 41 00 28 	ld      r2,40(r1)
# 	printf("Opening Direction file %s\n",path);
    1108:	7f c4 f3 78 	mr      r4,r30
    110c:	3c 62 ff fe 	addis   r3,r2,-2
    1110:	38 63 97 60 	addi    r3,r3,-26784
    1114:	4b ff fd 6d 	bl      e80 <0000001b.plt_call.printf@@GLIBC_2.4>
    1118:	e8 41 00 28 	ld      r2,40(r1)
# 	fp = fopen(path,"w");
    111c:	3c 82 ff fe 	addis   r4,r2,-2
    1120:	38 84 97 80 	addi    r4,r4,-26752
    1124:	7f c3 f3 78 	mr      r3,r30
    1128:	4b ff fd d9 	bl      f00 <0000001b.plt_call.fopen@@GLIBC_2.3>
    112c:	e8 41 00 28 	ld      r2,40(r1)
    1130:	60 00 00 00 	nop
    1134:	f8 62 82 80 	std     r3,-32128(r2)
# 	if(!fp)
    1138:	2c 23 00 00 	cmpdi   r3,0
    113c:	41 82 00 b8 	beq     11f4 <.io_init+0x120>
# 			printf("ERROR: Failed to open GPIO direction\n");
# 			exit(-1);
# 		}
# 	}
# 	/* Write direction */
# 	fprintf(fp,"out");
    1140:	60 00 00 00 	nop
    1144:	e8 c2 82 80 	ld      r6,-32128(r2)
    1148:	38 a0 00 03 	li      r5,3
    114c:	38 80 00 01 	li      r4,1
    1150:	3c 62 ff fe 	addis   r3,r2,-2
    1154:	38 63 98 18 	addi    r3,r3,-26600
    1158:	4b ff fd 89 	bl      ee0 <0000001b.plt_call.fwrite@@GLIBC_2.3>
    115c:	e8 41 00 28 	ld      r2,40(r1)
# 	fclose(fp);
    1160:	e8 62 82 80 	ld      r3,-32128(r2)
    1164:	4b ff fd bd 	bl      f20 <0000001b.plt_call.fclose@@GLIBC_2.3>
    1168:	e8 41 00 28 	ld      r2,40(r1)
# 	/* Open 'value' file */
# 	sprintf(path,"/sys/class/gpio/gpio%d/value",pin);
    116c:	7f e5 fb 78 	mr      r5,r31
    1170:	3c 82 ff fe 	addis   r4,r2,-2
    1174:	38 84 98 20 	addi    r4,r4,-26592
    1178:	3b e1 00 70 	addi    r31,r1,112
    117c:	7f e3 fb 78 	mr      r3,r31
    1180:	4b ff fc 81 	bl      e00 <0000001b.plt_call.sprintf@@GLIBC_2.4>
    1184:	e8 41 00 28 	ld      r2,40(r1)
# 	printf("Opening Value file %s\n",path);
    1188:	7f e4 fb 78 	mr      r4,r31
    118c:	3c 62 ff fe 	addis   r3,r2,-2
    1190:	38 63 98 40 	addi    r3,r3,-26560
    1194:	4b ff fc ed 	bl      e80 <0000001b.plt_call.printf@@GLIBC_2.4>
    1198:	e8 41 00 28 	ld      r2,40(r1)
# 	fp = fopen(path,"w");
    119c:	3c 82 ff fe 	addis   r4,r2,-2
    11a0:	38 84 97 80 	addi    r4,r4,-26752
    11a4:	7f e3 fb 78 	mr      r3,r31
    11a8:	4b ff fd 59 	bl      f00 <0000001b.plt_call.fopen@@GLIBC_2.3>
    11ac:	e8 41 00 28 	ld      r2,40(r1)
    11b0:	7c 64 1b 78 	mr      r4,r3
    11b4:	f8 62 82 80 	std     r3,-32128(r2)
# 	if(!fp)
    11b8:	2c 23 00 00 	cmpdi   r3,0
    11bc:	41 82 01 10 	beq     12cc <.io_init+0x1f8>
# 	{
# 		printf("ERROR: Failed to open GPIO value\n");
# 		exit(-1);
# 	}
# 	/* Initialize LED to off */
# 	fprintf(fp,"0");
    11c0:	38 60 00 30 	li      r3,48
    11c4:	4b ff fc 7d 	bl      e40 <0000001b.plt_call.fputc@@GLIBC_2.3>
    11c8:	e8 41 00 28 	ld      r2,40(r1)
# 	fflush(fp);
    11cc:	60 00 00 00 	nop
    11d0:	e8 62 82 80 	ld      r3,-32128(r2)
    11d4:	4b ff fc cd 	bl      ea0 <0000001b.plt_call.fflush@@GLIBC_2.3>
    11d8:	e8 41 00 28 	ld      r2,40(r1)
# }
    11dc:	38 21 00 d0 	addi    r1,r1,208
    11e0:	e8 01 00 10 	ld      r0,16(r1)
    11e4:	7c 08 03 a6 	mtlr    r0
    11e8:	eb c1 ff f0 	ld      r30,-16(r1)
    11ec:	eb e1 ff f8 	ld      r31,-8(r1)
    11f0:	4e 80 00 20 	blr
    11f4:	fb a1 00 b8 	std     r29,184(r1)
# 		printf("GPIO not exported yet... doing that\n");
    11f8:	3c 62 ff fe 	addis   r3,r2,-2
    11fc:	38 63 97 88 	addi    r3,r3,-26744
    1200:	4b ff fd 41 	bl      f40 <0000001b.plt_call.puts@@GLIBC_2.3>
    1204:	e8 41 00 28 	ld      r2,40(r1)
# 		fp = fopen("/sys/class/gpio/export", "w");
    1208:	3c 82 ff fe 	addis   r4,r2,-2
    120c:	38 84 97 80 	addi    r4,r4,-26752
    1210:	3c 62 ff fe 	addis   r3,r2,-2
    1214:	38 63 97 b0 	addi    r3,r3,-26704
    1218:	4b ff fc e9 	bl      f00 <0000001b.plt_call.fopen@@GLIBC_2.3>
    121c:	e8 41 00 28 	ld      r2,40(r1)
    1220:	60 00 00 00 	nop
    1224:	f8 62 82 80 	std     r3,-32128(r2)
# 		if(!fp)
    1228:	2c 23 00 00 	cmpdi   r3,0
    122c:	41 82 00 68 	beq     1294 <.io_init+0x1c0>
# 		fprintf(fp, "%d", pin);
    1230:	7f e5 fb 78 	mr      r5,r31
    1234:	3c 82 ff fe 	addis   r4,r2,-2
    1238:	38 84 97 e8 	addi    r4,r4,-26648
    123c:	4b ff fb a5 	bl      de0 <0000001b.plt_call.fprintf@@GLIBC_2.4>
    1240:	e8 41 00 28 	ld      r2,40(r1)
# 		fclose(fp);
    1244:	60 00 00 00 	nop
    1248:	e8 62 82 80 	ld      r3,-32128(r2)
    124c:	4b ff fc d5 	bl      f20 <0000001b.plt_call.fclose@@GLIBC_2.3>
    1250:	e8 41 00 28 	ld      r2,40(r1)
# 		printf("Opening Direction file %s\n",path);
    1254:	3b c1 00 70 	addi    r30,r1,112
    1258:	7f c4 f3 78 	mr      r4,r30
    125c:	3c 62 ff fe 	addis   r3,r2,-2
    1260:	38 63 97 60 	addi    r3,r3,-26784
    1264:	4b ff fc 1d 	bl      e80 <0000001b.plt_call.printf@@GLIBC_2.4>
    1268:	e8 41 00 28 	ld      r2,40(r1)
# 		fp = fopen(path,"w");
    126c:	3c 82 ff fe 	addis   r4,r2,-2
    1270:	38 84 97 80 	addi    r4,r4,-26752
    1274:	7f c3 f3 78 	mr      r3,r30
    1278:	4b ff fc 89 	bl      f00 <0000001b.plt_call.fopen@@GLIBC_2.3>
    127c:	e8 41 00 28 	ld      r2,40(r1)
    1280:	f8 62 82 80 	std     r3,-32128(r2)
# 		if(!fp)
    1284:	2c 23 00 00 	cmpdi   r3,0
    1288:	41 82 00 28 	beq     12b0 <.io_init+0x1dc>
    128c:	eb a1 00 b8 	ld      r29,184(r1)
    1290:	4b ff fe b0 	b       1140 <.io_init+0x6c>
# 			printf("ERROR: Failed to export IO\n");
    1294:	3c 62 ff fe 	addis   r3,r2,-2
    1298:	38 63 97 c8 	addi    r3,r3,-26680
    129c:	4b ff fc a5 	bl      f40 <0000001b.plt_call.puts@@GLIBC_2.3>
    12a0:	e8 41 00 28 	ld      r2,40(r1)
# 			exit(-1);
    12a4:	38 60 ff ff 	li      r3,-1
    12a8:	4b ff fb b9 	bl      e60 <0000001b.plt_call.exit@@GLIBC_2.3>
    12ac:	e8 41 00 28 	ld      r2,40(r1)
# 			printf("ERROR: Failed to open GPIO direction\n");
    12b0:	3c 62 ff fe 	addis   r3,r2,-2
    12b4:	38 63 97 f0 	addi    r3,r3,-26640
    12b8:	4b ff fc 89 	bl      f40 <0000001b.plt_call.puts@@GLIBC_2.3>
    12bc:	e8 41 00 28 	ld      r2,40(r1)
# 			exit(-1);
    12c0:	38 60 ff ff 	li      r3,-1
    12c4:	4b ff fb 9d 	bl      e60 <0000001b.plt_call.exit@@GLIBC_2.3>
    12c8:	e8 41 00 28 	ld      r2,40(r1)
    12cc:	fb a1 00 b8 	std     r29,184(r1)
# 		printf("ERROR: Failed to open GPIO value\n");
    12d0:	3c 62 ff fe 	addis   r3,r2,-2
    12d4:	38 63 98 58 	addi    r3,r3,-26536
    12d8:	4b ff fc 69 	bl      f40 <0000001b.plt_call.puts@@GLIBC_2.3>
    12dc:	e8 41 00 28 	ld      r2,40(r1)
# 		exit(-1);
    12e0:	38 60 ff ff 	li      r3,-1
    12e4:	4b ff fb 7d 	bl      e60 <0000001b.plt_call.exit@@GLIBC_2.3>
    12e8:	e8 41 00 28 	ld      r2,40(r1)
    12ec:	00 00 00 00 	.long 0x0
    12f0:	00 00 00 01 	.long 0x1
    12f4:	80 03 00 00 	lwz     r0,0(r3)

00000000000012f8 <.io_write>:
# 
# void io_write(bool status)
# {
    12f8:	7c 08 02 a6 	mflr    r0
    12fc:	f8 01 00 10 	std     r0,16(r1)
    1300:	f8 21 ff 91 	stdu    r1,-112(r1)
# 	fprintf(fp,(status) ? "1" : "0");
    1304:	60 00 00 00 	nop
    1308:	e9 22 82 80 	ld      r9,-32128(r2)
    130c:	3c 82 ff fe 	addis   r4,r2,-2
    1310:	38 84 98 88 	addi    r4,r4,-26488
    1314:	2c 23 00 00 	cmpdi   r3,0
    1318:	41 82 00 0c 	beq     1324 <.io_write+0x2c>
    131c:	3c 82 ff fe 	addis   r4,r2,-2
    1320:	38 84 98 80 	addi    r4,r4,-26496
    1324:	7d 23 4b 78 	mr      r3,r9
    1328:	4b ff fa b9 	bl      de0 <0000001b.plt_call.fprintf@@GLIBC_2.4>
    132c:	e8 41 00 28 	ld      r2,40(r1)
# 	fflush(fp);
    1330:	60 00 00 00 	nop
    1334:	e8 62 82 80 	ld      r3,-32128(r2)
    1338:	4b ff fb 69 	bl      ea0 <0000001b.plt_call.fflush@@GLIBC_2.3>
    133c:	e8 41 00 28 	ld      r2,40(r1)
# }
    1340:	38 21 00 70 	addi    r1,r1,112
    1344:	e8 01 00 10 	ld      r0,16(r1)
    1348:	7c 08 03 a6 	mtlr    r0
    134c:	4e 80 00 20 	blr
    1350:	00 00 00 00 	.long 0x0
    1354:	00 00 00 01 	.long 0x1
    1358:	80 00 00 00 	lwz     r0,0(0)

000000000000135c <.fsleep>:
# 
# /* Float sleep function */
# void fsleep(double dur)
# {
    135c:	7c 08 02 a6 	mflr    r0
    1360:	f8 01 00 10 	std     r0,16(r1)
    1364:	f8 21 ff 81 	stdu    r1,-128(r1)
# 	struct timespec tim;
#    	tim.tv_sec = 0;
    1368:	39 20 00 00 	li      r9,0
    136c:	f9 21 00 70 	std     r9,112(r1)
#    	tim.tv_nsec = dur * 1000000000.0;
    1370:	3d 22 ff fe 	addis   r9,r2,-2
    1374:	c8 09 9a 00 	lfd     f0,-26112(r9)
    1378:	f0 01 01 81 	xsmuldp vs32,vs1,vs0
    137c:	f0 00 05 63 	xscvdpsxds vs32,vs32
    1380:	f4 01 00 7a 	stxsd   v0,120(r1)
# 	nanosleep(&tim , NULL);
    1384:	38 80 00 00 	li      r4,0
    1388:	38 61 00 70 	addi    r3,r1,112
    138c:	4b ff fa 95 	bl      e20 <0000001b.plt_call.nanosleep@@GLIBC_2.3>
    1390:	e8 41 00 28 	ld      r2,40(r1)
# }
    1394:	38 21 00 80 	addi    r1,r1,128
    1398:	e8 01 00 10 	ld      r0,16(r1)
    139c:	7c 08 03 a6 	mtlr    r0
    13a0:	4e 80 00 20 	blr
    13a4:	00 00 00 00 	.long 0x0
    13a8:	00 00 00 01 	.long 0x1
    13ac:	80 00 00 00 	lwz     r0,0(0)

00000000000013b0 <.morse_letter>:
#     "----.", //9
# };
# 
# /* Function is only correct for letters and numbers, nothing else */
# void morse_letter(const char let)
# {
    13b0:	7c 08 02 a6 	mflr    r0
    13b4:	f8 01 00 10 	std     r0,16(r1)
    13b8:	f8 21 ff 81 	stdu    r1,-128(r1)
# 	/* If it's a space, wait the space time and exit */
# 	if(let == ' ')
    13bc:	28 03 00 20 	cmplwi  r3,32
    13c0:	41 82 00 70 	beq     1430 <.morse_letter+0x80>
    13c4:	fb e1 00 78 	std     r31,120(r1)
    13c8:	7c 64 1b 78 	mr      r4,r3
# 		return;
# 	}
# 
# 	/* Find the string from the table */
# 	const char * pattern = ".";//Initialize to ensure it's always valid
# 	if(let >= '0' && let <= '9')
    13cc:	39 23 ff d0 	addi    r9,r3,-48
    13d0:	55 29 06 3e 	clrlwi  r9,r9,24
    13d4:	28 09 00 09 	cmplwi  r9,9
    13d8:	41 81 00 78 	bgt     1450 <.morse_letter+0xa0>
# 	{
# 		pattern = morse_tbl[let - '0' + 26]; //For numbers
    13dc:	39 23 ff ea 	addi    r9,r3,-22
    13e0:	7d 29 1e f4 	extswsli r9,r9,3
    13e4:	3d 42 ff ff 	addis   r10,r2,-1
    13e8:	39 4a 7b b8 	addi    r10,r10,31672
    13ec:	7f ea 48 2a 	ldx     r31,r10,r9
# 	else 
# 	{
# 		printf("Invalid Letter %c\n",let);
# 		return;
# 	}
# 	printf("Letter %c to morse %s\n",let,pattern);
    13f0:	7f e5 fb 78 	mr      r5,r31
    13f4:	3c 62 ff fe 	addis   r3,r2,-2
    13f8:	38 63 98 98 	addi    r3,r3,-26472
    13fc:	4b ff fa 85 	bl      e80 <0000001b.plt_call.printf@@GLIBC_2.4>
    1400:	e8 41 00 28 	ld      r2,40(r1)
# 
# 	/* Loop through remaining symbols and output them */
# 	while(pattern[0])
    1404:	89 3f 00 00 	lbz     r9,0(r31)
    1408:	2c 09 00 00 	cmpwi   r9,0
    140c:	40 82 00 8c 	bne     1498 <.morse_letter+0xe8>
# 		fsleep(time_space);
# 		/* Increment pointer */
# 		pattern++;
# 	};
# 	/* Wait additional character delay */
# 	fsleep(time_letter);
    1410:	3d 22 ff fe 	addis   r9,r2,-2
    1414:	c8 29 9a 20 	lfd     f1,-26080(r9)
    1418:	4b ff ff 45 	bl      135c <.fsleep>
    141c:	eb e1 00 78 	ld      r31,120(r1)
# }
    1420:	38 21 00 80 	addi    r1,r1,128
    1424:	e8 01 00 10 	ld      r0,16(r1)
    1428:	7c 08 03 a6 	mtlr    r0
    142c:	4e 80 00 20 	blr
# 		printf("Space\n");
    1430:	3c 62 ff fe 	addis   r3,r2,-2
    1434:	38 63 98 90 	addi    r3,r3,-26480
    1438:	4b ff fb 09 	bl      f40 <0000001b.plt_call.puts@@GLIBC_2.3>
    143c:	e8 41 00 28 	ld      r2,40(r1)
# 		fsleep(time_word);
    1440:	3d 22 ff fe 	addis   r9,r2,-2
    1444:	c8 29 9a 08 	lfd     f1,-26104(r9)
    1448:	4b ff ff 15 	bl      135c <.fsleep>
# 		return;
    144c:	4b ff ff d4 	b       1420 <.morse_letter+0x70>
# 		pattern = morse_tbl[(let & 0x1F) - 1]; //For letters
    1450:	54 69 06 fe 	clrlwi  r9,r3,27
    1454:	39 29 ff ff 	addi    r9,r9,-1
    1458:	7d 29 1e f4 	extswsli r9,r9,3
    145c:	3d 42 ff ff 	addis   r10,r2,-1
    1460:	39 4a 7b b8 	addi    r10,r10,31672
    1464:	7f ea 48 2a 	ldx     r31,r10,r9
    1468:	4b ff ff 88 	b       13f0 <.morse_letter+0x40>
# 			fsleep(time_dit);
    146c:	3d 22 ff fe 	addis   r9,r2,-2
    1470:	c8 29 9a 10 	lfd     f1,-26096(r9)
    1474:	4b ff fe e9 	bl      135c <.fsleep>
# 		io_write(0);
    1478:	38 60 00 00 	li      r3,0
    147c:	4b ff fe 7d 	bl      12f8 <.io_write>
# 		fsleep(time_space);
    1480:	3d 22 ff fe 	addis   r9,r2,-2
    1484:	c8 29 9a 10 	lfd     f1,-26096(r9)
    1488:	4b ff fe d5 	bl      135c <.fsleep>
# 	while(pattern[0])
    148c:	8d 3f 00 01 	lbzu    r9,1(r31)
    1490:	2c 09 00 00 	cmpwi   r9,0
    1494:	41 82 ff 7c 	beq     1410 <.morse_letter+0x60>
# 		io_write(1);
    1498:	38 60 00 01 	li      r3,1
    149c:	4b ff fe 5d 	bl      12f8 <.io_write>
# 		if(pattern[0] == '.')
    14a0:	89 3f 00 00 	lbz     r9,0(r31)
    14a4:	2c 09 00 2e 	cmpwi   r9,46
    14a8:	41 82 ff c4 	beq     146c <.morse_letter+0xbc>
# 			fsleep(time_dah);
    14ac:	3d 22 ff fe 	addis   r9,r2,-2
    14b0:	c8 29 9a 18 	lfd     f1,-26088(r9)
    14b4:	4b ff fe a9 	bl      135c <.fsleep>
    14b8:	4b ff ff c0 	b       1478 <.morse_letter+0xc8>
    14bc:	00 00 00 00 	.long 0x0
    14c0:	00 00 00 01 	.long 0x1
    14c4:	80 01 00 00 	lwz     r0,0(r1)

00000000000014c8 <.morse>:
# 
# /* Output a string in morse code */
# void morse(const char * string)
# {
    14c8:	fb e1 ff f8 	std     r31,-8(r1)
    14cc:	f8 21 ff 81 	stdu    r1,-128(r1)
    14d0:	7c 7f 1b 78 	mr      r31,r3
# 	/* Output all letters in the string */
# 	while(string[0])
    14d4:	88 63 00 00 	lbz     r3,0(r3)
    14d8:	70 69 00 ff 	andi.   r9,r3,255
    14dc:	41 82 00 28 	beq     1504 <.morse+0x3c>
    14e0:	7c 08 02 a6 	mflr    r0
    14e4:	f8 01 00 90 	std     r0,144(r1)
# 	{
# 		morse_letter(string[0]);
    14e8:	54 63 06 3e 	clrlwi  r3,r3,24
    14ec:	4b ff fe c5 	bl      13b0 <.morse_letter>
# 	while(string[0])
    14f0:	8c 7f 00 01 	lbzu    r3,1(r31)
    14f4:	70 69 00 ff 	andi.   r9,r3,255
    14f8:	40 82 ff f0 	bne     14e8 <.morse+0x20>
    14fc:	e8 01 00 90 	ld      r0,144(r1)
    1500:	7c 08 03 a6 	mtlr    r0
# 		string++;
# 	}
# }
    1504:	38 21 00 80 	addi    r1,r1,128
    1508:	eb e1 ff f8 	ld      r31,-8(r1)
    150c:	4e 80 00 20 	blr
    1510:	00 00 00 00 	.long 0x0
    1514:	00 00 00 01 	.long 0x1
    1518:	80 01 00 00 	lwz     r0,0(r1)

000000000000151c <.main>:
# int main (int argc, char** argv) {
    151c:	7c 08 02 a6 	mflr    r0
    1520:	f8 01 00 10 	std     r0,16(r1)
    1524:	f8 21 ff 91 	stdu    r1,-112(r1)
# 
#     printf("Hello from RISC-V!\n");
    1528:	3c 62 ff fe 	addis   r3,r2,-2
    152c:	38 63 98 b0 	addi    r3,r3,-26448
    1530:	4b ff fa 11 	bl      f40 <0000001b.plt_call.puts@@GLIBC_2.3>
    1534:	e8 41 00 28 	ld      r2,40(r1)
# 	io_init(blinky);
    1538:	38 60 01 b8 	li      r3,440
    153c:	4b ff fb 99 	bl      10d4 <.io_init>
# 	morse("Hello World from RISC V");
    1540:	3c 62 ff fe 	addis   r3,r2,-2
    1544:	38 63 98 c8 	addi    r3,r3,-26424
    1548:	4b ff ff 81 	bl      14c8 <.morse>
#     return 0;
    154c:	38 60 00 00 	li      r3,0
    1550:	38 21 00 70 	addi    r1,r1,112
    1554:	e8 01 00 10 	ld      r0,16(r1)
    1558:	7c 08 03 a6 	mtlr    r0
    155c:	4e 80 00 20 	blr
    1560:	00 00 00 00 	.long 0x0
    1564:	00 00 00 01 	.long 0x1
    1568:	80 00 00 00 	lwz     r0,0(0)
    156c:	60 00 00 00 	nop
    1570:	00 00 00 00 	.long 0x0
    1574:	00 01 ea 80 	.long 0x1ea80

0000000000001578 <__glink_PLTresolve>:
    1578:	7d 88 02 a6 	mflr    r12
    157c:	42 9f 00 05 	bcl     20,4*cr7+so,1580 <__glink_PLTresolve+0x8>
    1580:	7d 68 02 a6 	mflr    r11
    1584:	e8 4b ff f0 	ld      r2,-16(r11)
    1588:	7d 88 03 a6 	mtlr    r12
    158c:	7d 62 5a 14 	add     r11,r2,r11
    1590:	e9 8b 00 00 	ld      r12,0(r11)
    1594:	e8 4b 00 08 	ld      r2,8(r11)
    1598:	7d 89 03 a6 	mtctr   r12
    159c:	e9 6b 00 10 	ld      r11,16(r11)
    15a0:	4e 80 04 20 	bctr

00000000000015a4 <__libc_start_main@plt>:
    15a4:	38 00 00 00 	li      r0,0
    15a8:	4b ff ff d0 	b       1578 <__glink_PLTresolve>

00000000000015ac <printf@plt>:
    15ac:	38 00 00 01 	li      r0,1
    15b0:	4b ff ff c8 	b       1578 <__glink_PLTresolve>

00000000000015b4 <fclose@plt>:
    15b4:	38 00 00 02 	li      r0,2
    15b8:	4b ff ff c0 	b       1578 <__glink_PLTresolve>

00000000000015bc <fputc@plt>:
    15bc:	38 00 00 03 	li      r0,3
    15c0:	4b ff ff b8 	b       1578 <__glink_PLTresolve>

00000000000015c4 <__gmon_start__@plt>:
    15c4:	38 00 00 04 	li      r0,4
    15c8:	4b ff ff b0 	b       1578 <__glink_PLTresolve>

00000000000015cc <__cxa_finalize@plt>:
    15cc:	38 00 00 05 	li      r0,5
    15d0:	4b ff ff a8 	b       1578 <__glink_PLTresolve>

00000000000015d4 <fprintf@plt>:
    15d4:	38 00 00 06 	li      r0,6
    15d8:	4b ff ff a0 	b       1578 <__glink_PLTresolve>

00000000000015dc <fopen@plt>:
    15dc:	38 00 00 07 	li      r0,7
    15e0:	4b ff ff 98 	b       1578 <__glink_PLTresolve>

00000000000015e4 <fflush@plt>:
    15e4:	38 00 00 08 	li      r0,8
    15e8:	4b ff ff 90 	b       1578 <__glink_PLTresolve>

00000000000015ec <nanosleep@plt>:
    15ec:	38 00 00 09 	li      r0,9
    15f0:	4b ff ff 88 	b       1578 <__glink_PLTresolve>

00000000000015f4 <sprintf@plt>:
    15f4:	38 00 00 0a 	li      r0,10
    15f8:	4b ff ff 80 	b       1578 <__glink_PLTresolve>

00000000000015fc <fwrite@plt>:
    15fc:	38 00 00 0b 	li      r0,11
    1600:	4b ff ff 78 	b       1578 <__glink_PLTresolve>

0000000000001604 <puts@plt>:
    1604:	38 00 00 0c 	li      r0,12
    1608:	4b ff ff 70 	b       1578 <__glink_PLTresolve>

000000000000160c <exit@plt>:
    160c:	38 00 00 0d 	li      r0,13
    1610:	4b ff ff 68 	b       1578 <__glink_PLTresolve>

Disassembly of section .fini:

0000000000001614 <._fini>:
    1614:	7c 08 02 a6 	mflr    r0
    1618:	f8 01 00 10 	std     r0,16(r1)
    161c:	f8 21 ff 91 	stdu    r1,-112(r1)
    1620:	38 21 00 70 	addi    r1,r1,112
    1624:	e8 01 00 10 	ld      r0,16(r1)
    1628:	7c 08 03 a6 	mtlr    r0
    162c:	4e 80 00 20 	blr
Contents of the .eh_frame section (loaded from a.out):


00000000 0000000000000010 00000000 CIE
  Version:               1
  Augmentation:          "zR"
  Code alignment factor: 4
  Data alignment factor: -8
  Return address column: 65
  Augmentation data:     1b
  DW_CFA_def_cfa: r1 ofs 0

00000014 0000000000000014 00000018 FDE cie=00000000 pc=0000000000001578..0000000000001614
  DW_CFA_advance_loc: 8 to 0000000000001580
  DW_CFA_register: r65 in r12
  DW_CFA_advance_loc: 16 to 0000000000001590
  DW_CFA_restore_extended: r65

0000002c 0000000000000034 00000030 FDE cie=00000000 pc=00000000000010d4..00000000000012f8
  DW_CFA_advance_loc: 20 to 00000000000010e8
  DW_CFA_def_cfa_offset: 208
  DW_CFA_offset_extended_sf: r65 at cfa+16
  DW_CFA_offset: r30 at cfa-16
  DW_CFA_offset: r31 at cfa-8
  DW_CFA_advance_loc: 248 to 00000000000011e0
  DW_CFA_remember_state
  DW_CFA_def_cfa_offset: 0
  DW_CFA_advance_loc: 8 to 00000000000011e8
  DW_CFA_restore_extended: r65
  DW_CFA_advance_loc: 8 to 00000000000011f0
  DW_CFA_restore: r31
  DW_CFA_restore: r30
  DW_CFA_advance_loc: 4 to 00000000000011f4
  DW_CFA_restore_state
  DW_CFA_advance_loc: 4 to 00000000000011f8
  DW_CFA_offset: r29 at cfa-24
  DW_CFA_advance_loc: 152 to 0000000000001290
  DW_CFA_restore: r29
  DW_CFA_advance_loc: 4 to 0000000000001294
  DW_CFA_offset: r29 at cfa-24
  DW_CFA_advance_loc: 56 to 00000000000012cc
  DW_CFA_restore: r29
  DW_CFA_advance_loc: 4 to 00000000000012d0
  DW_CFA_offset: r29 at cfa-24
  DW_CFA_nop
  DW_CFA_nop
  DW_CFA_nop

00000064 000000000000001c 00000068 FDE cie=00000000 pc=00000000000012f8..000000000000135c
  DW_CFA_advance_loc: 12 to 0000000000001304
  DW_CFA_def_cfa_offset: 112
  DW_CFA_offset_extended_sf: r65 at cfa+16
  DW_CFA_advance_loc: 64 to 0000000000001344
  DW_CFA_def_cfa_offset: 0
  DW_CFA_advance_loc: 8 to 000000000000134c
  DW_CFA_restore_extended: r65
  DW_CFA_nop
  DW_CFA_nop
  DW_CFA_nop

00000084 000000000000001c 00000088 FDE cie=00000000 pc=000000000000135c..00000000000013b0
  DW_CFA_advance_loc: 12 to 0000000000001368
  DW_CFA_def_cfa_offset: 128
  DW_CFA_offset_extended_sf: r65 at cfa+16
  DW_CFA_advance_loc: 48 to 0000000000001398
  DW_CFA_def_cfa_offset: 0
  DW_CFA_advance_loc: 8 to 00000000000013a0
  DW_CFA_restore_extended: r65
  DW_CFA_nop
  DW_CFA_nop

000000a4 0000000000000028 000000a8 FDE cie=00000000 pc=00000000000013b0..00000000000014c8
  DW_CFA_advance_loc: 12 to 00000000000013bc
  DW_CFA_def_cfa_offset: 128
  DW_CFA_offset_extended_sf: r65 at cfa+16
  DW_CFA_advance_loc: 12 to 00000000000013c8
  DW_CFA_offset: r31 at cfa-8
  DW_CFA_advance_loc: 88 to 0000000000001420
  DW_CFA_restore: r31
  DW_CFA_advance_loc: 4 to 0000000000001424
  DW_CFA_remember_state
  DW_CFA_def_cfa_offset: 0
  DW_CFA_advance_loc: 8 to 000000000000142c
  DW_CFA_restore_extended: r65
  DW_CFA_advance_loc: 4 to 0000000000001430
  DW_CFA_restore_state
  DW_CFA_advance_loc: 32 to 0000000000001450
  DW_CFA_offset: r31 at cfa-8
  DW_CFA_nop
  DW_CFA_nop
  DW_CFA_nop

000000d0 0000000000000024 000000d4 FDE cie=00000000 pc=00000000000014c8..000000000000151c
  DW_CFA_advance_loc: 8 to 00000000000014d0
  DW_CFA_def_cfa_offset: 128
  DW_CFA_offset: r31 at cfa-8
  DW_CFA_advance_loc: 20 to 00000000000014e4
  DW_CFA_register: r65 in r0
  DW_CFA_advance_loc: 4 to 00000000000014e8
  DW_CFA_offset_extended_sf: r65 at cfa+16
  DW_CFA_advance_loc: 28 to 0000000000001504
  DW_CFA_restore_extended: r65
  DW_CFA_advance_loc: 4 to 0000000000001508
  DW_CFA_def_cfa_offset: 0
  DW_CFA_advance_loc: 4 to 000000000000150c
  DW_CFA_restore: r31
  DW_CFA_nop

000000f8 000000000000001c 000000fc FDE cie=00000000 pc=000000000000151c..000000000000156c
  DW_CFA_advance_loc: 12 to 0000000000001528
  DW_CFA_def_cfa_offset: 112
  DW_CFA_offset_extended_sf: r65 at cfa+16
  DW_CFA_advance_loc: 44 to 0000000000001554
  DW_CFA_def_cfa_offset: 0
  DW_CFA_advance_loc: 8 to 000000000000155c
  DW_CFA_restore_extended: r65
  DW_CFA_nop
  DW_CFA_nop
  DW_CFA_nop

00000118 ZERO terminator


Contents of the .debug_aranges section (loaded from a.out):

  Length:                   44
  Version:                  2
  Offset into .debug_info:  0
  Pointer Size:             8
  Segment Size:             0

    Address            Length
    00000000000010d4 0000000000000498
    0000000000000000 0000000000000000

Contents of the .debug_info section (loaded from a.out):

  Compilation Unit @ offset 0:
   Length:        0xa5b (32-bit)
   Version:       5
   Unit Type:     DW_UT_compile (1)
   Abbrev Offset: 0
   Pointer Size:  8
 <0><c>: Abbrev Number: 26 (DW_TAG_compile_unit)
    <d>   DW_AT_producer    : (indirect string, offset: 0x2e9): GNU C99 12.2.0 -msecure-plt -mcpu=power9 -g -O1 -std=gnu99 -fasynchronous-unwind-tables
    <11>   DW_AT_language    : 12	(ANSI C99)
    <12>   DW_AT_name        : (indirect string, offset: 0xdb): ../morse.c
    <16>   DW_AT_comp_dir    : (indirect string, offset: 0x2ba): /root/hello-world/powerpc64-linux-gnu
    <1a>   DW_AT_low_pc      : 0x10d4
    <22>   DW_AT_high_pc     : 0x498
    <2a>   DW_AT_stmt_list   : 0
 <1><2e>: Abbrev Number: 4 (DW_TAG_base_type)
    <2f>   DW_AT_byte_size   : 8
    <30>   DW_AT_encoding    : 4	(float)
    <31>   DW_AT_name        : (indirect string, offset: 0xf2): double
 <1><35>: Abbrev Number: 7 (DW_TAG_typedef)
    <36>   DW_AT_name        : (indirect string, offset: 0x26): size_t
    <3a>   DW_AT_decl_file   : 2
    <3b>   DW_AT_decl_line   : 214
    <3c>   DW_AT_decl_column : 23
    <3d>   DW_AT_type        : <0x41>
 <1><41>: Abbrev Number: 4 (DW_TAG_base_type)
    <42>   DW_AT_byte_size   : 8
    <43>   DW_AT_encoding    : 7	(unsigned)
    <44>   DW_AT_name        : (indirect string, offset: 0x55): long unsigned int
 <1><48>: Abbrev Number: 4 (DW_TAG_base_type)
    <49>   DW_AT_byte_size   : 1
    <4a>   DW_AT_encoding    : 8	(unsigned char)
    <4b>   DW_AT_name        : (indirect string, offset: 0x23c): char
 <1><4f>: Abbrev Number: 12 (DW_TAG_const_type)
    <50>   DW_AT_type        : <0x48>
 <1><54>: Abbrev Number: 4 (DW_TAG_base_type)
    <55>   DW_AT_byte_size   : 1
    <56>   DW_AT_encoding    : 8	(unsigned char)
    <57>   DW_AT_name        : (indirect string, offset: 0x233): unsigned char
 <1><5b>: Abbrev Number: 4 (DW_TAG_base_type)
    <5c>   DW_AT_byte_size   : 2
    <5d>   DW_AT_encoding    : 7	(unsigned)
    <5e>   DW_AT_name        : (indirect string, offset: 0x13b): short unsigned int
 <1><62>: Abbrev Number: 4 (DW_TAG_base_type)
    <63>   DW_AT_byte_size   : 4
    <64>   DW_AT_encoding    : 7	(unsigned)
    <65>   DW_AT_name        : (indirect string, offset: 0x5a): unsigned int
 <1><69>: Abbrev Number: 4 (DW_TAG_base_type)
    <6a>   DW_AT_byte_size   : 1
    <6b>   DW_AT_encoding    : 6	(signed char)
    <6c>   DW_AT_name        : (indirect string, offset: 0x235): signed char
 <1><70>: Abbrev Number: 4 (DW_TAG_base_type)
    <71>   DW_AT_byte_size   : 2
    <72>   DW_AT_encoding    : 5	(signed)
    <73>   DW_AT_name        : (indirect string, offset: 0x241): short int
 <1><77>: Abbrev Number: 27 (DW_TAG_base_type)
    <78>   DW_AT_byte_size   : 4
    <79>   DW_AT_encoding    : 5	(signed)
    <7a>   DW_AT_name        : int
 <1><7e>: Abbrev Number: 12 (DW_TAG_const_type)
    <7f>   DW_AT_type        : <0x77>
 <1><83>: Abbrev Number: 4 (DW_TAG_base_type)
    <84>   DW_AT_byte_size   : 8
    <85>   DW_AT_encoding    : 5	(signed)
    <86>   DW_AT_name        : (indirect string, offset: 0x76): long int
 <1><8a>: Abbrev Number: 7 (DW_TAG_typedef)
    <8b>   DW_AT_name        : (indirect string, offset: 0): __off_t
    <8f>   DW_AT_decl_file   : 3
    <90>   DW_AT_decl_line   : 152
    <91>   DW_AT_decl_column : 25
    <92>   DW_AT_type        : <0x83>
 <1><96>: Abbrev Number: 7 (DW_TAG_typedef)
    <97>   DW_AT_name        : (indirect string, offset: 0x287): __off64_t
    <9b>   DW_AT_decl_file   : 3
    <9c>   DW_AT_decl_line   : 153
    <9d>   DW_AT_decl_column : 27
    <9e>   DW_AT_type        : <0x83>
 <1><a2>: Abbrev Number: 7 (DW_TAG_typedef)
    <a3>   DW_AT_name        : (indirect string, offset: 0x2e0): __time_t
    <a7>   DW_AT_decl_file   : 3
    <a8>   DW_AT_decl_line   : 160
    <a9>   DW_AT_decl_column : 26
    <aa>   DW_AT_type        : <0x83>
 <1><ae>: Abbrev Number: 28 (DW_TAG_pointer_type)
    <af>   DW_AT_byte_size   : 8
 <1><b0>: Abbrev Number: 7 (DW_TAG_typedef)
    <b1>   DW_AT_name        : (indirect string, offset: 0x19c): __syscall_slong_t
    <b5>   DW_AT_decl_file   : 3
    <b6>   DW_AT_decl_line   : 197
    <b7>   DW_AT_decl_column : 33
    <b8>   DW_AT_type        : <0x83>
 <1><bc>: Abbrev Number: 6 (DW_TAG_pointer_type)
    <bd>   DW_AT_byte_size   : 8
    <bd>   DW_AT_type        : <0x48>
 <1><c1>: Abbrev Number: 21 (DW_TAG_structure_type)
    <c2>   DW_AT_name        : (indirect string, offset: 0x1d9): _IO_FILE
    <c6>   DW_AT_byte_size   : 216
    <c7>   DW_AT_decl_file   : 4
    <c8>   DW_AT_decl_line   : 49
    <c9>   DW_AT_decl_column : 8
    <c9>   DW_AT_sibling     : <0x247>
 <2><cd>: Abbrev Number: 2 (DW_TAG_member)
    <ce>   DW_AT_name        : (indirect string, offset: 0xbc): _flags
    <d2>   DW_AT_decl_file   : 4
    <d3>   DW_AT_decl_line   : 51
    <d4>   DW_AT_decl_column : 7
    <d5>   DW_AT_type        : <0x77>
    <d9>   DW_AT_data_member_location: 0
 <2><da>: Abbrev Number: 2 (DW_TAG_member)
    <db>   DW_AT_name        : (indirect string, offset: 0x8): _IO_read_ptr
    <df>   DW_AT_decl_file   : 4
    <e0>   DW_AT_decl_line   : 54
    <e1>   DW_AT_decl_column : 9
    <e2>   DW_AT_type        : <0xbc>
    <e6>   DW_AT_data_member_location: 8
 <2><e7>: Abbrev Number: 2 (DW_TAG_member)
    <e8>   DW_AT_name        : (indirect string, offset: 0xaf): _IO_read_end
    <ec>   DW_AT_decl_file   : 4
    <ed>   DW_AT_decl_line   : 55
    <ee>   DW_AT_decl_column : 9
    <ef>   DW_AT_type        : <0xbc>
    <f3>   DW_AT_data_member_location: 16
 <2><f4>: Abbrev Number: 2 (DW_TAG_member)
    <f5>   DW_AT_name        : (indirect string, offset: 0x291): _IO_read_base
    <f9>   DW_AT_decl_file   : 4
    <fa>   DW_AT_decl_line   : 56
    <fb>   DW_AT_decl_column : 9
    <fc>   DW_AT_type        : <0xbc>
    <100>   DW_AT_data_member_location: 24
 <2><101>: Abbrev Number: 2 (DW_TAG_member)
    <102>   DW_AT_name        : (indirect string, offset: 0x37e): _IO_write_base
    <106>   DW_AT_decl_file   : 4
    <107>   DW_AT_decl_line   : 57
    <108>   DW_AT_decl_column : 9
    <109>   DW_AT_type        : <0xbc>
    <10d>   DW_AT_data_member_location: 32
 <2><10e>: Abbrev Number: 2 (DW_TAG_member)
    <10f>   DW_AT_name        : (indirect string, offset: 0x12d): _IO_write_ptr
    <113>   DW_AT_decl_file   : 4
    <114>   DW_AT_decl_line   : 58
    <115>   DW_AT_decl_column : 9
    <116>   DW_AT_type        : <0xbc>
    <11a>   DW_AT_data_member_location: 40
 <2><11b>: Abbrev Number: 2 (DW_TAG_member)
    <11c>   DW_AT_name        : (indirect string, offset: 0x1ae): _IO_write_end
    <120>   DW_AT_decl_file   : 4
    <121>   DW_AT_decl_line   : 59
    <122>   DW_AT_decl_column : 9
    <123>   DW_AT_type        : <0xbc>
    <127>   DW_AT_data_member_location: 48
 <2><128>: Abbrev Number: 2 (DW_TAG_member)
    <129>   DW_AT_name        : (indirect string, offset: 0x43): _IO_buf_base
    <12d>   DW_AT_decl_file   : 4
    <12e>   DW_AT_decl_line   : 60
    <12f>   DW_AT_decl_column : 9
    <130>   DW_AT_type        : <0xbc>
    <134>   DW_AT_data_member_location: 56
 <2><135>: Abbrev Number: 2 (DW_TAG_member)
    <136>   DW_AT_name        : (indirect string, offset: 0xc3): _IO_buf_end
    <13a>   DW_AT_decl_file   : 4
    <13b>   DW_AT_decl_line   : 61
    <13c>   DW_AT_decl_column : 9
    <13d>   DW_AT_type        : <0xbc>
    <141>   DW_AT_data_member_location: 64
 <2><142>: Abbrev Number: 2 (DW_TAG_member)
    <143>   DW_AT_name        : (indirect string, offset: 0x14e): _IO_save_base
    <147>   DW_AT_decl_file   : 4
    <148>   DW_AT_decl_line   : 64
    <149>   DW_AT_decl_column : 9
    <14a>   DW_AT_type        : <0xbc>
    <14e>   DW_AT_data_member_location: 72
 <2><14f>: Abbrev Number: 2 (DW_TAG_member)
    <150>   DW_AT_name        : (indirect string, offset: 0x356): _IO_backup_base
    <154>   DW_AT_decl_file   : 4
    <155>   DW_AT_decl_line   : 65
    <156>   DW_AT_decl_column : 9
    <157>   DW_AT_type        : <0xbc>
    <15b>   DW_AT_data_member_location: 80
 <2><15c>: Abbrev Number: 2 (DW_TAG_member)
    <15d>   DW_AT_name        : (indirect string, offset: 0x29f): _IO_save_end
    <161>   DW_AT_decl_file   : 4
    <162>   DW_AT_decl_line   : 66
    <163>   DW_AT_decl_column : 9
    <164>   DW_AT_type        : <0xbc>
    <168>   DW_AT_data_member_location: 88
 <2><169>: Abbrev Number: 2 (DW_TAG_member)
    <16a>   DW_AT_name        : (indirect string, offset: 0x203): _markers
    <16e>   DW_AT_decl_file   : 4
    <16f>   DW_AT_decl_line   : 68
    <170>   DW_AT_decl_column : 22
    <171>   DW_AT_type        : <0x260>
    <175>   DW_AT_data_member_location: 96
 <2><176>: Abbrev Number: 2 (DW_TAG_member)
    <177>   DW_AT_name        : (indirect string, offset: 0x15): _chain
    <17b>   DW_AT_decl_file   : 4
    <17c>   DW_AT_decl_line   : 70
    <17d>   DW_AT_decl_column : 20
    <17e>   DW_AT_type        : <0x265>
    <182>   DW_AT_data_member_location: 104
 <2><183>: Abbrev Number: 2 (DW_TAG_member)
    <184>   DW_AT_name        : (indirect string, offset: 0x97): _fileno
    <188>   DW_AT_decl_file   : 4
    <189>   DW_AT_decl_line   : 72
    <18a>   DW_AT_decl_column : 7
    <18b>   DW_AT_type        : <0x77>
    <18f>   DW_AT_data_member_location: 112
 <2><190>: Abbrev Number: 2 (DW_TAG_member)
    <191>   DW_AT_name        : (indirect string, offset: 0x16a): _flags2
    <195>   DW_AT_decl_file   : 4
    <196>   DW_AT_decl_line   : 73
    <197>   DW_AT_decl_column : 7
    <198>   DW_AT_type        : <0x77>
    <19c>   DW_AT_data_member_location: 116
 <2><19d>: Abbrev Number: 2 (DW_TAG_member)
    <19e>   DW_AT_name        : (indirect string, offset: 0xf9): _old_offset
    <1a2>   DW_AT_decl_file   : 4
    <1a3>   DW_AT_decl_line   : 74
    <1a4>   DW_AT_decl_column : 11
    <1a5>   DW_AT_type        : <0x8a>
    <1a9>   DW_AT_data_member_location: 120
 <2><1aa>: Abbrev Number: 2 (DW_TAG_member)
    <1ab>   DW_AT_name        : (indirect string, offset: 0xcf): _cur_column
    <1af>   DW_AT_decl_file   : 4
    <1b0>   DW_AT_decl_line   : 77
    <1b1>   DW_AT_decl_column : 18
    <1b2>   DW_AT_type        : <0x5b>
    <1b6>   DW_AT_data_member_location: 128
 <2><1b7>: Abbrev Number: 2 (DW_TAG_member)
    <1b8>   DW_AT_name        : (indirect string, offset: 0x26c): _vtable_offset
    <1bc>   DW_AT_decl_file   : 4
    <1bd>   DW_AT_decl_line   : 78
    <1be>   DW_AT_decl_column : 15
    <1bf>   DW_AT_type        : <0x69>
    <1c3>   DW_AT_data_member_location: 130
 <2><1c4>: Abbrev Number: 2 (DW_TAG_member)
    <1c5>   DW_AT_name        : (indirect string, offset: 0x2d): _shortbuf
    <1c9>   DW_AT_decl_file   : 4
    <1ca>   DW_AT_decl_line   : 79
    <1cb>   DW_AT_decl_column : 8
    <1cc>   DW_AT_type        : <0x26a>
    <1d0>   DW_AT_data_member_location: 131
 <2><1d1>: Abbrev Number: 2 (DW_TAG_member)
    <1d2>   DW_AT_name        : (indirect string, offset: 0x15c): _lock
    <1d6>   DW_AT_decl_file   : 4
    <1d7>   DW_AT_decl_line   : 81
    <1d8>   DW_AT_decl_column : 15
    <1d9>   DW_AT_type        : <0x27a>
    <1dd>   DW_AT_data_member_location: 136
 <2><1de>: Abbrev Number: 2 (DW_TAG_member)
    <1df>   DW_AT_name        : (indirect string, offset: 0xfd): _offset
    <1e3>   DW_AT_decl_file   : 4
    <1e4>   DW_AT_decl_line   : 89
    <1e5>   DW_AT_decl_column : 13
    <1e6>   DW_AT_type        : <0x96>
    <1ea>   DW_AT_data_member_location: 144
 <2><1eb>: Abbrev Number: 2 (DW_TAG_member)
    <1ec>   DW_AT_name        : (indirect string, offset: 0xe9): _codecvt
    <1f0>   DW_AT_decl_file   : 4
    <1f1>   DW_AT_decl_line   : 91
    <1f2>   DW_AT_decl_column : 23
    <1f3>   DW_AT_type        : <0x284>
    <1f7>   DW_AT_data_member_location: 152
 <2><1f8>: Abbrev Number: 2 (DW_TAG_member)
    <1f9>   DW_AT_name        : (indirect string, offset: 0x24e): _wide_data
    <1fd>   DW_AT_decl_file   : 4
    <1fe>   DW_AT_decl_line   : 92
    <1ff>   DW_AT_decl_column : 25
    <200>   DW_AT_type        : <0x28e>
    <204>   DW_AT_data_member_location: 160
 <2><205>: Abbrev Number: 2 (DW_TAG_member)
    <206>   DW_AT_name        : (indirect string, offset: 0x36b): _freeres_list
    <20a>   DW_AT_decl_file   : 4
    <20b>   DW_AT_decl_line   : 93
    <20c>   DW_AT_decl_column : 20
    <20d>   DW_AT_type        : <0x265>
    <211>   DW_AT_data_member_location: 168
 <2><212>: Abbrev Number: 2 (DW_TAG_member)
    <213>   DW_AT_name        : (indirect string, offset: 0x118): _freeres_buf
    <217>   DW_AT_decl_file   : 4
    <218>   DW_AT_decl_line   : 94
    <219>   DW_AT_decl_column : 9
    <21a>   DW_AT_type        : <0xae>
    <21e>   DW_AT_data_member_location: 176
 <2><21f>: Abbrev Number: 2 (DW_TAG_member)
    <220>   DW_AT_name        : (indirect string, offset: 0x2b3): __pad5
    <224>   DW_AT_decl_file   : 4
    <225>   DW_AT_decl_line   : 95
    <226>   DW_AT_decl_column : 10
    <227>   DW_AT_type        : <0x35>
    <22b>   DW_AT_data_member_location: 184
 <2><22c>: Abbrev Number: 2 (DW_TAG_member)
    <22d>   DW_AT_name        : (indirect string, offset: 0x172): _mode
    <231>   DW_AT_decl_file   : 4
    <232>   DW_AT_decl_line   : 96
    <233>   DW_AT_decl_column : 7
    <234>   DW_AT_type        : <0x77>
    <238>   DW_AT_data_member_location: 192
 <2><239>: Abbrev Number: 2 (DW_TAG_member)
    <23a>   DW_AT_name        : (indirect string, offset: 0x341): _unused2
    <23e>   DW_AT_decl_file   : 4
    <23f>   DW_AT_decl_line   : 98
    <240>   DW_AT_decl_column : 8
    <241>   DW_AT_type        : <0x293>
    <245>   DW_AT_data_member_location: 196
 <2><246>: Abbrev Number: 0
 <1><247>: Abbrev Number: 7 (DW_TAG_typedef)
    <248>   DW_AT_name        : (indirect string, offset: 0x1dd): FILE
    <24c>   DW_AT_decl_file   : 5
    <24d>   DW_AT_decl_line   : 7
    <24e>   DW_AT_decl_column : 25
    <24f>   DW_AT_type        : <0xc1>
 <1><253>: Abbrev Number: 29 (DW_TAG_typedef)
    <254>   DW_AT_name        : (indirect string, offset: 0x1c5): _IO_lock_t
    <258>   DW_AT_decl_file   : 4
    <259>   DW_AT_decl_line   : 43
    <25a>   DW_AT_decl_column : 14
 <1><25b>: Abbrev Number: 17 (DW_TAG_structure_type)
    <25c>   DW_AT_name        : (indirect string, offset: 0x10d): _IO_marker
    <260>   DW_AT_declaration : 1
 <1><260>: Abbrev Number: 6 (DW_TAG_pointer_type)
    <261>   DW_AT_byte_size   : 8
    <261>   DW_AT_type        : <0x25b>
 <1><265>: Abbrev Number: 6 (DW_TAG_pointer_type)
    <266>   DW_AT_byte_size   : 8
    <266>   DW_AT_type        : <0xc1>
 <1><26a>: Abbrev Number: 13 (DW_TAG_array_type)
    <26b>   DW_AT_type        : <0x48>
    <26f>   DW_AT_sibling     : <0x27a>
 <2><273>: Abbrev Number: 14 (DW_TAG_subrange_type)
    <274>   DW_AT_type        : <0x41>
    <278>   DW_AT_upper_bound : 0
 <2><279>: Abbrev Number: 0
 <1><27a>: Abbrev Number: 6 (DW_TAG_pointer_type)
    <27b>   DW_AT_byte_size   : 8
    <27b>   DW_AT_type        : <0x253>
 <1><27f>: Abbrev Number: 17 (DW_TAG_structure_type)
    <280>   DW_AT_name        : (indirect string, offset: 0xe6): _IO_codecvt
    <284>   DW_AT_declaration : 1
 <1><284>: Abbrev Number: 6 (DW_TAG_pointer_type)
    <285>   DW_AT_byte_size   : 8
    <285>   DW_AT_type        : <0x27f>
 <1><289>: Abbrev Number: 17 (DW_TAG_structure_type)
    <28a>   DW_AT_name        : (indirect string, offset: 0x24b): _IO_wide_data
    <28e>   DW_AT_declaration : 1
 <1><28e>: Abbrev Number: 6 (DW_TAG_pointer_type)
    <28f>   DW_AT_byte_size   : 8
    <28f>   DW_AT_type        : <0x289>
 <1><293>: Abbrev Number: 13 (DW_TAG_array_type)
    <294>   DW_AT_type        : <0x48>
    <298>   DW_AT_sibling     : <0x2a3>
 <2><29c>: Abbrev Number: 14 (DW_TAG_subrange_type)
    <29d>   DW_AT_type        : <0x41>
    <2a1>   DW_AT_upper_bound : 19
 <2><2a2>: Abbrev Number: 0
 <1><2a3>: Abbrev Number: 6 (DW_TAG_pointer_type)
    <2a4>   DW_AT_byte_size   : 8
    <2a4>   DW_AT_type        : <0x247>
 <1><2a8>: Abbrev Number: 22 (DW_TAG_restrict_type)
    <2a9>   DW_AT_type        : <0x2a3>
 <1><2ad>: Abbrev Number: 4 (DW_TAG_base_type)
    <2ae>   DW_AT_byte_size   : 8
    <2af>   DW_AT_encoding    : 5	(signed)
    <2b0>   DW_AT_name        : (indirect string, offset: 0x71): long long int
 <1><2b4>: Abbrev Number: 21 (DW_TAG_structure_type)
    <2b5>   DW_AT_name        : (indirect string, offset: 0x263): timespec
    <2b9>   DW_AT_byte_size   : 16
    <2ba>   DW_AT_decl_file   : 6
    <2bb>   DW_AT_decl_line   : 11
    <2bc>   DW_AT_decl_column : 8
    <2bc>   DW_AT_sibling     : <0x2db>
 <2><2c0>: Abbrev Number: 2 (DW_TAG_member)
    <2c1>   DW_AT_name        : (indirect string, offset: 0x195): tv_sec
    <2c5>   DW_AT_decl_file   : 6
    <2c6>   DW_AT_decl_line   : 16
    <2c7>   DW_AT_decl_column : 12
    <2c8>   DW_AT_type        : <0xa2>
    <2cc>   DW_AT_data_member_location: 0
 <2><2cd>: Abbrev Number: 2 (DW_TAG_member)
    <2ce>   DW_AT_name        : (indirect string, offset: 0x18d): tv_nsec
    <2d2>   DW_AT_decl_file   : 6
    <2d3>   DW_AT_decl_line   : 21
    <2d4>   DW_AT_decl_column : 21
    <2d5>   DW_AT_type        : <0xb0>
    <2d9>   DW_AT_data_member_location: 8
 <2><2da>: Abbrev Number: 0
 <1><2db>: Abbrev Number: 12 (DW_TAG_const_type)
    <2dc>   DW_AT_type        : <0x2b4>
 <1><2e0>: Abbrev Number: 4 (DW_TAG_base_type)
    <2e1>   DW_AT_byte_size   : 8
    <2e2>   DW_AT_encoding    : 7	(unsigned)
    <2e3>   DW_AT_name        : (indirect string, offset: 0x50): long long unsigned int
 <1><2e7>: Abbrev Number: 6 (DW_TAG_pointer_type)
    <2e8>   DW_AT_byte_size   : 8
    <2e8>   DW_AT_type        : <0x4f>
 <1><2ec>: Abbrev Number: 22 (DW_TAG_restrict_type)
    <2ed>   DW_AT_type        : <0x2e7>
 <1><2f1>: Abbrev Number: 30 (DW_TAG_variable)
    <2f2>   DW_AT_name        : (indirect string, offset: 0x90): blinky
    <2f6>   DW_AT_decl_file   : 1
    <2f7>   DW_AT_decl_line   : 12
    <2f8>   DW_AT_decl_column : 18
    <2f9>   DW_AT_type        : <0x7e>
    <2fd>   DW_AT_const_value : 440
 <1><2ff>: Abbrev Number: 23 (DW_TAG_variable)
    <300>   DW_AT_name        : fp
    <303>   DW_AT_decl_file   : 1
    <303>   DW_AT_decl_line   : 17
    <304>   DW_AT_decl_column : 14
    <305>   DW_AT_type        : <0x2a3>
    <309>   DW_AT_location    : 9 byte block: 3 0 0 0 0 0 2 1 80 	(DW_OP_addr: 20180)
 <1><313>: Abbrev Number: 9 (DW_TAG_variable)
    <314>   DW_AT_name        : (indirect string, offset: 0x219): time_dit
    <318>   DW_AT_decl_file   : 1
    <318>   DW_AT_decl_line   : 85
    <319>   DW_AT_decl_column : 21
    <319>   DW_AT_type        : <0x326>
    <31d>   DW_AT_const_value : 8 byte block: 3f d5 1e b8 51 eb 85 1f 
 <1><326>: Abbrev Number: 12 (DW_TAG_const_type)
    <327>   DW_AT_type        : <0x2e>
 <1><32b>: Abbrev Number: 9 (DW_TAG_variable)
    <32c>   DW_AT_name        : (indirect string, offset: 0x1bc): time_dah
    <330>   DW_AT_decl_file   : 1
    <330>   DW_AT_decl_line   : 86
    <331>   DW_AT_decl_column : 21
    <331>   DW_AT_type        : <0x326>
    <335>   DW_AT_const_value : 8 byte block: 3f ef ae 14 7a e1 47 ae 
 <1><33e>: Abbrev Number: 9 (DW_TAG_variable)
    <33f>   DW_AT_name        : (indirect string, offset: 0x222): time_space
    <343>   DW_AT_decl_file   : 1
    <343>   DW_AT_decl_line   : 88
    <344>   DW_AT_decl_column : 21
    <344>   DW_AT_type        : <0x326>
    <348>   DW_AT_const_value : 8 byte block: 3f d5 1e b8 51 eb 85 1f 
 <1><351>: Abbrev Number: 9 (DW_TAG_variable)
    <352>   DW_AT_name        : (indirect string, offset: 0x1e2): time_letter
    <356>   DW_AT_decl_file   : 1
    <356>   DW_AT_decl_line   : 90
    <357>   DW_AT_decl_column : 21
    <357>   DW_AT_type        : <0x326>
    <35b>   DW_AT_const_value : 8 byte block: 3f e5 1e b8 51 eb 85 1f 
 <1><364>: Abbrev Number: 9 (DW_TAG_variable)
    <365>   DW_AT_name        : (indirect string, offset: 0x1c): time_word
    <369>   DW_AT_decl_file   : 1
    <369>   DW_AT_decl_line   : 92
    <36a>   DW_AT_decl_column : 21
    <36a>   DW_AT_type        : <0x326>
    <36e>   DW_AT_const_value : 8 byte block: 3f f5 1e b8 51 eb 85 1f 
 <1><377>: Abbrev Number: 13 (DW_TAG_array_type)
    <378>   DW_AT_type        : <0x2e7>
    <37c>   DW_AT_sibling     : <0x387>
 <2><380>: Abbrev Number: 14 (DW_TAG_subrange_type)
    <381>   DW_AT_type        : <0x41>
    <385>   DW_AT_upper_bound : 35
 <2><386>: Abbrev Number: 0
 <1><387>: Abbrev Number: 24 (DW_TAG_variable)
    <388>   DW_AT_name        : (indirect string, offset: 0x259): morse_tbl
    <38c>   DW_AT_decl_file   : 1
    <38c>   DW_AT_decl_line   : 100
    <38d>   DW_AT_decl_column : 20
    <38e>   DW_AT_type        : <0x377>
    <392>   DW_AT_location    : 9 byte block: 3 0 0 0 0 0 1 fa b8 	(DW_OP_addr: 1fab8)
 <1><39c>: Abbrev Number: 10 (DW_TAG_subprogram)
    <39d>   DW_AT_external    : 1
    <39d>   DW_AT_name        : (indirect string, offset: 0x67): nanosleep
    <3a1>   DW_AT_decl_file   : 7
    <3a2>   DW_AT_decl_line   : 281
    <3a4>   DW_AT_decl_column : 12
    <3a5>   DW_AT_prototyped  : 1
    <3a5>   DW_AT_type        : <0x77>
    <3a9>   DW_AT_declaration : 1
    <3a9>   DW_AT_sibling     : <0x3b8>
 <2><3ad>: Abbrev Number: 5 (DW_TAG_formal_parameter)
    <3ae>   DW_AT_type        : <0x3b8>
 <2><3b2>: Abbrev Number: 5 (DW_TAG_formal_parameter)
    <3b3>   DW_AT_type        : <0x3bd>
 <2><3b7>: Abbrev Number: 0
 <1><3b8>: Abbrev Number: 6 (DW_TAG_pointer_type)
    <3b9>   DW_AT_byte_size   : 8
    <3b9>   DW_AT_type        : <0x2db>
 <1><3bd>: Abbrev Number: 6 (DW_TAG_pointer_type)
    <3be>   DW_AT_byte_size   : 8
    <3be>   DW_AT_type        : <0x2b4>
 <1><3c2>: Abbrev Number: 25 (DW_TAG_subprogram)
    <3c3>   DW_AT_external    : 1
    <3c3>   DW_AT_name        : (indirect string, offset: 0x1fc): fflush
    <3c7>   DW_AT_decl_file   : 8
    <3c7>   DW_AT_decl_line   : 230
    <3c8>   DW_AT_decl_column : 12
    <3c8>   DW_AT_prototyped  : 1
    <3c8>   DW_AT_type        : <0x77>
    <3cc>   DW_AT_declaration : 1
    <3cc>   DW_AT_sibling     : <0x3d6>
 <2><3d0>: Abbrev Number: 5 (DW_TAG_formal_parameter)
    <3d1>   DW_AT_type        : <0x2a3>
 <2><3d5>: Abbrev Number: 0
 <1><3d6>: Abbrev Number: 25 (DW_TAG_subprogram)
    <3d7>   DW_AT_external    : 1
    <3d7>   DW_AT_name        : (indirect string, offset: 0x280): fclose
    <3db>   DW_AT_decl_file   : 8
    <3db>   DW_AT_decl_line   : 178
    <3dc>   DW_AT_decl_column : 12
    <3dc>   DW_AT_prototyped  : 1
    <3dc>   DW_AT_type        : <0x77>
    <3e0>   DW_AT_declaration : 1
    <3e0>   DW_AT_sibling     : <0x3ea>
 <2><3e4>: Abbrev Number: 5 (DW_TAG_formal_parameter)
    <3e5>   DW_AT_type        : <0x2a3>
 <2><3e9>: Abbrev Number: 0
 <1><3ea>: Abbrev Number: 10 (DW_TAG_subprogram)
    <3eb>   DW_AT_external    : 1
    <3eb>   DW_AT_name        : (indirect string, offset: 0x125): fprintf
    <3ef>   DW_AT_decl_file   : 8
    <3f0>   DW_AT_decl_line   : 350
    <3f2>   DW_AT_decl_column : 12
    <3f3>   DW_AT_prototyped  : 1
    <3f3>   DW_AT_type        : <0x77>
    <3f7>   DW_AT_declaration : 1
    <3f7>   DW_AT_sibling     : <0x407>
 <2><3fb>: Abbrev Number: 5 (DW_TAG_formal_parameter)
    <3fc>   DW_AT_type        : <0x2a8>
 <2><400>: Abbrev Number: 5 (DW_TAG_formal_parameter)
    <401>   DW_AT_type        : <0x2ec>
 <2><405>: Abbrev Number: 18 (DW_TAG_unspecified_parameters)
 <2><406>: Abbrev Number: 0
 <1><407>: Abbrev Number: 31 (DW_TAG_subprogram)
    <408>   DW_AT_external    : 1
    <408>   DW_AT_name        : (indirect string, offset: 0x27b): exit
    <40c>   DW_AT_decl_file   : 9
    <40d>   DW_AT_decl_line   : 637
    <40f>   DW_AT_decl_column : 13
    <410>   DW_AT_prototyped  : 1
    <410>   DW_AT_noreturn    : 1
    <410>   DW_AT_declaration : 1
    <410>   DW_AT_sibling     : <0x41a>
 <2><414>: Abbrev Number: 5 (DW_TAG_formal_parameter)
    <415>   DW_AT_type        : <0x77>
 <2><419>: Abbrev Number: 0
 <1><41a>: Abbrev Number: 10 (DW_TAG_subprogram)
    <41b>   DW_AT_external    : 1
    <41b>   DW_AT_name        : (indirect string, offset: 0x1f6): fopen
    <41f>   DW_AT_decl_file   : 8
    <420>   DW_AT_decl_line   : 258
    <422>   DW_AT_decl_column : 14
    <423>   DW_AT_prototyped  : 1
    <423>   DW_AT_type        : <0x2a3>
    <427>   DW_AT_declaration : 1
    <427>   DW_AT_sibling     : <0x436>
 <2><42b>: Abbrev Number: 5 (DW_TAG_formal_parameter)
    <42c>   DW_AT_type        : <0x2ec>
 <2><430>: Abbrev Number: 5 (DW_TAG_formal_parameter)
    <431>   DW_AT_type        : <0x2ec>
 <2><435>: Abbrev Number: 0
 <1><436>: Abbrev Number: 10 (DW_TAG_subprogram)
    <437>   DW_AT_external    : 1
    <437>   DW_AT_name        : (indirect string, offset: 0x126): printf
    <43b>   DW_AT_decl_file   : 8
    <43c>   DW_AT_decl_line   : 356
    <43e>   DW_AT_decl_column : 12
    <43f>   DW_AT_prototyped  : 1
    <43f>   DW_AT_type        : <0x77>
    <443>   DW_AT_declaration : 1
    <443>   DW_AT_sibling     : <0x44e>
 <2><447>: Abbrev Number: 5 (DW_TAG_formal_parameter)
    <448>   DW_AT_type        : <0x2e7>
 <2><44c>: Abbrev Number: 18 (DW_TAG_unspecified_parameters)
 <2><44d>: Abbrev Number: 0
 <1><44e>: Abbrev Number: 10 (DW_TAG_subprogram)
    <44f>   DW_AT_external    : 1
    <44f>   DW_AT_name        : (indirect string, offset: 0x162): sprintf
    <453>   DW_AT_decl_file   : 8
    <454>   DW_AT_decl_line   : 358
    <456>   DW_AT_decl_column : 12
    <457>   DW_AT_prototyped  : 1
    <457>   DW_AT_type        : <0x77>
    <45b>   DW_AT_declaration : 1
    <45b>   DW_AT_sibling     : <0x46b>
 <2><45f>: Abbrev Number: 5 (DW_TAG_formal_parameter)
    <460>   DW_AT_type        : <0xbc>
 <2><464>: Abbrev Number: 5 (DW_TAG_formal_parameter)
    <465>   DW_AT_type        : <0x2e7>
 <2><469>: Abbrev Number: 18 (DW_TAG_unspecified_parameters)
 <2><46a>: Abbrev Number: 0
 <1><46b>: Abbrev Number: 32 (DW_TAG_subprogram)
    <46c>   DW_AT_external    : 1
    <46c>   DW_AT_name        : (indirect string, offset: 0x379): main
    <470>   DW_AT_decl_file   : 1
    <471>   DW_AT_decl_line   : 201
    <472>   DW_AT_decl_column : 5
    <473>   DW_AT_prototyped  : 1
    <473>   DW_AT_type        : <0x77>
    <477>   DW_AT_low_pc      : 0x151c
    <47f>   DW_AT_high_pc     : 0x50
    <487>   DW_AT_frame_base  : 1 byte block: 9c 	(DW_OP_call_frame_cfa)
    <489>   DW_AT_call_all_calls: 1
    <489>   DW_AT_sibling     : <0x507>
 <2><48d>: Abbrev Number: 15 (DW_TAG_formal_parameter)
    <48e>   DW_AT_name        : (indirect string, offset: 0x366): argc
    <492>   DW_AT_decl_file   : 1
    <492>   DW_AT_decl_line   : 201
    <493>   DW_AT_decl_column : 15
    <494>   DW_AT_type        : <0x77>
    <498>   DW_AT_location    : 0x10 (location list)
    <49c>   DW_AT_GNU_locviews: 0xc
 <2><4a0>: Abbrev Number: 15 (DW_TAG_formal_parameter)
    <4a1>   DW_AT_name        : (indirect string, offset: 0x34a): argv
    <4a5>   DW_AT_decl_file   : 1
    <4a5>   DW_AT_decl_line   : 201
    <4a6>   DW_AT_decl_column : 28
    <4a7>   DW_AT_type        : <0x507>
    <4ab>   DW_AT_location    : 0x26 (location list)
    <4af>   DW_AT_GNU_locviews: 0x22
 <2><4b3>: Abbrev Number: 3 (DW_TAG_call_site)
    <4b4>   DW_AT_call_return_pc: 0x1538
    <4bc>   DW_AT_call_origin : <0xa43>
    <4c0>   DW_AT_sibling     : <0x4d2>
 <3><4c4>: Abbrev Number: 1 (DW_TAG_call_site_parameter)
    <4c5>   DW_AT_location    : 1 byte block: 53 	(DW_OP_reg3 (r3))
    <4c7>   DW_AT_call_value  : 9 byte block: 3 0 0 0 0 0 0 17 b0 	(DW_OP_addr: 17b0)
 <3><4d1>: Abbrev Number: 0
 <2><4d2>: Abbrev Number: 3 (DW_TAG_call_site)
    <4d3>   DW_AT_call_return_pc: 0x1540
    <4db>   DW_AT_call_origin : <0x74d>
    <4df>   DW_AT_sibling     : <0x4eb>
 <3><4e3>: Abbrev Number: 1 (DW_TAG_call_site_parameter)
    <4e4>   DW_AT_location    : 1 byte block: 53 	(DW_OP_reg3 (r3))
    <4e6>   DW_AT_call_value  : 3 byte block: a 1 b8 	(DW_OP_const2u: 440)
 <3><4ea>: Abbrev Number: 0
 <2><4eb>: Abbrev Number: 16 (DW_TAG_call_site)
    <4ec>   DW_AT_call_return_pc: 0x154c
    <4f4>   DW_AT_call_origin : <0x50c>
 <3><4f8>: Abbrev Number: 1 (DW_TAG_call_site_parameter)
    <4f9>   DW_AT_location    : 1 byte block: 53 	(DW_OP_reg3 (r3))
    <4fb>   DW_AT_call_value  : 9 byte block: 3 0 0 0 0 0 0 17 c8 	(DW_OP_addr: 17c8)
 <3><505>: Abbrev Number: 0
 <2><506>: Abbrev Number: 0
 <1><507>: Abbrev Number: 6 (DW_TAG_pointer_type)
    <508>   DW_AT_byte_size   : 8
    <508>   DW_AT_type        : <0xbc>
 <1><50c>: Abbrev Number: 11 (DW_TAG_subprogram)
    <50d>   DW_AT_external    : 1
    <50d>   DW_AT_name        : (indirect string, offset: 0x187): morse
    <511>   DW_AT_decl_file   : 1
    <511>   DW_AT_decl_line   : 192
    <512>   DW_AT_decl_column : 6
    <512>   DW_AT_prototyped  : 1
    <512>   DW_AT_low_pc      : 0x14c8
    <51a>   DW_AT_high_pc     : 0x54
    <522>   DW_AT_frame_base  : 1 byte block: 9c 	(DW_OP_call_frame_cfa)
    <524>   DW_AT_call_all_calls: 1
    <524>   DW_AT_sibling     : <0x549>
 <2><528>: Abbrev Number: 15 (DW_TAG_formal_parameter)
    <529>   DW_AT_name        : (indirect string, offset: 0x37): string
    <52d>   DW_AT_decl_file   : 1
    <52d>   DW_AT_decl_line   : 192
    <52e>   DW_AT_decl_column : 25
    <52f>   DW_AT_type        : <0x2e7>
    <533>   DW_AT_location    : 0x40 (location list)
    <537>   DW_AT_GNU_locviews: 0x38
 <2><53b>: Abbrev Number: 8 (DW_TAG_call_site)
    <53c>   DW_AT_call_return_pc: 0x14f0
    <544>   DW_AT_call_origin : <0x549>
 <2><548>: Abbrev Number: 0
 <1><549>: Abbrev Number: 11 (DW_TAG_subprogram)
    <54a>   DW_AT_external    : 1
    <54a>   DW_AT_name        : (indirect string, offset: 0x20c): morse_letter
    <54e>   DW_AT_decl_file   : 1
    <54e>   DW_AT_decl_line   : 140
    <54f>   DW_AT_decl_column : 6
    <54f>   DW_AT_prototyped  : 1
    <54f>   DW_AT_low_pc      : 0x13b0
    <557>   DW_AT_high_pc     : 0x118
    <55f>   DW_AT_frame_base  : 1 byte block: 9c 	(DW_OP_call_frame_cfa)
    <561>   DW_AT_call_all_calls: 1
    <561>   DW_AT_sibling     : <0x6a5>
 <2><565>: Abbrev Number: 19 (DW_TAG_formal_parameter)
    <566>   DW_AT_name        : let
    <56a>   DW_AT_decl_file   : 1
    <56a>   DW_AT_decl_line   : 140
    <56b>   DW_AT_decl_column : 30
    <56c>   DW_AT_type        : <0x4f>
    <570>   DW_AT_location    : 0x6b (location list)
    <574>   DW_AT_GNU_locviews: 0x5f
 <2><578>: Abbrev Number: 33 (DW_TAG_variable)
    <579>   DW_AT_name        : (indirect string, offset: 0x1ee): pattern
    <57d>   DW_AT_decl_file   : 1
    <57e>   DW_AT_decl_line   : 151
    <57f>   DW_AT_decl_column : 15
    <580>   DW_AT_type        : <0x2e7>
    <584>   DW_AT_location    : 0xab (location list)
    <588>   DW_AT_GNU_locviews: 0x9f
 <2><58c>: Abbrev Number: 3 (DW_TAG_call_site)
    <58d>   DW_AT_call_return_pc: 0x1404
    <595>   DW_AT_call_origin : <0x436>
    <599>   DW_AT_sibling     : <0x5b1>
 <3><59d>: Abbrev Number: 1 (DW_TAG_call_site_parameter)
    <59e>   DW_AT_location    : 1 byte block: 53 	(DW_OP_reg3 (r3))
    <5a0>   DW_AT_call_value  : 9 byte block: 3 0 0 0 0 0 0 17 98 	(DW_OP_addr: 1798)
 <3><5aa>: Abbrev Number: 1 (DW_TAG_call_site_parameter)
    <5ab>   DW_AT_location    : 1 byte block: 55 	(DW_OP_reg5 (r5))
    <5ad>   DW_AT_call_value  : 2 byte block: 8f 0 	(DW_OP_breg31 (r31): 0)
 <3><5b0>: Abbrev Number: 0
 <2><5b1>: Abbrev Number: 3 (DW_TAG_call_site)
    <5b2>   DW_AT_call_return_pc: 0x141c
    <5ba>   DW_AT_call_origin : <0x6a5>
    <5be>   DW_AT_sibling     : <0x5d3>
 <3><5c2>: Abbrev Number: 1 (DW_TAG_call_site_parameter)
    <5c3>   DW_AT_location    : 2 byte block: 90 21 	(DW_OP_regx: 33 (r33))
    <5c6>   DW_AT_call_value  : 11 byte block: a4 2e 8 3f e5 1e b8 51 eb 85 1f 	(DW_OP_const_type: <0x2e>  8 byte block: 3f e5 1e b8 51 eb 85 1f )
 <3><5d2>: Abbrev Number: 0
 <2><5d3>: Abbrev Number: 3 (DW_TAG_call_site)
    <5d4>   DW_AT_call_return_pc: 0x1440
    <5dc>   DW_AT_call_origin : <0xa43>
    <5e0>   DW_AT_sibling     : <0x5f2>
 <3><5e4>: Abbrev Number: 1 (DW_TAG_call_site_parameter)
    <5e5>   DW_AT_location    : 1 byte block: 53 	(DW_OP_reg3 (r3))
    <5e7>   DW_AT_call_value  : 9 byte block: 3 0 0 0 0 0 0 17 90 	(DW_OP_addr: 1790)
 <3><5f1>: Abbrev Number: 0
 <2><5f2>: Abbrev Number: 3 (DW_TAG_call_site)
    <5f3>   DW_AT_call_return_pc: 0x144c
    <5fb>   DW_AT_call_origin : <0x6a5>
    <5ff>   DW_AT_sibling     : <0x614>
 <3><603>: Abbrev Number: 1 (DW_TAG_call_site_parameter)
    <604>   DW_AT_location    : 2 byte block: 90 21 	(DW_OP_regx: 33 (r33))
    <607>   DW_AT_call_value  : 11 byte block: a4 2e 8 3f f5 1e b8 51 eb 85 1f 	(DW_OP_const_type: <0x2e>  8 byte block: 3f f5 1e b8 51 eb 85 1f )
 <3><613>: Abbrev Number: 0
 <2><614>: Abbrev Number: 3 (DW_TAG_call_site)
    <615>   DW_AT_call_return_pc: 0x1478
    <61d>   DW_AT_call_origin : <0x6a5>
    <621>   DW_AT_sibling     : <0x636>
 <3><625>: Abbrev Number: 1 (DW_TAG_call_site_parameter)
    <626>   DW_AT_location    : 2 byte block: 90 21 	(DW_OP_regx: 33 (r33))
    <629>   DW_AT_call_value  : 11 byte block: a4 2e 8 3f d5 1e b8 51 eb 85 1f 	(DW_OP_const_type: <0x2e>  8 byte block: 3f d5 1e b8 51 eb 85 1f )
 <3><635>: Abbrev Number: 0
 <2><636>: Abbrev Number: 3 (DW_TAG_call_site)
    <637>   DW_AT_call_return_pc: 0x1480
    <63f>   DW_AT_call_origin : <0x6fc>
    <643>   DW_AT_sibling     : <0x64d>
 <3><647>: Abbrev Number: 1 (DW_TAG_call_site_parameter)
    <648>   DW_AT_location    : 1 byte block: 53 	(DW_OP_reg3 (r3))
    <64a>   DW_AT_call_value  : 1 byte block: 30 	(DW_OP_lit0)
 <3><64c>: Abbrev Number: 0
 <2><64d>: Abbrev Number: 3 (DW_TAG_call_site)
    <64e>   DW_AT_call_return_pc: 0x148c
    <656>   DW_AT_call_origin : <0x6a5>
    <65a>   DW_AT_sibling     : <0x66f>
 <3><65e>: Abbrev Number: 1 (DW_TAG_call_site_parameter)
    <65f>   DW_AT_location    : 2 byte block: 90 21 	(DW_OP_regx: 33 (r33))
    <662>   DW_AT_call_value  : 11 byte block: a4 2e 8 3f d5 1e b8 51 eb 85 1f 	(DW_OP_const_type: <0x2e>  8 byte block: 3f d5 1e b8 51 eb 85 1f )
 <3><66e>: Abbrev Number: 0
 <2><66f>: Abbrev Number: 3 (DW_TAG_call_site)
    <670>   DW_AT_call_return_pc: 0x14a0
    <678>   DW_AT_call_origin : <0x6fc>
    <67c>   DW_AT_sibling     : <0x686>
 <3><680>: Abbrev Number: 1 (DW_TAG_call_site_parameter)
    <681>   DW_AT_location    : 1 byte block: 53 	(DW_OP_reg3 (r3))
    <683>   DW_AT_call_value  : 1 byte block: 31 	(DW_OP_lit1)
 <3><685>: Abbrev Number: 0
 <2><686>: Abbrev Number: 16 (DW_TAG_call_site)
    <687>   DW_AT_call_return_pc: 0x14b8
    <68f>   DW_AT_call_origin : <0x6a5>
 <3><693>: Abbrev Number: 1 (DW_TAG_call_site_parameter)
    <694>   DW_AT_location    : 2 byte block: 90 21 	(DW_OP_regx: 33 (r33))
    <697>   DW_AT_call_value  : 11 byte block: a4 2e 8 3f ef ae 14 7a e1 47 ae 	(DW_OP_const_type: <0x2e>  8 byte block: 3f ef ae 14 7a e1 47 ae )
 <3><6a3>: Abbrev Number: 0
 <2><6a4>: Abbrev Number: 0
 <1><6a5>: Abbrev Number: 11 (DW_TAG_subprogram)
    <6a6>   DW_AT_external    : 1
    <6a6>   DW_AT_name        : (indirect string, offset: 0x2ac): fsleep
    <6aa>   DW_AT_decl_file   : 1
    <6aa>   DW_AT_decl_line   : 70
    <6ab>   DW_AT_decl_column : 6
    <6ab>   DW_AT_prototyped  : 1
    <6ab>   DW_AT_low_pc      : 0x135c
    <6b3>   DW_AT_high_pc     : 0x54
    <6bb>   DW_AT_frame_base  : 1 byte block: 9c 	(DW_OP_call_frame_cfa)
    <6bd>   DW_AT_call_all_calls: 1
    <6bd>   DW_AT_sibling     : <0x6fc>
 <2><6c1>: Abbrev Number: 19 (DW_TAG_formal_parameter)
    <6c2>   DW_AT_name        : dur
    <6c6>   DW_AT_decl_file   : 1
    <6c6>   DW_AT_decl_line   : 70
    <6c7>   DW_AT_decl_column : 20
    <6c8>   DW_AT_type        : <0x2e>
    <6cc>   DW_AT_location    : 0xee (location list)
    <6d0>   DW_AT_GNU_locviews: 0xea
 <2><6d4>: Abbrev Number: 23 (DW_TAG_variable)
    <6d5>   DW_AT_name        : tim
    <6d9>   DW_AT_decl_file   : 1
    <6d9>   DW_AT_decl_line   : 72
    <6da>   DW_AT_decl_column : 18
    <6db>   DW_AT_type        : <0x2b4>
    <6df>   DW_AT_location    : 2 byte block: 91 70 	(DW_OP_fbreg: -16)
 <2><6e2>: Abbrev Number: 16 (DW_TAG_call_site)
    <6e3>   DW_AT_call_return_pc: 0x1394
    <6eb>   DW_AT_call_origin : <0x39c>
 <3><6ef>: Abbrev Number: 1 (DW_TAG_call_site_parameter)
    <6f0>   DW_AT_location    : 1 byte block: 53 	(DW_OP_reg3 (r3))
    <6f2>   DW_AT_call_value  : 2 byte block: 91 70 	(DW_OP_fbreg: -16)
 <3><6f5>: Abbrev Number: 1 (DW_TAG_call_site_parameter)
    <6f6>   DW_AT_location    : 1 byte block: 54 	(DW_OP_reg4 (r4))
    <6f8>   DW_AT_call_value  : 1 byte block: 30 	(DW_OP_lit0)
 <3><6fa>: Abbrev Number: 0
 <2><6fb>: Abbrev Number: 0
 <1><6fc>: Abbrev Number: 11 (DW_TAG_subprogram)
    <6fd>   DW_AT_external    : 1
    <6fd>   DW_AT_name        : (indirect string, offset: 0x1d0): io_write
    <701>   DW_AT_decl_file   : 1
    <701>   DW_AT_decl_line   : 63
    <702>   DW_AT_decl_column : 6
    <702>   DW_AT_prototyped  : 1
    <702>   DW_AT_low_pc      : 0x12f8
    <70a>   DW_AT_high_pc     : 0x64
    <712>   DW_AT_frame_base  : 1 byte block: 9c 	(DW_OP_call_frame_cfa)
    <714>   DW_AT_call_all_calls: 1
    <714>   DW_AT_sibling     : <0x746>
 <2><718>: Abbrev Number: 15 (DW_TAG_formal_parameter)
    <719>   DW_AT_name        : (indirect string, offset: 0x34f): status
    <71d>   DW_AT_decl_file   : 1
    <71d>   DW_AT_decl_line   : 63
    <71e>   DW_AT_decl_column : 20
    <71f>   DW_AT_type        : <0x746>
    <723>   DW_AT_location    : 0x107 (location list)
    <727>   DW_AT_GNU_locviews: 0x103
 <2><72b>: Abbrev Number: 8 (DW_TAG_call_site)
    <72c>   DW_AT_call_return_pc: 0x1330
    <734>   DW_AT_call_origin : <0x3ea>
 <2><738>: Abbrev Number: 8 (DW_TAG_call_site)
    <739>   DW_AT_call_return_pc: 0x1340
    <741>   DW_AT_call_origin : <0x3c2>
 <2><745>: Abbrev Number: 0
 <1><746>: Abbrev Number: 4 (DW_TAG_base_type)
    <747>   DW_AT_byte_size   : 1
    <748>   DW_AT_encoding    : 2	(boolean)
    <749>   DW_AT_name        : (indirect string, offset: 0x22d): _Bool
 <1><74d>: Abbrev Number: 11 (DW_TAG_subprogram)
    <74e>   DW_AT_external    : 1
    <74e>   DW_AT_name        : (indirect string, offset: 0x105): io_init
    <752>   DW_AT_decl_file   : 1
    <752>   DW_AT_decl_line   : 18
    <753>   DW_AT_decl_column : 6
    <753>   DW_AT_prototyped  : 1
    <753>   DW_AT_low_pc      : 0x10d4
    <75b>   DW_AT_high_pc     : 0x224
    <763>   DW_AT_frame_base  : 1 byte block: 9c 	(DW_OP_call_frame_cfa)
    <765>   DW_AT_call_all_calls: 1
    <765>   DW_AT_sibling     : <0xa33>
 <2><769>: Abbrev Number: 19 (DW_TAG_formal_parameter)
    <76a>   DW_AT_name        : pin
    <76e>   DW_AT_decl_file   : 1
    <76e>   DW_AT_decl_line   : 18
    <76f>   DW_AT_decl_column : 24
    <770>   DW_AT_type        : <0x7e>
    <774>   DW_AT_location    : 0x11d (location list)
    <778>   DW_AT_GNU_locviews: 0x119
 <2><77c>: Abbrev Number: 24 (DW_TAG_variable)
    <77d>   DW_AT_name        : (indirect string, offset: 0x3e): path
    <781>   DW_AT_decl_file   : 1
    <781>   DW_AT_decl_line   : 20
    <782>   DW_AT_decl_column : 7
    <783>   DW_AT_type        : <0xa33>
    <787>   DW_AT_location    : 3 byte block: 91 a0 7f 	(DW_OP_fbreg: -96)
 <2><78b>: Abbrev Number: 3 (DW_TAG_call_site)
    <78c>   DW_AT_call_return_pc: 0x1108
    <794>   DW_AT_call_origin : <0x44e>
    <798>   DW_AT_sibling     : <0x7b6>
 <3><79c>: Abbrev Number: 1 (DW_TAG_call_site_parameter)
    <79d>   DW_AT_location    : 1 byte block: 53 	(DW_OP_reg3 (r3))
    <79f>   DW_AT_call_value  : 2 byte block: 8e 0 	(DW_OP_breg30 (r30): 0)
 <3><7a2>: Abbrev Number: 1 (DW_TAG_call_site_parameter)
    <7a3>   DW_AT_location    : 1 byte block: 54 	(DW_OP_reg4 (r4))
    <7a5>   DW_AT_call_value  : 9 byte block: 3 0 0 0 0 0 0 16 38 	(DW_OP_addr: 1638)
 <3><7af>: Abbrev Number: 1 (DW_TAG_call_site_parameter)
    <7b0>   DW_AT_location    : 1 byte block: 55 	(DW_OP_reg5 (r5))
    <7b2>   DW_AT_call_value  : 2 byte block: 8f 0 	(DW_OP_breg31 (r31): 0)
 <3><7b5>: Abbrev Number: 0
 <2><7b6>: Abbrev Number: 3 (DW_TAG_call_site)
    <7b7>   DW_AT_call_return_pc: 0x111c
    <7bf>   DW_AT_call_origin : <0x436>
    <7c3>   DW_AT_sibling     : <0x7db>
 <3><7c7>: Abbrev Number: 1 (DW_TAG_call_site_parameter)
    <7c8>   DW_AT_location    : 1 byte block: 53 	(DW_OP_reg3 (r3))
    <7ca>   DW_AT_call_value  : 9 byte block: 3 0 0 0 0 0 0 16 60 	(DW_OP_addr: 1660)
 <3><7d4>: Abbrev Number: 1 (DW_TAG_call_site_parameter)
    <7d5>   DW_AT_location    : 1 byte block: 54 	(DW_OP_reg4 (r4))
    <7d7>   DW_AT_call_value  : 2 byte block: 8e 0 	(DW_OP_breg30 (r30): 0)
 <3><7da>: Abbrev Number: 0
 <2><7db>: Abbrev Number: 3 (DW_TAG_call_site)
    <7dc>   DW_AT_call_return_pc: 0x1130
    <7e4>   DW_AT_call_origin : <0x41a>
    <7e8>   DW_AT_sibling     : <0x800>
 <3><7ec>: Abbrev Number: 1 (DW_TAG_call_site_parameter)
    <7ed>   DW_AT_location    : 1 byte block: 53 	(DW_OP_reg3 (r3))
    <7ef>   DW_AT_call_value  : 2 byte block: 8e 0 	(DW_OP_breg30 (r30): 0)
 <3><7f2>: Abbrev Number: 1 (DW_TAG_call_site_parameter)
    <7f3>   DW_AT_location    : 1 byte block: 54 	(DW_OP_reg4 (r4))
    <7f5>   DW_AT_call_value  : 9 byte block: 3 0 0 0 0 0 0 16 80 	(DW_OP_addr: 1680)
 <3><7ff>: Abbrev Number: 0
 <2><800>: Abbrev Number: 3 (DW_TAG_call_site)
    <801>   DW_AT_call_return_pc: 0x1160
    <809>   DW_AT_call_origin : <0xa4c>
    <80d>   DW_AT_sibling     : <0x829>
 <3><811>: Abbrev Number: 1 (DW_TAG_call_site_parameter)
    <812>   DW_AT_location    : 1 byte block: 53 	(DW_OP_reg3 (r3))
    <814>   DW_AT_call_value  : 9 byte block: 3 0 0 0 0 0 0 17 18 	(DW_OP_addr: 1718)
 <3><81e>: Abbrev Number: 1 (DW_TAG_call_site_parameter)
    <81f>   DW_AT_location    : 1 byte block: 54 	(DW_OP_reg4 (r4))
    <821>   DW_AT_call_value  : 1 byte block: 31 	(DW_OP_lit1)
 <3><823>: Abbrev Number: 1 (DW_TAG_call_site_parameter)
    <824>   DW_AT_location    : 1 byte block: 55 	(DW_OP_reg5 (r5))
    <826>   DW_AT_call_value  : 1 byte block: 33 	(DW_OP_lit3)
 <3><828>: Abbrev Number: 0
 <2><829>: Abbrev Number: 8 (DW_TAG_call_site)
    <82a>   DW_AT_call_return_pc: 0x116c
    <832>   DW_AT_call_origin : <0x3d6>
 <2><836>: Abbrev Number: 3 (DW_TAG_call_site)
    <837>   DW_AT_call_return_pc: 0x1188
    <83f>   DW_AT_call_origin : <0x44e>
    <843>   DW_AT_sibling     : <0x85b>
 <3><847>: Abbrev Number: 1 (DW_TAG_call_site_parameter)
    <848>   DW_AT_location    : 1 byte block: 53 	(DW_OP_reg3 (r3))
    <84a>   DW_AT_call_value  : 2 byte block: 8f 0 	(DW_OP_breg31 (r31): 0)
 <3><84d>: Abbrev Number: 1 (DW_TAG_call_site_parameter)
    <84e>   DW_AT_location    : 1 byte block: 54 	(DW_OP_reg4 (r4))
    <850>   DW_AT_call_value  : 9 byte block: 3 0 0 0 0 0 0 17 20 	(DW_OP_addr: 1720)
 <3><85a>: Abbrev Number: 0
 <2><85b>: Abbrev Number: 3 (DW_TAG_call_site)
    <85c>   DW_AT_call_return_pc: 0x119c
    <864>   DW_AT_call_origin : <0x436>
    <868>   DW_AT_sibling     : <0x880>
 <3><86c>: Abbrev Number: 1 (DW_TAG_call_site_parameter)
    <86d>   DW_AT_location    : 1 byte block: 53 	(DW_OP_reg3 (r3))
    <86f>   DW_AT_call_value  : 9 byte block: 3 0 0 0 0 0 0 17 40 	(DW_OP_addr: 1740)
 <3><879>: Abbrev Number: 1 (DW_TAG_call_site_parameter)
    <87a>   DW_AT_location    : 1 byte block: 54 	(DW_OP_reg4 (r4))
    <87c>   DW_AT_call_value  : 2 byte block: 8f 0 	(DW_OP_breg31 (r31): 0)
 <3><87f>: Abbrev Number: 0
 <2><880>: Abbrev Number: 3 (DW_TAG_call_site)
    <881>   DW_AT_call_return_pc: 0x11b0
    <889>   DW_AT_call_origin : <0x41a>
    <88d>   DW_AT_sibling     : <0x8a5>
 <3><891>: Abbrev Number: 1 (DW_TAG_call_site_parameter)
    <892>   DW_AT_location    : 1 byte block: 53 	(DW_OP_reg3 (r3))
    <894>   DW_AT_call_value  : 2 byte block: 8f 0 	(DW_OP_breg31 (r31): 0)
 <3><897>: Abbrev Number: 1 (DW_TAG_call_site_parameter)
    <898>   DW_AT_location    : 1 byte block: 54 	(DW_OP_reg4 (r4))
    <89a>   DW_AT_call_value  : 9 byte block: 3 0 0 0 0 0 0 16 80 	(DW_OP_addr: 1680)
 <3><8a4>: Abbrev Number: 0
 <2><8a5>: Abbrev Number: 3 (DW_TAG_call_site)
    <8a6>   DW_AT_call_return_pc: 0x11cc
    <8ae>   DW_AT_call_origin : <0xa55>
    <8b2>   DW_AT_sibling     : <0x8bd>
 <3><8b6>: Abbrev Number: 1 (DW_TAG_call_site_parameter)
    <8b7>   DW_AT_location    : 1 byte block: 53 	(DW_OP_reg3 (r3))
    <8b9>   DW_AT_call_value  : 2 byte block: 8 30 	(DW_OP_const1u: 48)
 <3><8bc>: Abbrev Number: 0
 <2><8bd>: Abbrev Number: 8 (DW_TAG_call_site)
    <8be>   DW_AT_call_return_pc: 0x11dc
    <8c6>   DW_AT_call_origin : <0x3c2>
 <2><8ca>: Abbrev Number: 3 (DW_TAG_call_site)
    <8cb>   DW_AT_call_return_pc: 0x1208
    <8d3>   DW_AT_call_origin : <0xa43>
    <8d7>   DW_AT_sibling     : <0x8e9>
 <3><8db>: Abbrev Number: 1 (DW_TAG_call_site_parameter)
    <8dc>   DW_AT_location    : 1 byte block: 53 	(DW_OP_reg3 (r3))
    <8de>   DW_AT_call_value  : 9 byte block: 3 0 0 0 0 0 0 16 88 	(DW_OP_addr: 1688)
 <3><8e8>: Abbrev Number: 0
 <2><8e9>: Abbrev Number: 3 (DW_TAG_call_site)
    <8ea>   DW_AT_call_return_pc: 0x1220
    <8f2>   DW_AT_call_origin : <0x41a>
    <8f6>   DW_AT_sibling     : <0x915>
 <3><8fa>: Abbrev Number: 1 (DW_TAG_call_site_parameter)
    <8fb>   DW_AT_location    : 1 byte block: 53 	(DW_OP_reg3 (r3))
    <8fd>   DW_AT_call_value  : 9 byte block: 3 0 0 0 0 0 0 16 b0 	(DW_OP_addr: 16b0)
 <3><907>: Abbrev Number: 1 (DW_TAG_call_site_parameter)
    <908>   DW_AT_location    : 1 byte block: 54 	(DW_OP_reg4 (r4))
    <90a>   DW_AT_call_value  : 9 byte block: 3 0 0 0 0 0 0 16 80 	(DW_OP_addr: 1680)
 <3><914>: Abbrev Number: 0
 <2><915>: Abbrev Number: 3 (DW_TAG_call_site)
    <916>   DW_AT_call_return_pc: 0x1244
    <91e>   DW_AT_call_origin : <0x3ea>
    <922>   DW_AT_sibling     : <0x93a>
 <3><926>: Abbrev Number: 1 (DW_TAG_call_site_parameter)
    <927>   DW_AT_location    : 1 byte block: 54 	(DW_OP_reg4 (r4))
    <929>   DW_AT_call_value  : 9 byte block: 3 0 0 0 0 0 0 16 e8 	(DW_OP_addr: 16e8)
 <3><933>: Abbrev Number: 1 (DW_TAG_call_site_parameter)
    <934>   DW_AT_location    : 1 byte block: 55 	(DW_OP_reg5 (r5))
    <936>   DW_AT_call_value  : 2 byte block: 8f 0 	(DW_OP_breg31 (r31): 0)
 <3><939>: Abbrev Number: 0
 <2><93a>: Abbrev Number: 8 (DW_TAG_call_site)
    <93b>   DW_AT_call_return_pc: 0x1254
    <943>   DW_AT_call_origin : <0x3d6>
 <2><947>: Abbrev Number: 3 (DW_TAG_call_site)
    <948>   DW_AT_call_return_pc: 0x126c
    <950>   DW_AT_call_origin : <0x436>
    <954>   DW_AT_sibling     : <0x96c>
 <3><958>: Abbrev Number: 1 (DW_TAG_call_site_parameter)
    <959>   DW_AT_location    : 1 byte block: 53 	(DW_OP_reg3 (r3))
    <95b>   DW_AT_call_value  : 9 byte block: 3 0 0 0 0 0 0 16 60 	(DW_OP_addr: 1660)
 <3><965>: Abbrev Number: 1 (DW_TAG_call_site_parameter)
    <966>   DW_AT_location    : 1 byte block: 54 	(DW_OP_reg4 (r4))
    <968>   DW_AT_call_value  : 2 byte block: 8e 0 	(DW_OP_breg30 (r30): 0)
 <3><96b>: Abbrev Number: 0
 <2><96c>: Abbrev Number: 3 (DW_TAG_call_site)
    <96d>   DW_AT_call_return_pc: 0x1280
    <975>   DW_AT_call_origin : <0x41a>
    <979>   DW_AT_sibling     : <0x991>
 <3><97d>: Abbrev Number: 1 (DW_TAG_call_site_parameter)
    <97e>   DW_AT_location    : 1 byte block: 53 	(DW_OP_reg3 (r3))
    <980>   DW_AT_call_value  : 2 byte block: 8e 0 	(DW_OP_breg30 (r30): 0)
 <3><983>: Abbrev Number: 1 (DW_TAG_call_site_parameter)
    <984>   DW_AT_location    : 1 byte block: 54 	(DW_OP_reg4 (r4))
    <986>   DW_AT_call_value  : 9 byte block: 3 0 0 0 0 0 0 16 80 	(DW_OP_addr: 1680)
 <3><990>: Abbrev Number: 0
 <2><991>: Abbrev Number: 3 (DW_TAG_call_site)
    <992>   DW_AT_call_return_pc: 0x12a4
    <99a>   DW_AT_call_origin : <0xa43>
    <99e>   DW_AT_sibling     : <0x9b0>
 <3><9a2>: Abbrev Number: 1 (DW_TAG_call_site_parameter)
    <9a3>   DW_AT_location    : 1 byte block: 53 	(DW_OP_reg3 (r3))
    <9a5>   DW_AT_call_value  : 9 byte block: 3 0 0 0 0 0 0 16 c8 	(DW_OP_addr: 16c8)
 <3><9af>: Abbrev Number: 0
 <2><9b0>: Abbrev Number: 3 (DW_TAG_call_site)
    <9b1>   DW_AT_call_return_pc: 0x12b0
    <9b9>   DW_AT_call_origin : <0x407>
    <9bd>   DW_AT_sibling     : <0x9c8>
 <3><9c1>: Abbrev Number: 1 (DW_TAG_call_site_parameter)
    <9c2>   DW_AT_location    : 1 byte block: 53 	(DW_OP_reg3 (r3))
    <9c4>   DW_AT_call_value  : 2 byte block: 9 ff 	(DW_OP_const1s: -1)
 <3><9c7>: Abbrev Number: 0
 <2><9c8>: Abbrev Number: 3 (DW_TAG_call_site)
    <9c9>   DW_AT_call_return_pc: 0x12c0
    <9d1>   DW_AT_call_origin : <0xa43>
    <9d5>   DW_AT_sibling     : <0x9e7>
 <3><9d9>: Abbrev Number: 1 (DW_TAG_call_site_parameter)
    <9da>   DW_AT_location    : 1 byte block: 53 	(DW_OP_reg3 (r3))
    <9dc>   DW_AT_call_value  : 9 byte block: 3 0 0 0 0 0 0 16 f0 	(DW_OP_addr: 16f0)
 <3><9e6>: Abbrev Number: 0
 <2><9e7>: Abbrev Number: 3 (DW_TAG_call_site)
    <9e8>   DW_AT_call_return_pc: 0x12cc
    <9f0>   DW_AT_call_origin : <0x407>
    <9f4>   DW_AT_sibling     : <0x9ff>
 <3><9f8>: Abbrev Number: 1 (DW_TAG_call_site_parameter)
    <9f9>   DW_AT_location    : 1 byte block: 53 	(DW_OP_reg3 (r3))
    <9fb>   DW_AT_call_value  : 2 byte block: 9 ff 	(DW_OP_const1s: -1)
 <3><9fe>: Abbrev Number: 0
 <2><9ff>: Abbrev Number: 3 (DW_TAG_call_site)
    <a00>   DW_AT_call_return_pc: 0x12e0
    <a08>   DW_AT_call_origin : <0xa43>
    <a0c>   DW_AT_sibling     : <0xa1e>
 <3><a10>: Abbrev Number: 1 (DW_TAG_call_site_parameter)
    <a11>   DW_AT_location    : 1 byte block: 53 	(DW_OP_reg3 (r3))
    <a13>   DW_AT_call_value  : 9 byte block: 3 0 0 0 0 0 0 17 58 	(DW_OP_addr: 1758)
 <3><a1d>: Abbrev Number: 0
 <2><a1e>: Abbrev Number: 16 (DW_TAG_call_site)
    <a1f>   DW_AT_call_return_pc: 0x12ec
    <a27>   DW_AT_call_origin : <0x407>
 <3><a2b>: Abbrev Number: 1 (DW_TAG_call_site_parameter)
    <a2c>   DW_AT_location    : 1 byte block: 53 	(DW_OP_reg3 (r3))
    <a2e>   DW_AT_call_value  : 2 byte block: 9 ff 	(DW_OP_const1s: -1)
 <3><a31>: Abbrev Number: 0
 <2><a32>: Abbrev Number: 0
 <1><a33>: Abbrev Number: 13 (DW_TAG_array_type)
    <a34>   DW_AT_type        : <0x48>
    <a38>   DW_AT_sibling     : <0xa43>
 <2><a3c>: Abbrev Number: 14 (DW_TAG_subrange_type)
    <a3d>   DW_AT_type        : <0x41>
    <a41>   DW_AT_upper_bound : 63
 <2><a42>: Abbrev Number: 0
 <1><a43>: Abbrev Number: 20 (DW_TAG_subprogram)
    <a44>   DW_AT_external    : 1
    <a44>   DW_AT_declaration : 1
    <a44>   DW_AT_linkage_name: (indirect string, offset: 0x182): puts
    <a48>   DW_AT_name        : (indirect string, offset: 0x178): __builtin_puts
    <a4c>   DW_AT_decl_file   : 10
    <a4c>   DW_AT_decl_line   : 0
 <1><a4c>: Abbrev Number: 20 (DW_TAG_subprogram)
    <a4d>   DW_AT_external    : 1
    <a4d>   DW_AT_declaration : 1
    <a4d>   DW_AT_linkage_name: (indirect string, offset: 0x89): fwrite
    <a51>   DW_AT_name        : (indirect string, offset: 0x7f): __builtin_fwrite
    <a55>   DW_AT_decl_file   : 10
    <a55>   DW_AT_decl_line   : 0
 <1><a55>: Abbrev Number: 20 (DW_TAG_subprogram)
    <a56>   DW_AT_external    : 1
    <a56>   DW_AT_declaration : 1
    <a56>   DW_AT_linkage_name: (indirect string, offset: 0xa9): fputc
    <a5a>   DW_AT_name        : (indirect string, offset: 0x9f): __builtin_fputc
    <a5e>   DW_AT_decl_file   : 10
    <a5e>   DW_AT_decl_line   : 0
 <1><a5e>: Abbrev Number: 0

Contents of the .debug_abbrev section (loaded from a.out):

  Number TAG (0)
   1      DW_TAG_call_site_parameter    [no children]
    DW_AT_location     DW_FORM_exprloc
    DW_AT_call_value   DW_FORM_exprloc
    DW_AT value: 0     DW_FORM value: 0
   2      DW_TAG_member    [no children]
    DW_AT_name         DW_FORM_strp
    DW_AT_decl_file    DW_FORM_data1
    DW_AT_decl_line    DW_FORM_data1
    DW_AT_decl_column  DW_FORM_data1
    DW_AT_type         DW_FORM_ref4
    DW_AT_data_member_location DW_FORM_data1
    DW_AT value: 0     DW_FORM value: 0
   3      DW_TAG_call_site    [has children]
    DW_AT_call_return_pc DW_FORM_addr
    DW_AT_call_origin  DW_FORM_ref4
    DW_AT_sibling      DW_FORM_ref4
    DW_AT value: 0     DW_FORM value: 0
   4      DW_TAG_base_type    [no children]
    DW_AT_byte_size    DW_FORM_data1
    DW_AT_encoding     DW_FORM_data1
    DW_AT_name         DW_FORM_strp
    DW_AT value: 0     DW_FORM value: 0
   5      DW_TAG_formal_parameter    [no children]
    DW_AT_type         DW_FORM_ref4
    DW_AT value: 0     DW_FORM value: 0
   6      DW_TAG_pointer_type    [no children]
    DW_AT_byte_size    DW_FORM_implicit_const: 8
    DW_AT_type         DW_FORM_ref4
    DW_AT value: 0     DW_FORM value: 0
   7      DW_TAG_typedef    [no children]
    DW_AT_name         DW_FORM_strp
    DW_AT_decl_file    DW_FORM_data1
    DW_AT_decl_line    DW_FORM_data1
    DW_AT_decl_column  DW_FORM_data1
    DW_AT_type         DW_FORM_ref4
    DW_AT value: 0     DW_FORM value: 0
   8      DW_TAG_call_site    [no children]
    DW_AT_call_return_pc DW_FORM_addr
    DW_AT_call_origin  DW_FORM_ref4
    DW_AT value: 0     DW_FORM value: 0
   9      DW_TAG_variable    [no children]
    DW_AT_name         DW_FORM_strp
    DW_AT_decl_file    DW_FORM_implicit_const: 1
    DW_AT_decl_line    DW_FORM_data1
    DW_AT_decl_column  DW_FORM_implicit_const: 21
    DW_AT_type         DW_FORM_ref4
    DW_AT_const_value  DW_FORM_block1
    DW_AT value: 0     DW_FORM value: 0
   10      DW_TAG_subprogram    [has children]
    DW_AT_external     DW_FORM_flag_present
    DW_AT_name         DW_FORM_strp
    DW_AT_decl_file    DW_FORM_data1
    DW_AT_decl_line    DW_FORM_data2
    DW_AT_decl_column  DW_FORM_data1
    DW_AT_prototyped   DW_FORM_flag_present
    DW_AT_type         DW_FORM_ref4
    DW_AT_declaration  DW_FORM_flag_present
    DW_AT_sibling      DW_FORM_ref4
    DW_AT value: 0     DW_FORM value: 0
   11      DW_TAG_subprogram    [has children]
    DW_AT_external     DW_FORM_flag_present
    DW_AT_name         DW_FORM_strp
    DW_AT_decl_file    DW_FORM_implicit_const: 1
    DW_AT_decl_line    DW_FORM_data1
    DW_AT_decl_column  DW_FORM_implicit_const: 6
    DW_AT_prototyped   DW_FORM_flag_present
    DW_AT_low_pc       DW_FORM_addr
    DW_AT_high_pc      DW_FORM_data8
    DW_AT_frame_base   DW_FORM_exprloc
    DW_AT_call_all_calls DW_FORM_flag_present
    DW_AT_sibling      DW_FORM_ref4
    DW_AT value: 0     DW_FORM value: 0
   12      DW_TAG_const_type    [no children]
    DW_AT_type         DW_FORM_ref4
    DW_AT value: 0     DW_FORM value: 0
   13      DW_TAG_array_type    [has children]
    DW_AT_type         DW_FORM_ref4
    DW_AT_sibling      DW_FORM_ref4
    DW_AT value: 0     DW_FORM value: 0
   14      DW_TAG_subrange_type    [no children]
    DW_AT_type         DW_FORM_ref4
    DW_AT_upper_bound  DW_FORM_data1
    DW_AT value: 0     DW_FORM value: 0
   15      DW_TAG_formal_parameter    [no children]
    DW_AT_name         DW_FORM_strp
    DW_AT_decl_file    DW_FORM_implicit_const: 1
    DW_AT_decl_line    DW_FORM_data1
    DW_AT_decl_column  DW_FORM_data1
    DW_AT_type         DW_FORM_ref4
    DW_AT_location     DW_FORM_sec_offset
    DW_AT_GNU_locviews DW_FORM_sec_offset
    DW_AT value: 0     DW_FORM value: 0
   16      DW_TAG_call_site    [has children]
    DW_AT_call_return_pc DW_FORM_addr
    DW_AT_call_origin  DW_FORM_ref4
    DW_AT value: 0     DW_FORM value: 0
   17      DW_TAG_structure_type    [no children]
    DW_AT_name         DW_FORM_strp
    DW_AT_declaration  DW_FORM_flag_present
    DW_AT value: 0     DW_FORM value: 0
   18      DW_TAG_unspecified_parameters    [no children]
    DW_AT value: 0     DW_FORM value: 0
   19      DW_TAG_formal_parameter    [no children]
    DW_AT_name         DW_FORM_string
    DW_AT_decl_file    DW_FORM_implicit_const: 1
    DW_AT_decl_line    DW_FORM_data1
    DW_AT_decl_column  DW_FORM_data1
    DW_AT_type         DW_FORM_ref4
    DW_AT_location     DW_FORM_sec_offset
    DW_AT_GNU_locviews DW_FORM_sec_offset
    DW_AT value: 0     DW_FORM value: 0
   20      DW_TAG_subprogram    [no children]
    DW_AT_external     DW_FORM_flag_present
    DW_AT_declaration  DW_FORM_flag_present
    DW_AT_linkage_name DW_FORM_strp
    DW_AT_name         DW_FORM_strp
    DW_AT_decl_file    DW_FORM_implicit_const: 10
    DW_AT_decl_line    DW_FORM_implicit_const: 0
    DW_AT value: 0     DW_FORM value: 0
   21      DW_TAG_structure_type    [has children]
    DW_AT_name         DW_FORM_strp
    DW_AT_byte_size    DW_FORM_data1
    DW_AT_decl_file    DW_FORM_data1
    DW_AT_decl_line    DW_FORM_data1
    DW_AT_decl_column  DW_FORM_implicit_const: 8
    DW_AT_sibling      DW_FORM_ref4
    DW_AT value: 0     DW_FORM value: 0
   22      DW_TAG_restrict_type    [no children]
    DW_AT_type         DW_FORM_ref4
    DW_AT value: 0     DW_FORM value: 0
   23      DW_TAG_variable    [no children]
    DW_AT_name         DW_FORM_string
    DW_AT_decl_file    DW_FORM_implicit_const: 1
    DW_AT_decl_line    DW_FORM_data1
    DW_AT_decl_column  DW_FORM_data1
    DW_AT_type         DW_FORM_ref4
    DW_AT_location     DW_FORM_exprloc
    DW_AT value: 0     DW_FORM value: 0
   24      DW_TAG_variable    [no children]
    DW_AT_name         DW_FORM_strp
    DW_AT_decl_file    DW_FORM_implicit_const: 1
    DW_AT_decl_line    DW_FORM_data1
    DW_AT_decl_column  DW_FORM_data1
    DW_AT_type         DW_FORM_ref4
    DW_AT_location     DW_FORM_exprloc
    DW_AT value: 0     DW_FORM value: 0
   25      DW_TAG_subprogram    [has children]
    DW_AT_external     DW_FORM_flag_present
    DW_AT_name         DW_FORM_strp
    DW_AT_decl_file    DW_FORM_implicit_const: 8
    DW_AT_decl_line    DW_FORM_data1
    DW_AT_decl_column  DW_FORM_implicit_const: 12
    DW_AT_prototyped   DW_FORM_flag_present
    DW_AT_type         DW_FORM_ref4
    DW_AT_declaration  DW_FORM_flag_present
    DW_AT_sibling      DW_FORM_ref4
    DW_AT value: 0     DW_FORM value: 0
   26      DW_TAG_compile_unit    [has children]
    DW_AT_producer     DW_FORM_strp
    DW_AT_language     DW_FORM_data1
    DW_AT_name         DW_FORM_strp
    DW_AT_comp_dir     DW_FORM_strp
    DW_AT_low_pc       DW_FORM_addr
    DW_AT_high_pc      DW_FORM_data8
    DW_AT_stmt_list    DW_FORM_sec_offset
    DW_AT value: 0     DW_FORM value: 0
   27      DW_TAG_base_type    [no children]
    DW_AT_byte_size    DW_FORM_data1
    DW_AT_encoding     DW_FORM_data1
    DW_AT_name         DW_FORM_string
    DW_AT value: 0     DW_FORM value: 0
   28      DW_TAG_pointer_type    [no children]
    DW_AT_byte_size    DW_FORM_data1
    DW_AT value: 0     DW_FORM value: 0
   29      DW_TAG_typedef    [no children]
    DW_AT_name         DW_FORM_strp
    DW_AT_decl_file    DW_FORM_data1
    DW_AT_decl_line    DW_FORM_data1
    DW_AT_decl_column  DW_FORM_data1
    DW_AT value: 0     DW_FORM value: 0
   30      DW_TAG_variable    [no children]
    DW_AT_name         DW_FORM_strp
    DW_AT_decl_file    DW_FORM_data1
    DW_AT_decl_line    DW_FORM_data1
    DW_AT_decl_column  DW_FORM_data1
    DW_AT_type         DW_FORM_ref4
    DW_AT_const_value  DW_FORM_data2
    DW_AT value: 0     DW_FORM value: 0
   31      DW_TAG_subprogram    [has children]
    DW_AT_external     DW_FORM_flag_present
    DW_AT_name         DW_FORM_strp
    DW_AT_decl_file    DW_FORM_data1
    DW_AT_decl_line    DW_FORM_data2
    DW_AT_decl_column  DW_FORM_data1
    DW_AT_prototyped   DW_FORM_flag_present
    DW_AT_noreturn     DW_FORM_flag_present
    DW_AT_declaration  DW_FORM_flag_present
    DW_AT_sibling      DW_FORM_ref4
    DW_AT value: 0     DW_FORM value: 0
   32      DW_TAG_subprogram    [has children]
    DW_AT_external     DW_FORM_flag_present
    DW_AT_name         DW_FORM_strp
    DW_AT_decl_file    DW_FORM_data1
    DW_AT_decl_line    DW_FORM_data1
    DW_AT_decl_column  DW_FORM_data1
    DW_AT_prototyped   DW_FORM_flag_present
    DW_AT_type         DW_FORM_ref4
    DW_AT_low_pc       DW_FORM_addr
    DW_AT_high_pc      DW_FORM_data8
    DW_AT_frame_base   DW_FORM_exprloc
    DW_AT_call_all_calls DW_FORM_flag_present
    DW_AT_sibling      DW_FORM_ref4
    DW_AT value: 0     DW_FORM value: 0
   33      DW_TAG_variable    [no children]
    DW_AT_name         DW_FORM_strp
    DW_AT_decl_file    DW_FORM_data1
    DW_AT_decl_line    DW_FORM_data1
    DW_AT_decl_column  DW_FORM_data1
    DW_AT_type         DW_FORM_ref4
    DW_AT_location     DW_FORM_sec_offset
    DW_AT_GNU_locviews DW_FORM_sec_offset
    DW_AT value: 0     DW_FORM value: 0

Raw dump of debug contents of section .debug_line (loaded from a.out):

  Offset:                      0
  Length:                      721
  DWARF Version:               3
  Prologue Length:             316
  Minimum Instruction Length:  4
  Initial value of 'is_stmt':  1
  Line Base:                   -5
  Line Range:                  14
  Opcode Base:                 13

 Opcodes:
  Opcode 1 has 0 args
  Opcode 2 has 1 arg
  Opcode 3 has 1 arg
  Opcode 4 has 1 arg
  Opcode 5 has 1 arg
  Opcode 6 has 0 args
  Opcode 7 has 0 args
  Opcode 8 has 0 args
  Opcode 9 has 1 arg
  Opcode 10 has 0 args
  Opcode 11 has 0 args
  Opcode 12 has 1 arg

 The Directory Table (offset 0x1b):
  1	..
  2	/usr/lib/gcc-cross/powerpc64-linux-gnu/12/include
  3	/usr/powerpc64-linux-gnu/include/bits
  4	/usr/powerpc64-linux-gnu/include/bits/types
  5	/usr/powerpc64-linux-gnu/include

 The File Name Table (offset 0xc4):
  Entry	Dir	Time	Size	Name
  1	1	0	0	morse.c
  2	2	0	0	stddef.h
  3	3	0	0	types.h
  4	4	0	0	struct_FILE.h
  5	4	0	0	FILE.h
  6	4	0	0	struct_timespec.h
  7	5	0	0	time.h
  8	5	0	0	stdio.h
  9	5	0	0	stdlib.h
  10	0	0	0	<built-in>

 Line Number Statements:
  [0x00000146]  Set column to 1
  [0x00000148]  Extended opcode 2: set Address to 0x10d4
  [0x00000153]  Advance Line by 18 to 19
  [0x00000155]  Copy
  [0x00000156]  Set is_stmt to 0
  [0x00000157]  Copy (view 1)
  [0x00000158]  Set column to 2
  [0x0000015a]  Set is_stmt to 1
  [0x0000015b]  Special opcode 90: advance Address by 24 to 0x10ec and Line by 1 to 20
  [0x0000015c]  Special opcode 7: advance Address by 0 to 0x10ec and Line by 2 to 22 (view 1)
  [0x0000015d]  Set is_stmt to 0
  [0x0000015e]  Special opcode 75: advance Address by 20 to 0x1100 and Line by 0 to 22
  [0x0000015f]  Set is_stmt to 1
  [0x00000160]  Special opcode 34: advance Address by 8 to 0x1108 and Line by 1 to 23
  [0x00000161]  Special opcode 76: advance Address by 20 to 0x111c and Line by 1 to 24
  [0x00000162]  Set column to 7
  [0x00000164]  Set is_stmt to 0
  [0x00000165]  Copy (view 1)
  [0x00000166]  Set column to 5
  [0x00000168]  Special opcode 75: advance Address by 20 to 0x1130 and Line by 0 to 24
  [0x00000169]  Set column to 2
  [0x0000016b]  Set is_stmt to 1
  [0x0000016c]  Special opcode 34: advance Address by 8 to 0x1138 and Line by 1 to 25
  [0x0000016d]  Set column to 4
  [0x0000016f]  Set is_stmt to 0
  [0x00000170]  Copy (view 1)
  [0x00000171]  Set column to 2
  [0x00000173]  Set is_stmt to 1
  [0x00000174]  Advance Line by 22 to 47
  [0x00000176]  Special opcode 33: advance Address by 8 to 0x1140 and Line by 0 to 47
  [0x00000177]  Special opcode 118: advance Address by 32 to 0x1160 and Line by 1 to 48
  [0x00000178]  Special opcode 49: advance Address by 12 to 0x116c and Line by 2 to 50
  [0x00000179]  Special opcode 104: advance Address by 28 to 0x1188 and Line by 1 to 51
  [0x0000017a]  Special opcode 76: advance Address by 20 to 0x119c and Line by 1 to 52
  [0x0000017b]  Set column to 7
  [0x0000017d]  Set is_stmt to 0
  [0x0000017e]  Copy (view 1)
  [0x0000017f]  Set column to 5
  [0x00000181]  Special opcode 89: advance Address by 24 to 0x11b4 and Line by 0 to 52
  [0x00000182]  Set column to 2
  [0x00000184]  Set is_stmt to 1
  [0x00000185]  Special opcode 20: advance Address by 4 to 0x11b8 and Line by 1 to 53
  [0x00000186]  Set column to 4
  [0x00000188]  Set is_stmt to 0
  [0x00000189]  Copy (view 1)
  [0x0000018a]  Set column to 2
  [0x0000018c]  Set is_stmt to 1
  [0x0000018d]  Special opcode 39: advance Address by 8 to 0x11c0 and Line by 6 to 59
  [0x0000018e]  Special opcode 48: advance Address by 12 to 0x11cc and Line by 1 to 60
  [0x0000018f]  Set column to 1
  [0x00000191]  Set is_stmt to 0
  [0x00000192]  Special opcode 62: advance Address by 16 to 0x11dc and Line by 1 to 61
  [0x00000193]  Set column to 3
  [0x00000195]  Set is_stmt to 1
  [0x00000196]  Advance Line by -33 to 28
  [0x00000198]  Special opcode 103: advance Address by 28 to 0x11f8 and Line by 0 to 28
  [0x00000199]  Special opcode 62: advance Address by 16 to 0x1208 and Line by 1 to 29
  [0x0000019a]  Set column to 8
  [0x0000019c]  Set is_stmt to 0
  [0x0000019d]  Copy (view 1)
  [0x0000019e]  Set column to 6
  [0x000001a0]  Special opcode 89: advance Address by 24 to 0x1220 and Line by 0 to 29
  [0x000001a1]  Set column to 3
  [0x000001a3]  Set is_stmt to 1
  [0x000001a4]  Special opcode 34: advance Address by 8 to 0x1228 and Line by 1 to 30
  [0x000001a5]  Set column to 5
  [0x000001a7]  Set is_stmt to 0
  [0x000001a8]  Copy (view 1)
  [0x000001a9]  Set column to 3
  [0x000001ab]  Set is_stmt to 1
  [0x000001ac]  Special opcode 38: advance Address by 8 to 0x1230 and Line by 5 to 35
  [0x000001ad]  Special opcode 76: advance Address by 20 to 0x1244 and Line by 1 to 36
  [0x000001ae]  Special opcode 63: advance Address by 16 to 0x1254 and Line by 2 to 38
  [0x000001af]  Special opcode 90: advance Address by 24 to 0x126c and Line by 1 to 39
  [0x000001b0]  Set column to 8
  [0x000001b2]  Set is_stmt to 0
  [0x000001b3]  Copy (view 1)
  [0x000001b4]  Set column to 6
  [0x000001b6]  Special opcode 75: advance Address by 20 to 0x1280 and Line by 0 to 39
  [0x000001b7]  Set column to 3
  [0x000001b9]  Set is_stmt to 1
  [0x000001ba]  Special opcode 20: advance Address by 4 to 0x1284 and Line by 1 to 40
  [0x000001bb]  Set column to 5
  [0x000001bd]  Set is_stmt to 0
  [0x000001be]  Copy (view 1)
  [0x000001bf]  Set column to 4
  [0x000001c1]  Set is_stmt to 1
  [0x000001c2]  Advance Line by -8 to 32
  [0x000001c4]  Special opcode 61: advance Address by 16 to 0x1294 and Line by 0 to 32
  [0x000001c5]  Special opcode 62: advance Address by 16 to 0x12a4 and Line by 1 to 33
  [0x000001c6]  Advance Line by 9 to 42
  [0x000001c8]  Special opcode 47: advance Address by 12 to 0x12b0 and Line by 0 to 42
  [0x000001c9]  Special opcode 62: advance Address by 16 to 0x12c0 and Line by 1 to 43
  [0x000001ca]  Set column to 3
  [0x000001cc]  Advance Line by 12 to 55
  [0x000001ce]  Special opcode 61: advance Address by 16 to 0x12d0 and Line by 0 to 55
  [0x000001cf]  Special opcode 62: advance Address by 16 to 0x12e0 and Line by 1 to 56
  [0x000001d0]  Set column to 1
  [0x000001d2]  Special opcode 97: advance Address by 24 to 0x12f8 and Line by 8 to 64
  [0x000001d3]  Set is_stmt to 0
  [0x000001d4]  Copy (view 1)
  [0x000001d5]  Set column to 2
  [0x000001d7]  Set is_stmt to 1
  [0x000001d8]  Special opcode 48: advance Address by 12 to 0x1304 and Line by 1 to 65
  [0x000001d9]  Extended opcode 4: set Discriminator to 4
  [0x000001dd]  Set is_stmt to 0
  [0x000001de]  Special opcode 117: advance Address by 32 to 0x1324 and Line by 0 to 65
  [0x000001df]  Extended opcode 4: set Discriminator to 4
  [0x000001e3]  Special opcode 19: advance Address by 4 to 0x1328 and Line by 0 to 65
  [0x000001e4]  Extended opcode 4: set Discriminator to 4
  [0x000001e8]  Set is_stmt to 1
  [0x000001e9]  Special opcode 34: advance Address by 8 to 0x1330 and Line by 1 to 66
  [0x000001ea]  Set column to 1
  [0x000001ec]  Extended opcode 4: set Discriminator to 4
  [0x000001f0]  Set is_stmt to 0
  [0x000001f1]  Special opcode 62: advance Address by 16 to 0x1340 and Line by 1 to 67
  [0x000001f2]  Set is_stmt to 1
  [0x000001f3]  Special opcode 107: advance Address by 28 to 0x135c and Line by 4 to 71
  [0x000001f4]  Set is_stmt to 0
  [0x000001f5]  Copy (view 1)
  [0x000001f6]  Set column to 2
  [0x000001f8]  Set is_stmt to 1
  [0x000001f9]  Special opcode 48: advance Address by 12 to 0x1368 and Line by 1 to 72
  [0x000001fa]  Set column to 5
  [0x000001fc]  Special opcode 6: advance Address by 0 to 0x1368 and Line by 1 to 73 (view 1)
  [0x000001fd]  Set column to 16
  [0x000001ff]  Set is_stmt to 0
  [0x00000200]  Copy (view 2)
  [0x00000201]  Set column to 5
  [0x00000203]  Set is_stmt to 1
  [0x00000204]  Special opcode 34: advance Address by 8 to 0x1370 and Line by 1 to 74
  [0x00000205]  Set column to 23
  [0x00000207]  Set is_stmt to 0
  [0x00000208]  Copy (view 1)
  [0x00000209]  Set column to 17
  [0x0000020b]  Special opcode 47: advance Address by 12 to 0x137c and Line by 0 to 74
  [0x0000020c]  Set column to 2
  [0x0000020e]  Set is_stmt to 1
  [0x0000020f]  Special opcode 34: advance Address by 8 to 0x1384 and Line by 1 to 75
  [0x00000210]  Set column to 1
  [0x00000212]  Set is_stmt to 0
  [0x00000213]  Special opcode 62: advance Address by 16 to 0x1394 and Line by 1 to 76
  [0x00000214]  Set is_stmt to 1
  [0x00000215]  Advance Line by 65 to 141
  [0x00000218]  Special opcode 103: advance Address by 28 to 0x13b0 and Line by 0 to 141
  [0x00000219]  Set is_stmt to 0
  [0x0000021a]  Copy (view 1)
  [0x0000021b]  Set column to 2
  [0x0000021d]  Set is_stmt to 1
  [0x0000021e]  Special opcode 49: advance Address by 12 to 0x13bc and Line by 2 to 143
  [0x0000021f]  Set column to 4
  [0x00000221]  Set is_stmt to 0
  [0x00000222]  Copy (view 1)
  [0x00000223]  Set column to 2
  [0x00000225]  Set is_stmt to 1
  [0x00000226]  Special opcode 69: advance Address by 16 to 0x13cc and Line by 8 to 151
  [0x00000227]  Special opcode 6: advance Address by 0 to 0x13cc and Line by 1 to 152 (view 1)
  [0x00000228]  Set column to 16
  [0x0000022a]  Set is_stmt to 0
  [0x0000022b]  Copy (view 2)
  [0x0000022c]  Set column to 4
  [0x0000022e]  Special opcode 19: advance Address by 4 to 0x13d0 and Line by 0 to 152
  [0x0000022f]  Set column to 3
  [0x00000231]  Set is_stmt to 1
  [0x00000232]  Special opcode 49: advance Address by 12 to 0x13dc and Line by 2 to 154
  [0x00000233]  Set column to 33
  [0x00000235]  Set is_stmt to 0
  [0x00000236]  Copy (view 1)
  [0x00000237]  Set column to 11
  [0x00000239]  Special opcode 19: advance Address by 4 to 0x13e0 and Line by 0 to 154
  [0x0000023a]  Set column to 2
  [0x0000023c]  Set is_stmt to 1
  [0x0000023d]  Advance Line by 11 to 165
  [0x0000023f]  Special opcode 61: advance Address by 16 to 0x13f0 and Line by 0 to 165
  [0x00000240]  Set is_stmt to 0
  [0x00000241]  Special opcode 33: advance Address by 8 to 0x13f8 and Line by 0 to 165
  [0x00000242]  Set is_stmt to 1
  [0x00000243]  Special opcode 50: advance Address by 12 to 0x1404 and Line by 3 to 168
  [0x00000244]  Set column to 8
  [0x00000246]  Copy (view 1)
  [0x00000247]  Set column to 3
  [0x00000249]  Advance Line by 18 to 186
  [0x0000024b]  Special opcode 47: advance Address by 12 to 0x1410 and Line by 0 to 186
  [0x0000024c]  Set column to 2
  [0x0000024e]  Special opcode 7: advance Address by 0 to 0x1410 and Line by 2 to 188 (view 1)
  [0x0000024f]  Set column to 1
  [0x00000251]  Set is_stmt to 0
  [0x00000252]  Special opcode 62: advance Address by 16 to 0x1420 and Line by 1 to 189
  [0x00000253]  Set column to 3
  [0x00000255]  Set is_stmt to 1
  [0x00000256]  Advance Line by -44 to 145
  [0x00000258]  Special opcode 61: advance Address by 16 to 0x1430 and Line by 0 to 145
  [0x00000259]  Set is_stmt to 0
  [0x0000025a]  Special opcode 19: advance Address by 4 to 0x1434 and Line by 0 to 145
  [0x0000025b]  Set is_stmt to 1
  [0x0000025c]  Special opcode 48: advance Address by 12 to 0x1440 and Line by 1 to 146
  [0x0000025d]  Special opcode 48: advance Address by 12 to 0x144c and Line by 1 to 147
  [0x0000025e]  Set column to 7
  [0x00000260]  Advance Line by 9 to 156
  [0x00000262]  Special opcode 19: advance Address by 4 to 0x1450 and Line by 0 to 156
  [0x00000263]  Set column to 3
  [0x00000265]  Special opcode 7: advance Address by 0 to 0x1450 and Line by 2 to 158 (view 1)
  [0x00000266]  Set column to 28
  [0x00000268]  Set is_stmt to 0
  [0x00000269]  Copy (view 2)
  [0x0000026a]  Set column to 36
  [0x0000026c]  Special opcode 19: advance Address by 4 to 0x1454 and Line by 0 to 158
  [0x0000026d]  Set column to 11
  [0x0000026f]  Special opcode 19: advance Address by 4 to 0x1458 and Line by 0 to 158
  [0x00000270]  Special opcode 61: advance Address by 16 to 0x1468 and Line by 0 to 158
  [0x00000271]  Set column to 4
  [0x00000273]  Set is_stmt to 1
  [0x00000274]  Advance Line by 17 to 175
  [0x00000276]  Special opcode 19: advance Address by 4 to 0x146c and Line by 0 to 175
  [0x00000277]  Set column to 3
  [0x00000279]  Special opcode 54: advance Address by 12 to 0x1478 and Line by 7 to 182
  [0x0000027a]  Special opcode 34: advance Address by 8 to 0x1480 and Line by 1 to 183
  [0x0000027b]  Special opcode 49: advance Address by 12 to 0x148c and Line by 2 to 185
  [0x0000027c]  Set column to 8
  [0x0000027e]  Advance Line by -17 to 168
  [0x00000280]  Copy (view 1)
  [0x00000281]  Set is_stmt to 0
  [0x00000282]  Special opcode 19: advance Address by 4 to 0x1490 and Line by 0 to 168
  [0x00000283]  Set column to 3
  [0x00000285]  Set is_stmt to 1
  [0x00000286]  Special opcode 36: advance Address by 8 to 0x1498 and Line by 3 to 171
  [0x00000287]  Special opcode 35: advance Address by 8 to 0x14a0 and Line by 2 to 173
  [0x00000288]  Set column to 5
  [0x0000028a]  Set is_stmt to 0
  [0x0000028b]  Copy (view 1)
  [0x0000028c]  Set column to 4
  [0x0000028e]  Set is_stmt to 1
  [0x0000028f]  Special opcode 53: advance Address by 12 to 0x14ac and Line by 6 to 179
  [0x00000290]  Set column to 1
  [0x00000292]  Advance Line by 14 to 193
  [0x00000294]  Special opcode 103: advance Address by 28 to 0x14c8 and Line by 0 to 193
  [0x00000295]  Set is_stmt to 0
  [0x00000296]  Copy (view 1)
  [0x00000297]  Set column to 2
  [0x00000299]  Set is_stmt to 1
  [0x0000029a]  Special opcode 49: advance Address by 12 to 0x14d4 and Line by 2 to 195
  [0x0000029b]  Set column to 8
  [0x0000029d]  Copy (view 1)
  [0x0000029e]  Set column to 14
  [0x000002a0]  Set is_stmt to 0
  [0x000002a1]  Copy (view 2)
  [0x000002a2]  Set column to 8
  [0x000002a4]  Special opcode 19: advance Address by 4 to 0x14d8 and Line by 0 to 195
  [0x000002a5]  Set column to 3
  [0x000002a7]  Set is_stmt to 1
  [0x000002a8]  Special opcode 63: advance Address by 16 to 0x14e8 and Line by 2 to 197
  [0x000002a9]  Special opcode 34: advance Address by 8 to 0x14f0 and Line by 1 to 198
  [0x000002aa]  Set column to 8
  [0x000002ac]  Special opcode 2: advance Address by 0 to 0x14f0 and Line by -3 to 195 (view 1)
  [0x000002ad]  Set column to 14
  [0x000002af]  Set is_stmt to 0
  [0x000002b0]  Copy (view 2)
  [0x000002b1]  Set column to 8
  [0x000002b3]  Special opcode 19: advance Address by 4 to 0x14f4 and Line by 0 to 195
  [0x000002b4]  Set column to 1
  [0x000002b6]  Special opcode 66: advance Address by 16 to 0x1504 and Line by 5 to 200
  [0x000002b7]  Special opcode 33: advance Address by 8 to 0x150c and Line by 0 to 200
  [0x000002b8]  Set column to 34
  [0x000002ba]  Set is_stmt to 1
  [0x000002bb]  Special opcode 62: advance Address by 16 to 0x151c and Line by 1 to 201
  [0x000002bc]  Set is_stmt to 0
  [0x000002bd]  Copy (view 1)
  [0x000002be]  Set column to 5
  [0x000002c0]  Set is_stmt to 1
  [0x000002c1]  Special opcode 49: advance Address by 12 to 0x1528 and Line by 2 to 203
  [0x000002c2]  Set is_stmt to 0
  [0x000002c3]  Special opcode 19: advance Address by 4 to 0x152c and Line by 0 to 203
  [0x000002c4]  Set column to 2
  [0x000002c6]  Set is_stmt to 1
  [0x000002c7]  Special opcode 48: advance Address by 12 to 0x1538 and Line by 1 to 204
  [0x000002c8]  Special opcode 34: advance Address by 8 to 0x1540 and Line by 1 to 205
  [0x000002c9]  Set column to 5
  [0x000002cb]  Special opcode 48: advance Address by 12 to 0x154c and Line by 1 to 206
  [0x000002cc]  Set column to 1
  [0x000002ce]  Set is_stmt to 0
  [0x000002cf]  Special opcode 6: advance Address by 0 to 0x154c and Line by 1 to 207 (view 1)
  [0x000002d0]  Advance PC by 32 to 0x156c
  [0x000002d2]  Extended opcode 1: End of Sequence


Contents of the .debug_str section (loaded from a.out):

  0x00000000 5f5f6f66 665f7400 5f494f5f 72656164 __off_t._IO_read
  0x00000010 5f707472 005f6368 61696e00 74696d65 _ptr._chain.time
  0x00000020 5f776f72 64007369 7a655f74 005f7368 _word.size_t._sh
  0x00000030 6f727462 75660073 7472696e 67007061 ortbuf.string.pa
  0x00000040 7468005f 494f5f62 75665f62 61736500 th._IO_buf_base.
  0x00000050 6c6f6e67 206c6f6e 6720756e 7369676e long long unsign
  0x00000060 65642069 6e74006e 616e6f73 6c656570 ed int.nanosleep
  0x00000070 006c6f6e 67206c6f 6e672069 6e74005f .long long int._
  0x00000080 5f627569 6c74696e 5f667772 69746500 _builtin_fwrite.
  0x00000090 626c696e 6b79005f 66696c65 6e6f005f blinky._fileno._
  0x000000a0 5f627569 6c74696e 5f667075 7463005f _builtin_fputc._
  0x000000b0 494f5f72 6561645f 656e6400 5f666c61 IO_read_end._fla
  0x000000c0 6773005f 494f5f62 75665f65 6e64005f gs._IO_buf_end._
  0x000000d0 6375725f 636f6c75 6d6e002e 2e2f6d6f cur_column.../mo
  0x000000e0 7273652e 63005f49 4f5f636f 64656376 rse.c._IO_codecv
  0x000000f0 7400646f 75626c65 005f6f6c 645f6f66 t.double._old_of
  0x00000100 66736574 00696f5f 696e6974 005f494f fset.io_init._IO
  0x00000110 5f6d6172 6b657200 5f667265 65726573 _marker._freeres
  0x00000120 5f627566 00667072 696e7466 005f494f _buf.fprintf._IO
  0x00000130 5f777269 74655f70 74720073 686f7274 _write_ptr.short
  0x00000140 20756e73 69676e65 6420696e 74005f49  unsigned int._I
  0x00000150 4f5f7361 76655f62 61736500 5f6c6f63 O_save_base._loc
  0x00000160 6b007370 72696e74 66005f66 6c616773 k.sprintf._flags
  0x00000170 32005f6d 6f646500 5f5f6275 696c7469 2._mode.__builti
  0x00000180 6e5f7075 7473006d 6f727365 0074765f n_puts.morse.tv_
  0x00000190 6e736563 0074765f 73656300 5f5f7379 nsec.tv_sec.__sy
  0x000001a0 7363616c 6c5f736c 6f6e675f 74005f49 scall_slong_t._I
  0x000001b0 4f5f7772 6974655f 656e6400 74696d65 O_write_end.time
  0x000001c0 5f646168 005f494f 5f6c6f63 6b5f7400 _dah._IO_lock_t.
  0x000001d0 696f5f77 72697465 005f494f 5f46494c io_write._IO_FIL
  0x000001e0 45007469 6d655f6c 65747465 72007061 E.time_letter.pa
  0x000001f0 74746572 6e00666f 70656e00 66666c75 ttern.fopen.fflu
  0x00000200 7368005f 6d61726b 65727300 6d6f7273 sh._markers.mors
  0x00000210 655f6c65 74746572 0074696d 655f6469 e_letter.time_di
  0x00000220 74007469 6d655f73 70616365 005f426f t.time_space._Bo
  0x00000230 6f6c0075 6e736967 6e656420 63686172 ol.unsigned char
  0x00000240 0073686f 72742069 6e74005f 494f5f77 .short int._IO_w
  0x00000250 6964655f 64617461 006d6f72 73655f74 ide_data.morse_t
  0x00000260 626c0074 696d6573 70656300 5f767461 bl.timespec._vta
  0x00000270 626c655f 6f666673 65740065 78697400 ble_offset.exit.
  0x00000280 66636c6f 7365005f 5f6f6666 36345f74 fclose.__off64_t
  0x00000290 005f494f 5f726561 645f6261 7365005f ._IO_read_base._
  0x000002a0 494f5f73 6176655f 656e6400 66736c65 IO_save_end.fsle
  0x000002b0 6570005f 5f706164 35002f72 6f6f742f ep.__pad5./root/
  0x000002c0 68656c6c 6f2d776f 726c642f 706f7765 hello-world/powe
  0x000002d0 72706336 342d6c69 6e75782d 676e7500 rpc64-linux-gnu.
  0x000002e0 5f5f7469 6d655f74 00474e55 20433939 __time_t.GNU C99
  0x000002f0 2031322e 322e3020 2d6d7365 63757265  12.2.0 -msecure
  0x00000300 2d706c74 202d6d63 70753d70 6f776572 -plt -mcpu=power
  0x00000310 39202d67 202d4f31 202d7374 643d676e 9 -g -O1 -std=gn
  0x00000320 75393920 2d666173 796e6368 726f6e6f u99 -fasynchrono
  0x00000330 75732d75 6e77696e 642d7461 626c6573 us-unwind-tables
  0x00000340 005f756e 75736564 32006172 67760073 ._unused2.argv.s
  0x00000350 74617475 73005f49 4f5f6261 636b7570 tatus._IO_backup
  0x00000360 5f626173 65006172 6763005f 66726565 _base.argc._free
  0x00000370 7265735f 6c697374 006d6169 6e005f49 res_list.main._I
  0x00000380 4f5f7772 6974655f 62617365 00       O_write_base.

Contents of the .debug_loclists section (loaded from a.out):

    Offset   Begin            End              Expression

    0000000c v000000000000000 v000000000000000 location view pair
    0000000e v000000000000000 v000000000000000 location view pair

    00000010 v000000000000000 v000000000000000 views at 0000000c for:
             000000000000151c 000000000000152c (DW_OP_reg3 (r3))
    00000017 v000000000000000 v000000000000000 views at 0000000e for:
             000000000000152c 000000000000156c (DW_OP_entry_value: (DW_OP_reg3 (r3)); DW_OP_stack_value)
    00000021 <End of list>

    00000022 v000000000000000 v000000000000000 location view pair
    00000024 v000000000000000 v000000000000000 location view pair

    00000026 v000000000000000 v000000000000000 views at 00000022 for:
             000000000000151c 0000000000001537 (DW_OP_reg4 (r4))
    0000002d v000000000000000 v000000000000000 views at 00000024 for:
             0000000000001537 000000000000156c (DW_OP_entry_value: (DW_OP_reg4 (r4)); DW_OP_stack_value)
    00000037 <End of list>

    00000038 v000000000000000 v000000000000000 location view pair
    0000003a v000000000000000 v000000000000001 location view pair
    0000003c v000000000000001 v000000000000000 location view pair
    0000003e v000000000000000 v000000000000000 location view pair

    00000040 v000000000000000 v000000000000000 views at 00000038 for:
             00000000000014c8 00000000000014d8 (DW_OP_reg3 (r3))
    00000047 v000000000000000 v000000000000001 views at 0000003a for:
             00000000000014d8 00000000000014f0 (DW_OP_reg31 (r31))
    0000004e v000000000000001 v000000000000000 views at 0000003c for:
             00000000000014f0 00000000000014f4 (DW_OP_breg31 (r31): 1; DW_OP_stack_value)
    00000057 v000000000000000 v000000000000000 views at 0000003e for:
             00000000000014f4 000000000000150c (DW_OP_reg31 (r31))
    0000005e <End of list>

    0000005f v000000000000000 v000000000000000 location view pair
    00000061 v000000000000000 v000000000000000 location view pair
    00000063 v000000000000000 v000000000000000 location view pair
    00000065 v000000000000000 v000000000000000 location view pair
    00000067 v000000000000000 v000000000000000 location view pair
    00000069 v000000000000000 v000000000000000 location view pair

    0000006b v000000000000000 v000000000000000 views at 0000005f for:
             00000000000013b0 00000000000013f8 (DW_OP_reg3 (r3))
    00000072 v000000000000000 v000000000000000 views at 00000061 for:
             00000000000013f8 0000000000001430 (DW_OP_entry_value: (DW_OP_reg3 (r3)); DW_OP_stack_value)
    0000007c v000000000000000 v000000000000000 views at 00000063 for:
             0000000000001430 0000000000001434 (DW_OP_reg3 (r3))
    00000083 v000000000000000 v000000000000000 views at 00000065 for:
             0000000000001434 0000000000001450 (DW_OP_entry_value: (DW_OP_reg3 (r3)); DW_OP_stack_value)
    0000008d v000000000000000 v000000000000000 views at 00000067 for:
             0000000000001450 000000000000146c (DW_OP_reg3 (r3))
    00000094 v000000000000000 v000000000000000 views at 00000069 for:
             000000000000146c 00000000000014c8 (DW_OP_entry_value: (DW_OP_reg3 (r3)); DW_OP_stack_value)
    0000009e <End of list>

    0000009f v000000000000001 v000000000000000 location view pair
    000000a1 v000000000000000 v000000000000000 location view pair
    000000a3 v000000000000000 v000000000000000 location view pair
    000000a5 v000000000000000 v000000000000001 location view pair
    000000a7 v000000000000001 v000000000000000 location view pair
    000000a9 v000000000000000 v000000000000000 location view pair

    000000ab v000000000000001 v000000000000000 views at 0000009f for:
             00000000000013cc 00000000000013f0 (DW_OP_addr: 1800; DW_OP_stack_value)
    000000bb v000000000000000 v000000000000000 views at 000000a1 for:
             00000000000013f0 0000000000001420 (DW_OP_reg31 (r31))
    000000c2 v000000000000000 v000000000000000 views at 000000a3 for:
             0000000000001450 0000000000001468 (DW_OP_addr: 1800; DW_OP_stack_value)
    000000d2 v000000000000000 v000000000000001 views at 000000a5 for:
             0000000000001468 000000000000148c (DW_OP_reg31 (r31))
    000000d9 v000000000000001 v000000000000000 views at 000000a7 for:
             000000000000148c 0000000000001490 (DW_OP_breg31 (r31): 1; DW_OP_stack_value)
    000000e2 v000000000000000 v000000000000000 views at 000000a9 for:
             0000000000001490 00000000000014c8 (DW_OP_reg31 (r31))
    000000e9 <End of list>

    000000ea v000000000000000 v000000000000000 location view pair
    000000ec v000000000000000 v000000000000000 location view pair

    000000ee v000000000000000 v000000000000000 views at 000000ea for:
             000000000000135c 0000000000001393 (DW_OP_regx: 33 (r33))
    000000f6 v000000000000000 v000000000000000 views at 000000ec for:
             0000000000001393 00000000000013b0 (DW_OP_entry_value: (DW_OP_regval_type: 33 (r33) <0x2e>); DW_OP_stack_value)
    00000102 <End of list>

    00000103 v000000000000000 v000000000000000 location view pair
    00000105 v000000000000000 v000000000000000 location view pair

    00000107 v000000000000000 v000000000000000 views at 00000103 for:
             00000000000012f8 0000000000001328 (DW_OP_reg3 (r3))
    0000010e v000000000000000 v000000000000000 views at 00000105 for:
             0000000000001328 000000000000135c (DW_OP_entry_value: (DW_OP_reg3 (r3)); DW_OP_stack_value)
    00000118 <End of list>

    00000119 v000000000000000 v000000000000000 location view pair
    0000011b v000000000000000 v000000000000000 location view pair

    0000011d v000000000000000 v000000000000000 views at 00000119 for:
             00000000000010d4 0000000000001100 (DW_OP_reg3 (r3))
    00000122 v000000000000000 v000000000000000 views at 0000011b for:
             0000000000001100 00000000000012f8 (DW_OP_entry_value: (DW_OP_reg3 (r3)); DW_OP_stack_value)
    0000012b <End of list>

