
a.out:     file format elf64-powerpc

SYMBOL TABLE:
0000000000000200 l    d  .interp	0000000000000000              .interp
0000000000000214 l    d  .note.gnu.build-id	0000000000000000              .note.gnu.build-id
0000000000000238 l    d  .note.ABI-tag	0000000000000000              .note.ABI-tag
0000000000000258 l    d  .gnu.hash	0000000000000000              .gnu.hash
0000000000000278 l    d  .dynsym	0000000000000000              .dynsym
0000000000000350 l    d  .dynstr	0000000000000000              .dynstr
00000000000003e8 l    d  .gnu.version	0000000000000000              .gnu.version
0000000000000400 l    d  .gnu.version_r	0000000000000000              .gnu.version_r
0000000000000440 l    d  .rela.dyn	0000000000000000              .rela.dyn
00000000000006b0 l    d  .rela.plt	0000000000000000              .rela.plt
0000000000000720 l    d  .init	0000000000000000              .init
0000000000000780 l    d  .text	0000000000000000              .text
0000000000000b4c l    d  .fini	0000000000000000              .fini
0000000000000b68 l    d  .rodata	0000000000000000              .rodata
0000000000000bac l    d  .eh_frame_hdr	0000000000000000              .eh_frame_hdr
0000000000000bd0 l    d  .eh_frame	0000000000000000              .eh_frame
000000000001fc08 l    d  .init_array	0000000000000000              .init_array
000000000001fc10 l    d  .fini_array	0000000000000000              .fini_array
000000000001fc18 l    d  .data.rel.ro	0000000000000000              .data.rel.ro
000000000001fc38 l    d  .dynamic	0000000000000000              .dynamic
000000000001fe28 l    d  .opd	0000000000000000              .opd
000000000001ff00 l    d  .got	0000000000000000              .got
0000000000020000 l    d  .plt	0000000000000000              .plt
0000000000020078 l    d  .data	0000000000000000              .data
0000000000020088 l    d  .bss	0000000000000000              .bss
0000000000000000 l    d  .comment	0000000000000000              .comment
0000000000000000 l    d  .debug_aranges	0000000000000000              .debug_aranges
0000000000000000 l    d  .debug_info	0000000000000000              .debug_info
0000000000000000 l    d  .debug_abbrev	0000000000000000              .debug_abbrev
0000000000000000 l    d  .debug_line	0000000000000000              .debug_line
0000000000000000 l    d  .debug_str	0000000000000000              .debug_str
0000000000000000 l    d  .debug_loclists	0000000000000000              .debug_loclists
0000000000000000 l    d  .debug_rnglists	0000000000000000              .debug_rnglists
0000000000000000 l    df *ABS*	0000000000000000              Scrt1.o
0000000000000238 l     O .note.ABI-tag	0000000000000020              __abi_tag
0000000000000000 l    df *ABS*	0000000000000000              crtstuff.c
000000000001fe70 l     F .opd	0000000000000000              deregister_tm_clones
000000000001fe88 l     F .opd	0000000000000000              register_tm_clones
000000000001fea0 l     F .opd	0000000000000000              __do_global_dtors_aux
0000000000020088 l     O .bss	0000000000000001              completed.0
000000000001fc10 l     O .fini_array	0000000000000000              __do_global_dtors_aux_fini_array_entry
000000000001feb8 l     F .opd	0000000000000000              frame_dummy
000000000001fc08 l     O .init_array	0000000000000000              __frame_dummy_init_array_entry
0000000000000000 l    df *ABS*	0000000000000000              sort.c
0000000000000000 l    df *ABS*	0000000000000000              crtstuff.c
0000000000000c40 l     O .eh_frame	0000000000000000              __FRAME_END__
0000000000000000 l    df *ABS*	0000000000000000              
00000000000007a0 l       .text	0000000000000000              0000001b.plt_call.printf@@GLIBC_2.4
0000000000000b00 l       .text	0000000000000000              __glink_PLTresolve
0000000000000780 l       .text	0000000000000000              0000001b.plt_call.__libc_start_main@@GLIBC_2.34
0000000000000720 l       .init	0000000000000000              00000037.plt_call.__gmon_start__
000000000001fc38 l     O .dynamic	0000000000000000              _DYNAMIC
00000000000007c0 l       .text	0000000000000000              0000001b.plt_call.__cxa_finalize@@GLIBC_2.3
0000000000000bac l       .eh_frame_hdr	0000000000000000              __GNU_EH_FRAME_HDR
0000000000000000       F *UND*	0000000000000000              __libc_start_main@GLIBC_2.34
0000000000000000  w      *UND*	0000000000000000              _ITM_deregisterTMCloneTable
0000000000020078  w      .data	0000000000000000              data_start
0000000000000000       F *UND*	0000000000000000              printf@GLIBC_2.4
0000000000020088 g       .data	0000000000000000              _edata
000000000001fe58 g     F .opd	0000000000000000              .hidden _fini
0000000000020078 g       .data	0000000000000000              __data_start
0000000000000000  w      *UND*	0000000000000000              __gmon_start__
0000000000020080 g     O .data	0000000000000000              .hidden __dso_handle
0000000000000b68 g     O .rodata	0000000000000004              _IO_stdin_used
0000000000000000  w    F *UND*	0000000000000000              __cxa_finalize@GLIBC_2.3
0000000000020090 g       .bss	0000000000000000              _end
000000000001fe28 g     F .opd	0000000000000040              _start
0000000000020088 g       .bss	0000000000000000              __bss_start
000000000001fee8 g     F .opd	000000000000012c              main
0000000000020088 g     O .data	0000000000000000              .hidden __TMC_END__
0000000000000000  w      *UND*	0000000000000000              _ITM_registerTMCloneTable
000000000001fed0 g     F .opd	0000000000000074              insertion_sort
000000000001fe40 g     F .opd	0000000000000000              .hidden _init



Disassembly of section .init:

0000000000000720 <00000037.plt_call.__gmon_start__>:
 720:	f8 41 00 28 	std     r2,40(r1)
 724:	e9 82 81 48 	ld      r12,-32440(r2)
 728:	7d 89 03 a6 	mtctr   r12
 72c:	e8 42 81 50 	ld      r2,-32432(r2)
 730:	4e 80 04 20 	bctr
	...

0000000000000740 <._init>:
 740:	7c 08 02 a6 	mflr    r0
 744:	f8 01 00 10 	std     r0,16(r1)
 748:	f8 21 ff 91 	stdu    r1,-112(r1)
 74c:	60 00 00 00 	nop
 750:	e8 02 80 08 	ld      r0,-32760(r2)
 754:	2f a0 00 00 	cmpdi   cr7,r0,0
 758:	41 fe 00 0c 	beq+    cr7,764 <._init+0x24>
 75c:	4b ff ff c5 	bl      720 <00000037.plt_call.__gmon_start__>
 760:	e8 41 00 28 	ld      r2,40(r1)
 764:	38 21 00 70 	addi    r1,r1,112
 768:	e8 01 00 10 	ld      r0,16(r1)
 76c:	7c 08 03 a6 	mtlr    r0
 770:	4e 80 00 20 	blr

Disassembly of section .text:

0000000000000780 <0000001b.plt_call.__libc_start_main@@GLIBC_2.34>:
 780:	f8 41 00 28 	std     r2,40(r1)
 784:	e9 82 81 18 	ld      r12,-32488(r2)
 788:	7d 89 03 a6 	mtctr   r12
 78c:	e8 42 81 20 	ld      r2,-32480(r2)
 790:	4e 80 04 20 	bctr
	...

00000000000007a0 <0000001b.plt_call.printf@@GLIBC_2.4>:
 7a0:	f8 41 00 28 	std     r2,40(r1)
 7a4:	e9 82 81 30 	ld      r12,-32464(r2)
 7a8:	7d 89 03 a6 	mtctr   r12
 7ac:	e8 42 81 38 	ld      r2,-32456(r2)
 7b0:	4e 80 04 20 	bctr
	...

00000000000007c0 <0000001b.plt_call.__cxa_finalize@@GLIBC_2.3>:
 7c0:	f8 41 00 28 	std     r2,40(r1)
 7c4:	e9 82 81 60 	ld      r12,-32416(r2)
 7c8:	7d 89 03 a6 	mtctr   r12
 7cc:	e8 42 81 68 	ld      r2,-32408(r2)
 7d0:	4e 80 04 20 	bctr
	...

00000000000007e0 <._start>:
 7e0:	7c 29 0b 78 	mr      r9,r1
 7e4:	78 21 06 e4 	clrrdi  r1,r1,4
 7e8:	38 00 00 00 	li      r0,0
 7ec:	f8 21 ff 81 	stdu    r1,-128(r1)
 7f0:	7c 08 03 a6 	mtlr    r0
 7f4:	f8 01 00 00 	std     r0,0(r1)
 7f8:	3d 02 ff ff 	addis   r8,r2,-1
 7fc:	39 08 7d 18 	addi    r8,r8,32024
 800:	4b ff ff 80 	b       780 <0000001b.plt_call.__libc_start_main@@GLIBC_2.34>
 804:	60 00 00 00 	nop
 808:	00 00 00 00 	.long 0x0
 80c:	00 0c 20 40 	.long 0xc2040
 810:	00 00 00 00 	.long 0x0
 814:	00 00 00 28 	.long 0x28
 818:	00 06 5f 73 	.long 0x65f73
 81c:	74 61 72 74 	andis.  r1,r3,29300

0000000000000820 <.deregister_tm_clones>:
 820:	60 00 00 00 	nop
 824:	60 00 00 00 	nop
 828:	38 62 81 88 	addi    r3,r2,-32376
 82c:	39 22 81 88 	addi    r9,r2,-32376
 830:	7c 29 18 00 	cmpd    r9,r3
 834:	4d 82 00 20 	beqlr
 838:	60 00 00 00 	nop
 83c:	e9 22 80 10 	ld      r9,-32752(r2)
 840:	2c 29 00 00 	cmpdi   r9,0
 844:	4d 82 00 20 	beqlr
 848:	7c 08 02 a6 	mflr    r0
 84c:	f8 01 00 10 	std     r0,16(r1)
 850:	f8 21 ff 91 	stdu    r1,-112(r1)
 854:	f8 41 00 28 	std     r2,40(r1)
 858:	e9 49 00 00 	ld      r10,0(r9)
 85c:	e9 69 00 10 	ld      r11,16(r9)
 860:	7d 49 03 a6 	mtctr   r10
 864:	e8 49 00 08 	ld      r2,8(r9)
 868:	4e 80 04 21 	bctrl
 86c:	e8 41 00 28 	ld      r2,40(r1)
 870:	38 21 00 70 	addi    r1,r1,112
 874:	e8 01 00 10 	ld      r0,16(r1)
 878:	7c 08 03 a6 	mtlr    r0
 87c:	4e 80 00 20 	blr

0000000000000880 <.register_tm_clones>:
 880:	60 00 00 00 	nop
 884:	60 00 00 00 	nop
 888:	38 62 81 88 	addi    r3,r2,-32376
 88c:	38 82 81 88 	addi    r4,r2,-32376
 890:	7c 83 20 50 	subf    r4,r3,r4
 894:	7c 84 1e 74 	sradi   r4,r4,3
 898:	7c 84 0e 74 	sradi   r4,r4,1
 89c:	7c 84 01 95 	addze.  r4,r4
 8a0:	4d 82 00 20 	beqlr
 8a4:	60 00 00 00 	nop
 8a8:	e9 22 80 18 	ld      r9,-32744(r2)
 8ac:	2c 29 00 00 	cmpdi   r9,0
 8b0:	4d 82 00 20 	beqlr
 8b4:	7c 08 02 a6 	mflr    r0
 8b8:	f8 01 00 10 	std     r0,16(r1)
 8bc:	f8 21 ff 91 	stdu    r1,-112(r1)
 8c0:	f8 41 00 28 	std     r2,40(r1)
 8c4:	e9 49 00 00 	ld      r10,0(r9)
 8c8:	e9 69 00 10 	ld      r11,16(r9)
 8cc:	7d 49 03 a6 	mtctr   r10
 8d0:	e8 49 00 08 	ld      r2,8(r9)
 8d4:	4e 80 04 21 	bctrl
 8d8:	e8 41 00 28 	ld      r2,40(r1)
 8dc:	38 21 00 70 	addi    r1,r1,112
 8e0:	e8 01 00 10 	ld      r0,16(r1)
 8e4:	7c 08 03 a6 	mtlr    r0
 8e8:	4e 80 00 20 	blr
 8ec:	60 00 00 00 	nop

00000000000008f0 <.__do_global_dtors_aux>:
 8f0:	60 00 00 00 	nop
 8f4:	89 22 81 88 	lbz     r9,-32376(r2)
 8f8:	2c 09 00 00 	cmpwi   r9,0
 8fc:	4c 82 00 20 	bnelr
 900:	7c 08 02 a6 	mflr    r0
 904:	60 00 00 00 	nop
 908:	e9 22 80 20 	ld      r9,-32736(r2)
 90c:	2c 29 00 00 	cmpdi   r9,0
 910:	f8 01 00 10 	std     r0,16(r1)
 914:	f8 21 ff 91 	stdu    r1,-112(r1)
 918:	41 82 00 14 	beq     92c <.__do_global_dtors_aux+0x3c>
 91c:	60 00 00 00 	nop
 920:	e8 62 81 80 	ld      r3,-32384(r2)
 924:	4b ff fe 9d 	bl      7c0 <0000001b.plt_call.__cxa_finalize@@GLIBC_2.3>
 928:	e8 41 00 28 	ld      r2,40(r1)
 92c:	4b ff fe f5 	bl      820 <.deregister_tm_clones>
 930:	38 21 00 70 	addi    r1,r1,112
 934:	39 20 00 01 	li      r9,1
 938:	60 00 00 00 	nop
 93c:	e8 01 00 10 	ld      r0,16(r1)
 940:	99 22 81 88 	stb     r9,-32376(r2)
 944:	7c 08 03 a6 	mtlr    r0
 948:	4e 80 00 20 	blr
 94c:	60 00 00 00 	nop

0000000000000950 <.frame_dummy>:
 950:	4b ff ff 30 	b       880 <.register_tm_clones>

0000000000000954 <.insertion_sort>:
# 
# /* Insertion Sort function example from Rosetta Code */
# void insertion_sort(int*, const size_t); 
# 
# void insertion_sort(int *a, const size_t n) {
# 	for(size_t i = 1; i < n; ++i) {
 954:	28 24 00 01 	cmpldi  r4,1
 958:	4c 81 00 20 	blelr
 95c:	7c 65 1b 78 	mr      r5,r3
 960:	38 c0 00 01 	li      r6,1
 964:	48 00 00 18 	b       97c <.insertion_sort+0x28>
# 		size_t j = i;
# 		while( (j > 0) && (key < a[j - 1]) ) {
# 			a[j] = a[j - 1];
# 			--j;
# 		}
# 		a[j] = key;
 968:	79 08 17 64 	sldi    r8,r8,2
 96c:	7c e3 41 2e 	stwx    r7,r3,r8
# 	for(size_t i = 1; i < n; ++i) {
 970:	38 c6 00 01 	addi    r6,r6,1
 974:	7c 24 30 40 	cmpld   r4,r6
 978:	4d 82 00 20 	beqlr
# 		int key = a[i];
 97c:	84 e5 00 04 	lwzu    r7,4(r5)
# 		while( (j > 0) && (key < a[j - 1]) ) {
 980:	7c a9 2b 78 	mr      r9,r5
 984:	7c c8 33 78 	mr      r8,r6
 988:	7c c9 03 a6 	mtctr   r6
 98c:	2c 26 00 00 	cmpdi   r6,0
 990:	41 82 00 20 	beq     9b0 <.insertion_sort+0x5c>
 994:	85 49 ff fc 	lwzu    r10,-4(r9)
 998:	7c 0a 38 00 	cmpw    r10,r7
 99c:	40 81 ff cc 	ble     968 <.insertion_sort+0x14>
# 			a[j] = a[j - 1];
 9a0:	91 49 00 04 	stw     r10,4(r9)
# 			--j;
 9a4:	39 08 ff ff 	addi    r8,r8,-1
# 		while( (j > 0) && (key < a[j - 1]) ) {
 9a8:	42 00 ff ec 	bdnz    994 <.insertion_sort+0x40>
 9ac:	4b ff ff bc 	b       968 <.insertion_sort+0x14>
# 		a[j] = key;
 9b0:	90 e3 00 00 	stw     r7,0(r3)
# 	for(size_t i = 1; i < n; ++i) {
 9b4:	38 c6 00 01 	addi    r6,r6,1
 9b8:	4b ff ff c4 	b       97c <.insertion_sort+0x28>
	...

00000000000009c8 <.main>:
# 	}
# }
# 
# int main (int argc, char** argv) {
 9c8:	7c 08 02 a6 	mflr    r0
 9cc:	f8 01 00 10 	std     r0,16(r1)
 9d0:	fb 61 ff d8 	std     r27,-40(r1)
 9d4:	fb 81 ff e0 	std     r28,-32(r1)
 9d8:	fb a1 ff e8 	std     r29,-24(r1)
 9dc:	fb c1 ff f0 	std     r30,-16(r1)
 9e0:	fb e1 ff f8 	std     r31,-8(r1)
 9e4:	f8 21 ff 31 	stdu    r1,-208(r1)
# 
#     int a[] = {4, 65, 2, -31, 0, 99, 2, 83, 782, 1};
 9e8:	3d 22 ff fe 	addis   r9,r2,-2
 9ec:	39 29 8c 84 	addi    r9,r9,-29564
 9f0:	f5 89 00 01 	lxv     vs12,0(r9)
 9f4:	f4 09 00 11 	lxv     vs0,16(r9)
 9f8:	e9 29 00 20 	ld      r9,32(r9)
 9fc:	f5 81 00 75 	stxv    vs12,112(r1)
 a00:	f4 01 00 85 	stxv    vs0,128(r1)
 a04:	f9 21 00 90 	std     r9,144(r1)
# 
#     const size_t n = sizeof(a) / sizeof(a[0]) ;   // array extent 
# 
#     for (size_t i = 0; i < n; i++)
 a08:	3b e1 00 6c 	addi    r31,r1,108
 a0c:	3b a1 00 94 	addi    r29,r1,148
#     int a[] = {4, 65, 2, -31, 0, 99, 2, 83, 782, 1};
 a10:	7f fe fb 78 	mr      r30,r31
#         printf("%d%s", a[i], (i == (n - 1))? "\n" : " ");
 a14:	3f 62 ff fe 	addis   r27,r2,-2
 a18:	3b 7b 8c 70 	addi    r27,r27,-29584
 a1c:	3f 82 ff fe 	addis   r28,r2,-2
 a20:	3b 9c 8c 78 	addi    r28,r28,-29576
 a24:	48 00 00 18 	b       a3c <.main+0x74>
 a28:	7f 65 db 78 	mr      r5,r27
 a2c:	7c 84 07 b4 	extsw   r4,r4
 a30:	7f 83 e3 78 	mr      r3,r28
 a34:	4b ff fd 6d 	bl      7a0 <0000001b.plt_call.printf@@GLIBC_2.4>
 a38:	e8 41 00 28 	ld      r2,40(r1)
 a3c:	84 9e 00 04 	lwzu    r4,4(r30)
 a40:	7c 3e e8 40 	cmpld   r30,r29
 a44:	40 82 ff e4 	bne     a28 <.main+0x60>
 a48:	3c a2 ff fe 	addis   r5,r2,-2
 a4c:	38 a5 8c 80 	addi    r5,r5,-29568
 a50:	7c 84 07 b4 	extsw   r4,r4
 a54:	3c 62 ff fe 	addis   r3,r2,-2
 a58:	38 63 8c 78 	addi    r3,r3,-29576
 a5c:	4b ff fd 45 	bl      7a0 <0000001b.plt_call.printf@@GLIBC_2.4>
 a60:	e8 41 00 28 	ld      r2,40(r1)
# 
#     insertion_sort(a, n);
 a64:	38 80 00 0a 	li      r4,10
 a68:	38 61 00 70 	addi    r3,r1,112
 a6c:	4b ff fe e9 	bl      954 <.insertion_sort>
# 
#     for (size_t i = 0; i < n; i++)
#         printf("%d%s", a[i], (i == (n - 1))? "\n" : " ");
 a70:	3f 82 ff fe 	addis   r28,r2,-2
 a74:	3b 9c 8c 70 	addi    r28,r28,-29584
 a78:	3f c2 ff fe 	addis   r30,r2,-2
 a7c:	3b de 8c 78 	addi    r30,r30,-29576
 a80:	48 00 00 18 	b       a98 <.main+0xd0>
 a84:	7f 85 e3 78 	mr      r5,r28
 a88:	7c 84 07 b4 	extsw   r4,r4
 a8c:	7f c3 f3 78 	mr      r3,r30
 a90:	4b ff fd 11 	bl      7a0 <0000001b.plt_call.printf@@GLIBC_2.4>
 a94:	e8 41 00 28 	ld      r2,40(r1)
 a98:	84 9f 00 04 	lwzu    r4,4(r31)
 a9c:	7c 3f e8 40 	cmpld   r31,r29
 aa0:	40 82 ff e4 	bne     a84 <.main+0xbc>
 aa4:	3c a2 ff fe 	addis   r5,r2,-2
 aa8:	38 a5 8c 80 	addi    r5,r5,-29568
 aac:	7c 84 07 b4 	extsw   r4,r4
 ab0:	3c 62 ff fe 	addis   r3,r2,-2
 ab4:	38 63 8c 78 	addi    r3,r3,-29576
 ab8:	4b ff fc e9 	bl      7a0 <0000001b.plt_call.printf@@GLIBC_2.4>
 abc:	e8 41 00 28 	ld      r2,40(r1)
# 
#     return 0;
 ac0:	38 60 00 00 	li      r3,0
 ac4:	38 21 00 d0 	addi    r1,r1,208
 ac8:	e8 01 00 10 	ld      r0,16(r1)
 acc:	7c 08 03 a6 	mtlr    r0
 ad0:	eb 61 ff d8 	ld      r27,-40(r1)
 ad4:	eb 81 ff e0 	ld      r28,-32(r1)
 ad8:	eb a1 ff e8 	ld      r29,-24(r1)
 adc:	eb c1 ff f0 	ld      r30,-16(r1)
 ae0:	eb e1 ff f8 	ld      r31,-8(r1)
 ae4:	4e 80 00 20 	blr
 ae8:	00 00 00 00 	.long 0x0
 aec:	00 00 00 01 	.long 0x1
 af0:	80 05 00 00 	lwz     r0,0(r5)
 af4:	60 00 00 00 	nop
 af8:	00 00 00 00 	.long 0x0
 afc:	00 01 f4 f8 	.long 0x1f4f8

0000000000000b00 <__glink_PLTresolve>:
 b00:	7d 88 02 a6 	mflr    r12
 b04:	42 9f 00 05 	bcl     20,4*cr7+so,b08 <__glink_PLTresolve+0x8>
 b08:	7d 68 02 a6 	mflr    r11
 b0c:	e8 4b ff f0 	ld      r2,-16(r11)
 b10:	7d 88 03 a6 	mtlr    r12
 b14:	7d 62 5a 14 	add     r11,r2,r11
 b18:	e9 8b 00 00 	ld      r12,0(r11)
 b1c:	e8 4b 00 08 	ld      r2,8(r11)
 b20:	7d 89 03 a6 	mtctr   r12
 b24:	e9 6b 00 10 	ld      r11,16(r11)
 b28:	4e 80 04 20 	bctr

0000000000000b2c <__libc_start_main@plt>:
 b2c:	38 00 00 00 	li      r0,0
 b30:	4b ff ff d0 	b       b00 <__glink_PLTresolve>

0000000000000b34 <printf@plt>:
 b34:	38 00 00 01 	li      r0,1
 b38:	4b ff ff c8 	b       b00 <__glink_PLTresolve>

0000000000000b3c <__gmon_start__@plt>:
 b3c:	38 00 00 02 	li      r0,2
 b40:	4b ff ff c0 	b       b00 <__glink_PLTresolve>

0000000000000b44 <__cxa_finalize@plt>:
 b44:	38 00 00 03 	li      r0,3
 b48:	4b ff ff b8 	b       b00 <__glink_PLTresolve>

Disassembly of section .fini:

0000000000000b4c <._fini>:
 b4c:	7c 08 02 a6 	mflr    r0
 b50:	f8 01 00 10 	std     r0,16(r1)
 b54:	f8 21 ff 91 	stdu    r1,-112(r1)
 b58:	38 21 00 70 	addi    r1,r1,112
 b5c:	e8 01 00 10 	ld      r0,16(r1)
 b60:	7c 08 03 a6 	mtlr    r0
 b64:	4e 80 00 20 	blr
Contents of the .eh_frame section (loaded from a.out):


00000000 0000000000000010 00000000 CIE
  Version:               1
  Augmentation:          "zR"
  Code alignment factor: 4
  Data alignment factor: -8
  Return address column: 65
  Augmentation data:     1b
  DW_CFA_def_cfa: r1 ofs 0

00000014 0000000000000014 00000018 FDE cie=00000000 pc=0000000000000b00..0000000000000b4c
  DW_CFA_advance_loc: 8 to 0000000000000b08
  DW_CFA_register: r65 in r12
  DW_CFA_advance_loc: 16 to 0000000000000b18
  DW_CFA_restore_extended: r65

0000002c 0000000000000010 00000030 FDE cie=00000000 pc=0000000000000954..00000000000009c8
  DW_CFA_nop
  DW_CFA_nop
  DW_CFA_nop

00000040 000000000000002c 00000044 FDE cie=00000000 pc=00000000000009c8..0000000000000af4
  DW_CFA_advance_loc: 32 to 00000000000009e8
  DW_CFA_def_cfa_offset: 208
  DW_CFA_offset_extended_sf: r65 at cfa+16
  DW_CFA_offset: r27 at cfa-40
  DW_CFA_offset: r28 at cfa-32
  DW_CFA_offset: r29 at cfa-24
  DW_CFA_offset: r30 at cfa-16
  DW_CFA_offset: r31 at cfa-8
  DW_CFA_advance_loc: 224 to 0000000000000ac8
  DW_CFA_def_cfa_offset: 0
  DW_CFA_advance_loc: 8 to 0000000000000ad0
  DW_CFA_restore_extended: r65
  DW_CFA_advance_loc: 20 to 0000000000000ae4
  DW_CFA_restore: r31
  DW_CFA_restore: r30
  DW_CFA_restore: r29
  DW_CFA_restore: r28
  DW_CFA_restore: r27
  DW_CFA_nop
  DW_CFA_nop

00000070 ZERO terminator


Contents of the .debug_aranges section (loaded from a.out):

  Length:                   44
  Version:                  2
  Offset into .debug_info:  0
  Pointer Size:             8
  Segment Size:             0

    Address            Length
    0000000000000954 00000000000001a0
    0000000000000000 0000000000000000

Contents of the .debug_info section (loaded from a.out):

  Compilation Unit @ offset 0:
   Length:        0x284 (32-bit)
   Version:       5
   Unit Type:     DW_UT_compile (1)
   Abbrev Offset: 0
   Pointer Size:  8
 <0><c>: Abbrev Number: 10 (DW_TAG_compile_unit)
    <d>   DW_AT_producer    : (indirect string, offset: 0x93): GNU C99 12.2.0 -msecure-plt -mcpu=power9 -g -O1 -std=gnu99 -fasynchronous-unwind-tables
    <11>   DW_AT_language    : 12	(ANSI C99)
    <12>   DW_AT_name        : (indirect string, offset: 0): ../sort.c
    <16>   DW_AT_comp_dir    : (indirect string, offset: 0x11): /root/hello-world/powerpc64-linux-gnu
    <1a>   DW_AT_low_pc      : 0x954
    <22>   DW_AT_high_pc     : 0x1a0
    <2a>   DW_AT_stmt_list   : 0
 <1><2e>: Abbrev Number: 11 (DW_TAG_typedef)
    <2f>   DW_AT_name        : (indirect string, offset: 0xa): size_t
    <33>   DW_AT_decl_file   : 2
    <34>   DW_AT_decl_line   : 214
    <35>   DW_AT_decl_column : 23
    <36>   DW_AT_type        : <0x3f>
 <1><3a>: Abbrev Number: 6 (DW_TAG_const_type)
    <3b>   DW_AT_type        : <0x2e>
 <1><3f>: Abbrev Number: 2 (DW_TAG_base_type)
    <40>   DW_AT_byte_size   : 8
    <41>   DW_AT_encoding    : 7	(unsigned)
    <42>   DW_AT_name        : (indirect string, offset: 0x46): long unsigned int
 <1><46>: Abbrev Number: 2 (DW_TAG_base_type)
    <47>   DW_AT_byte_size   : 1
    <48>   DW_AT_encoding    : 8	(unsigned char)
    <49>   DW_AT_name        : (indirect string, offset: 0x61): char
 <1><4d>: Abbrev Number: 6 (DW_TAG_const_type)
    <4e>   DW_AT_type        : <0x46>
 <1><52>: Abbrev Number: 2 (DW_TAG_base_type)
    <53>   DW_AT_byte_size   : 1
    <54>   DW_AT_encoding    : 8	(unsigned char)
    <55>   DW_AT_name        : (indirect string, offset: 0x58): unsigned char
 <1><59>: Abbrev Number: 2 (DW_TAG_base_type)
    <5a>   DW_AT_byte_size   : 2
    <5b>   DW_AT_encoding    : 7	(unsigned)
    <5c>   DW_AT_name        : (indirect string, offset: 0x79): short unsigned int
 <1><60>: Abbrev Number: 2 (DW_TAG_base_type)
    <61>   DW_AT_byte_size   : 4
    <62>   DW_AT_encoding    : 7	(unsigned)
    <63>   DW_AT_name        : (indirect string, offset: 0x4b): unsigned int
 <1><67>: Abbrev Number: 2 (DW_TAG_base_type)
    <68>   DW_AT_byte_size   : 1
    <69>   DW_AT_encoding    : 6	(signed char)
    <6a>   DW_AT_name        : (indirect string, offset: 0x5a): signed char
 <1><6e>: Abbrev Number: 2 (DW_TAG_base_type)
    <6f>   DW_AT_byte_size   : 2
    <70>   DW_AT_encoding    : 5	(signed)
    <71>   DW_AT_name        : (indirect string, offset: 0xeb): short int
 <1><75>: Abbrev Number: 12 (DW_TAG_base_type)
    <76>   DW_AT_byte_size   : 4
    <77>   DW_AT_encoding    : 5	(signed)
    <78>   DW_AT_name        : int
 <1><7c>: Abbrev Number: 2 (DW_TAG_base_type)
    <7d>   DW_AT_byte_size   : 8
    <7e>   DW_AT_encoding    : 5	(signed)
    <7f>   DW_AT_name        : (indirect string, offset: 0x6b): long int
 <1><83>: Abbrev Number: 4 (DW_TAG_pointer_type)
    <84>   DW_AT_byte_size   : 8
    <84>   DW_AT_type        : <0x46>
 <1><88>: Abbrev Number: 13 (DW_TAG_subprogram)
    <89>   DW_AT_external    : 1
    <89>   DW_AT_name        : (indirect string, offset: 0x8c): printf
    <8d>   DW_AT_decl_file   : 3
    <8e>   DW_AT_decl_line   : 356
    <90>   DW_AT_decl_column : 12
    <91>   DW_AT_prototyped  : 1
    <91>   DW_AT_type        : <0x75>
    <95>   DW_AT_declaration : 1
    <95>   DW_AT_sibling     : <0xa0>
 <2><99>: Abbrev Number: 14 (DW_TAG_formal_parameter)
    <9a>   DW_AT_type        : <0xa0>
 <2><9e>: Abbrev Number: 15 (DW_TAG_unspecified_parameters)
 <2><9f>: Abbrev Number: 0
 <1><a0>: Abbrev Number: 4 (DW_TAG_pointer_type)
    <a1>   DW_AT_byte_size   : 8
    <a1>   DW_AT_type        : <0x4d>
 <1><a5>: Abbrev Number: 16 (DW_TAG_subprogram)
    <a6>   DW_AT_external    : 1
    <a6>   DW_AT_name        : (indirect string, offset: 0x66): main
    <aa>   DW_AT_decl_file   : 1
    <ab>   DW_AT_decl_line   : 18
    <ac>   DW_AT_decl_column : 5
    <ad>   DW_AT_prototyped  : 1
    <ad>   DW_AT_type        : <0x75>
    <b1>   DW_AT_low_pc      : 0x9c8
    <b9>   DW_AT_high_pc     : 0x12c
    <c1>   DW_AT_frame_base  : 1 byte block: 9c 	(DW_OP_call_frame_cfa)
    <c3>   DW_AT_call_all_calls: 1
    <c3>   DW_AT_sibling     : <0x1ed>
 <2><c7>: Abbrev Number: 7 (DW_TAG_formal_parameter)
    <c8>   DW_AT_name        : (indirect string, offset: 0x74): argc
    <cc>   DW_AT_decl_file   : 1
    <cc>   DW_AT_decl_line   : 18
    <cc>   DW_AT_decl_column : 15
    <cd>   DW_AT_type        : <0x75>
    <d1>   DW_AT_location    : 0x10 (location list)
    <d5>   DW_AT_GNU_locviews: 0xc
 <2><d9>: Abbrev Number: 7 (DW_TAG_formal_parameter)
    <da>   DW_AT_name        : (indirect string, offset: 0xf5): argv
    <de>   DW_AT_decl_file   : 1
    <de>   DW_AT_decl_line   : 18
    <de>   DW_AT_decl_column : 28
    <df>   DW_AT_type        : <0x1ed>
    <e3>   DW_AT_location    : 0x25 (location list)
    <e7>   DW_AT_GNU_locviews: 0x21
 <2><eb>: Abbrev Number: 17 (DW_TAG_variable)
    <ec>   DW_AT_name        : a
    <ee>   DW_AT_decl_file   : 1
    <ef>   DW_AT_decl_line   : 20
    <f0>   DW_AT_decl_column : 9
    <f1>   DW_AT_type        : <0x1f2>
    <f5>   DW_AT_location    : 3 byte block: 91 a0 7f 	(DW_OP_fbreg: -96)
 <2><f9>: Abbrev Number: 18 (DW_TAG_variable)
    <fa>   DW_AT_name        : n
    <fc>   DW_AT_decl_file   : 1
    <fd>   DW_AT_decl_line   : 22
    <fe>   DW_AT_decl_column : 18
    <ff>   DW_AT_type        : <0x3a>
    <103>   DW_AT_const_value : 10
 <2><104>: Abbrev Number: 19 (DW_TAG_lexical_block)
    <105>   DW_AT_ranges      : 0x13
    <109>   DW_AT_sibling     : <0x165>
 <3><10d>: Abbrev Number: 3 (DW_TAG_variable)
    <10e>   DW_AT_name        : i
    <110>   DW_AT_decl_file   : 1
    <110>   DW_AT_decl_line   : 24
    <111>   DW_AT_decl_column : 17
    <112>   DW_AT_type        : <0x2e>
    <116>   DW_AT_location    : 0x38 (location list)
    <11a>   DW_AT_GNU_locviews: 0x36
 <3><11e>: Abbrev Number: 8 (DW_TAG_call_site)
    <11f>   DW_AT_call_return_pc: 0xa3c
    <127>   DW_AT_call_origin : <0x88>
    <12b>   DW_AT_sibling     : <0x13c>
 <4><12f>: Abbrev Number: 1 (DW_TAG_call_site_parameter)
    <130>   DW_AT_location    : 1 byte block: 53 	(DW_OP_reg3 (r3))
    <132>   DW_AT_call_value  : 2 byte block: 8c 0 	(DW_OP_breg28 (r28): 0)
 <4><135>: Abbrev Number: 1 (DW_TAG_call_site_parameter)
    <136>   DW_AT_location    : 1 byte block: 55 	(DW_OP_reg5 (r5))
    <138>   DW_AT_call_value  : 2 byte block: 8b 0 	(DW_OP_breg27 (r27): 0)
 <4><13b>: Abbrev Number: 0
 <3><13c>: Abbrev Number: 5 (DW_TAG_call_site)
    <13d>   DW_AT_call_return_pc: 0xa64
    <145>   DW_AT_call_origin : <0x88>
 <4><149>: Abbrev Number: 1 (DW_TAG_call_site_parameter)
    <14a>   DW_AT_location    : 1 byte block: 53 	(DW_OP_reg3 (r3))
    <14c>   DW_AT_call_value  : 9 byte block: 3 0 0 0 0 0 0 b 78 	(DW_OP_addr: b78)
 <4><156>: Abbrev Number: 1 (DW_TAG_call_site_parameter)
    <157>   DW_AT_location    : 1 byte block: 55 	(DW_OP_reg5 (r5))
    <159>   DW_AT_call_value  : 9 byte block: 3 0 0 0 0 0 0 b 80 	(DW_OP_addr: b80)
 <4><163>: Abbrev Number: 0
 <3><164>: Abbrev Number: 0
 <2><165>: Abbrev Number: 20 (DW_TAG_lexical_block)
    <166>   DW_AT_low_pc      : 0xa70
    <16e>   DW_AT_high_pc     : 0x50
    <176>   DW_AT_sibling     : <0x1d2>
 <3><17a>: Abbrev Number: 3 (DW_TAG_variable)
    <17b>   DW_AT_name        : i
    <17d>   DW_AT_decl_file   : 1
    <17d>   DW_AT_decl_line   : 29
    <17e>   DW_AT_decl_column : 17
    <17f>   DW_AT_type        : <0x2e>
    <183>   DW_AT_location    : 0x43 (location list)
    <187>   DW_AT_GNU_locviews: 0x41
 <3><18b>: Abbrev Number: 8 (DW_TAG_call_site)
    <18c>   DW_AT_call_return_pc: 0xa98
    <194>   DW_AT_call_origin : <0x88>
    <198>   DW_AT_sibling     : <0x1a9>
 <4><19c>: Abbrev Number: 1 (DW_TAG_call_site_parameter)
    <19d>   DW_AT_location    : 1 byte block: 53 	(DW_OP_reg3 (r3))
    <19f>   DW_AT_call_value  : 2 byte block: 8e 0 	(DW_OP_breg30 (r30): 0)
 <4><1a2>: Abbrev Number: 1 (DW_TAG_call_site_parameter)
    <1a3>   DW_AT_location    : 1 byte block: 55 	(DW_OP_reg5 (r5))
    <1a5>   DW_AT_call_value  : 2 byte block: 8c 0 	(DW_OP_breg28 (r28): 0)
 <4><1a8>: Abbrev Number: 0
 <3><1a9>: Abbrev Number: 5 (DW_TAG_call_site)
    <1aa>   DW_AT_call_return_pc: 0xac0
    <1b2>   DW_AT_call_origin : <0x88>
 <4><1b6>: Abbrev Number: 1 (DW_TAG_call_site_parameter)
    <1b7>   DW_AT_location    : 1 byte block: 53 	(DW_OP_reg3 (r3))
    <1b9>   DW_AT_call_value  : 9 byte block: 3 0 0 0 0 0 0 b 78 	(DW_OP_addr: b78)
 <4><1c3>: Abbrev Number: 1 (DW_TAG_call_site_parameter)
    <1c4>   DW_AT_location    : 1 byte block: 55 	(DW_OP_reg5 (r5))
    <1c6>   DW_AT_call_value  : 9 byte block: 3 0 0 0 0 0 0 b 80 	(DW_OP_addr: b80)
 <4><1d0>: Abbrev Number: 0
 <3><1d1>: Abbrev Number: 0
 <2><1d2>: Abbrev Number: 5 (DW_TAG_call_site)
    <1d3>   DW_AT_call_return_pc: 0xa70
    <1db>   DW_AT_call_origin : <0x202>
 <3><1df>: Abbrev Number: 1 (DW_TAG_call_site_parameter)
    <1e0>   DW_AT_location    : 1 byte block: 53 	(DW_OP_reg3 (r3))
    <1e2>   DW_AT_call_value  : 3 byte block: 91 a0 7f 	(DW_OP_fbreg: -96)
 <3><1e6>: Abbrev Number: 1 (DW_TAG_call_site_parameter)
    <1e7>   DW_AT_location    : 1 byte block: 54 	(DW_OP_reg4 (r4))
    <1e9>   DW_AT_call_value  : 1 byte block: 3a 	(DW_OP_lit10)
 <3><1eb>: Abbrev Number: 0
 <2><1ec>: Abbrev Number: 0
 <1><1ed>: Abbrev Number: 4 (DW_TAG_pointer_type)
    <1ee>   DW_AT_byte_size   : 8
    <1ee>   DW_AT_type        : <0x83>
 <1><1f2>: Abbrev Number: 21 (DW_TAG_array_type)
    <1f3>   DW_AT_type        : <0x75>
    <1f7>   DW_AT_sibling     : <0x202>
 <2><1fb>: Abbrev Number: 22 (DW_TAG_subrange_type)
    <1fc>   DW_AT_type        : <0x3f>
    <200>   DW_AT_upper_bound : 9
 <2><201>: Abbrev Number: 0
 <1><202>: Abbrev Number: 23 (DW_TAG_subprogram)
    <203>   DW_AT_external    : 1
    <203>   DW_AT_name        : (indirect string, offset: 0x37): insertion_sort
    <207>   DW_AT_decl_file   : 1
    <208>   DW_AT_decl_line   : 6
    <209>   DW_AT_decl_column : 6
    <20a>   DW_AT_prototyped  : 1
    <20a>   DW_AT_low_pc      : 0x954
    <212>   DW_AT_high_pc     : 0x74
    <21a>   DW_AT_frame_base  : 1 byte block: 9c 	(DW_OP_call_frame_cfa)
    <21c>   DW_AT_call_all_calls: 1
    <21c>   DW_AT_sibling     : <0x282>
 <2><220>: Abbrev Number: 9 (DW_TAG_formal_parameter)
    <221>   DW_AT_name        : a
    <223>   DW_AT_decl_file   : 1
    <223>   DW_AT_decl_line   : 6
    <223>   DW_AT_decl_column : 26
    <224>   DW_AT_type        : <0x282>
    <228>   DW_AT_location    : 1 byte block: 53 	(DW_OP_reg3 (r3))
 <2><22a>: Abbrev Number: 9 (DW_TAG_formal_parameter)
    <22b>   DW_AT_name        : n
    <22d>   DW_AT_decl_file   : 1
    <22d>   DW_AT_decl_line   : 6
    <22d>   DW_AT_decl_column : 42
    <22e>   DW_AT_type        : <0x3a>
    <232>   DW_AT_location    : 1 byte block: 54 	(DW_OP_reg4 (r4))
 <2><234>: Abbrev Number: 24 (DW_TAG_lexical_block)
    <235>   DW_AT_low_pc      : 0x954
    <23d>   DW_AT_high_pc     : 0x68
 <3><245>: Abbrev Number: 3 (DW_TAG_variable)
    <246>   DW_AT_name        : i
    <248>   DW_AT_decl_file   : 1
    <248>   DW_AT_decl_line   : 7
    <249>   DW_AT_decl_column : 13
    <24a>   DW_AT_type        : <0x2e>
    <24e>   DW_AT_location    : 0x52 (location list)
    <252>   DW_AT_GNU_locviews: 0x4c
 <3><256>: Abbrev Number: 25 (DW_TAG_lexical_block)
    <257>   DW_AT_ranges      : 0xc
 <4><25b>: Abbrev Number: 3 (DW_TAG_variable)
    <25c>   DW_AT_name        : key
    <260>   DW_AT_decl_file   : 1
    <260>   DW_AT_decl_line   : 8
    <261>   DW_AT_decl_column : 7
    <262>   DW_AT_type        : <0x75>
    <266>   DW_AT_location    : 0x67 (location list)
    <26a>   DW_AT_GNU_locviews: 0x63
 <4><26e>: Abbrev Number: 3 (DW_TAG_variable)
    <26f>   DW_AT_name        : j
    <271>   DW_AT_decl_file   : 1
    <271>   DW_AT_decl_line   : 9
    <272>   DW_AT_decl_column : 10
    <273>   DW_AT_type        : <0x2e>
    <277>   DW_AT_location    : 0x7c (location list)
    <27b>   DW_AT_GNU_locviews: 0x72
 <4><27f>: Abbrev Number: 0
 <3><280>: Abbrev Number: 0
 <2><281>: Abbrev Number: 0
 <1><282>: Abbrev Number: 4 (DW_TAG_pointer_type)
    <283>   DW_AT_byte_size   : 8
    <283>   DW_AT_type        : <0x75>
 <1><287>: Abbrev Number: 0

Contents of the .debug_abbrev section (loaded from a.out):

  Number TAG (0)
   1      DW_TAG_call_site_parameter    [no children]
    DW_AT_location     DW_FORM_exprloc
    DW_AT_call_value   DW_FORM_exprloc
    DW_AT value: 0     DW_FORM value: 0
   2      DW_TAG_base_type    [no children]
    DW_AT_byte_size    DW_FORM_data1
    DW_AT_encoding     DW_FORM_data1
    DW_AT_name         DW_FORM_strp
    DW_AT value: 0     DW_FORM value: 0
   3      DW_TAG_variable    [no children]
    DW_AT_name         DW_FORM_string
    DW_AT_decl_file    DW_FORM_implicit_const: 1
    DW_AT_decl_line    DW_FORM_data1
    DW_AT_decl_column  DW_FORM_data1
    DW_AT_type         DW_FORM_ref4
    DW_AT_location     DW_FORM_sec_offset
    DW_AT_GNU_locviews DW_FORM_sec_offset
    DW_AT value: 0     DW_FORM value: 0
   4      DW_TAG_pointer_type    [no children]
    DW_AT_byte_size    DW_FORM_implicit_const: 8
    DW_AT_type         DW_FORM_ref4
    DW_AT value: 0     DW_FORM value: 0
   5      DW_TAG_call_site    [has children]
    DW_AT_call_return_pc DW_FORM_addr
    DW_AT_call_origin  DW_FORM_ref4
    DW_AT value: 0     DW_FORM value: 0
   6      DW_TAG_const_type    [no children]
    DW_AT_type         DW_FORM_ref4
    DW_AT value: 0     DW_FORM value: 0
   7      DW_TAG_formal_parameter    [no children]
    DW_AT_name         DW_FORM_strp
    DW_AT_decl_file    DW_FORM_implicit_const: 1
    DW_AT_decl_line    DW_FORM_implicit_const: 18
    DW_AT_decl_column  DW_FORM_data1
    DW_AT_type         DW_FORM_ref4
    DW_AT_location     DW_FORM_sec_offset
    DW_AT_GNU_locviews DW_FORM_sec_offset
    DW_AT value: 0     DW_FORM value: 0
   8      DW_TAG_call_site    [has children]
    DW_AT_call_return_pc DW_FORM_addr
    DW_AT_call_origin  DW_FORM_ref4
    DW_AT_sibling      DW_FORM_ref4
    DW_AT value: 0     DW_FORM value: 0
   9      DW_TAG_formal_parameter    [no children]
    DW_AT_name         DW_FORM_string
    DW_AT_decl_file    DW_FORM_implicit_const: 1
    DW_AT_decl_line    DW_FORM_implicit_const: 6
    DW_AT_decl_column  DW_FORM_data1
    DW_AT_type         DW_FORM_ref4
    DW_AT_location     DW_FORM_exprloc
    DW_AT value: 0     DW_FORM value: 0
   10      DW_TAG_compile_unit    [has children]
    DW_AT_producer     DW_FORM_strp
    DW_AT_language     DW_FORM_data1
    DW_AT_name         DW_FORM_strp
    DW_AT_comp_dir     DW_FORM_strp
    DW_AT_low_pc       DW_FORM_addr
    DW_AT_high_pc      DW_FORM_data8
    DW_AT_stmt_list    DW_FORM_sec_offset
    DW_AT value: 0     DW_FORM value: 0
   11      DW_TAG_typedef    [no children]
    DW_AT_name         DW_FORM_strp
    DW_AT_decl_file    DW_FORM_data1
    DW_AT_decl_line    DW_FORM_data1
    DW_AT_decl_column  DW_FORM_data1
    DW_AT_type         DW_FORM_ref4
    DW_AT value: 0     DW_FORM value: 0
   12      DW_TAG_base_type    [no children]
    DW_AT_byte_size    DW_FORM_data1
    DW_AT_encoding     DW_FORM_data1
    DW_AT_name         DW_FORM_string
    DW_AT value: 0     DW_FORM value: 0
   13      DW_TAG_subprogram    [has children]
    DW_AT_external     DW_FORM_flag_present
    DW_AT_name         DW_FORM_strp
    DW_AT_decl_file    DW_FORM_data1
    DW_AT_decl_line    DW_FORM_data2
    DW_AT_decl_column  DW_FORM_data1
    DW_AT_prototyped   DW_FORM_flag_present
    DW_AT_type         DW_FORM_ref4
    DW_AT_declaration  DW_FORM_flag_present
    DW_AT_sibling      DW_FORM_ref4
    DW_AT value: 0     DW_FORM value: 0
   14      DW_TAG_formal_parameter    [no children]
    DW_AT_type         DW_FORM_ref4
    DW_AT value: 0     DW_FORM value: 0
   15      DW_TAG_unspecified_parameters    [no children]
    DW_AT value: 0     DW_FORM value: 0
   16      DW_TAG_subprogram    [has children]
    DW_AT_external     DW_FORM_flag_present
    DW_AT_name         DW_FORM_strp
    DW_AT_decl_file    DW_FORM_data1
    DW_AT_decl_line    DW_FORM_data1
    DW_AT_decl_column  DW_FORM_data1
    DW_AT_prototyped   DW_FORM_flag_present
    DW_AT_type         DW_FORM_ref4
    DW_AT_low_pc       DW_FORM_addr
    DW_AT_high_pc      DW_FORM_data8
    DW_AT_frame_base   DW_FORM_exprloc
    DW_AT_call_all_calls DW_FORM_flag_present
    DW_AT_sibling      DW_FORM_ref4
    DW_AT value: 0     DW_FORM value: 0
   17      DW_TAG_variable    [no children]
    DW_AT_name         DW_FORM_string
    DW_AT_decl_file    DW_FORM_data1
    DW_AT_decl_line    DW_FORM_data1
    DW_AT_decl_column  DW_FORM_data1
    DW_AT_type         DW_FORM_ref4
    DW_AT_location     DW_FORM_exprloc
    DW_AT value: 0     DW_FORM value: 0
   18      DW_TAG_variable    [no children]
    DW_AT_name         DW_FORM_string
    DW_AT_decl_file    DW_FORM_data1
    DW_AT_decl_line    DW_FORM_data1
    DW_AT_decl_column  DW_FORM_data1
    DW_AT_type         DW_FORM_ref4
    DW_AT_const_value  DW_FORM_data1
    DW_AT value: 0     DW_FORM value: 0
   19      DW_TAG_lexical_block    [has children]
    DW_AT_ranges       DW_FORM_sec_offset
    DW_AT_sibling      DW_FORM_ref4
    DW_AT value: 0     DW_FORM value: 0
   20      DW_TAG_lexical_block    [has children]
    DW_AT_low_pc       DW_FORM_addr
    DW_AT_high_pc      DW_FORM_data8
    DW_AT_sibling      DW_FORM_ref4
    DW_AT value: 0     DW_FORM value: 0
   21      DW_TAG_array_type    [has children]
    DW_AT_type         DW_FORM_ref4
    DW_AT_sibling      DW_FORM_ref4
    DW_AT value: 0     DW_FORM value: 0
   22      DW_TAG_subrange_type    [no children]
    DW_AT_type         DW_FORM_ref4
    DW_AT_upper_bound  DW_FORM_data1
    DW_AT value: 0     DW_FORM value: 0
   23      DW_TAG_subprogram    [has children]
    DW_AT_external     DW_FORM_flag_present
    DW_AT_name         DW_FORM_strp
    DW_AT_decl_file    DW_FORM_data1
    DW_AT_decl_line    DW_FORM_data1
    DW_AT_decl_column  DW_FORM_data1
    DW_AT_prototyped   DW_FORM_flag_present
    DW_AT_low_pc       DW_FORM_addr
    DW_AT_high_pc      DW_FORM_data8
    DW_AT_frame_base   DW_FORM_exprloc
    DW_AT_call_all_calls DW_FORM_flag_present
    DW_AT_sibling      DW_FORM_ref4
    DW_AT value: 0     DW_FORM value: 0
   24      DW_TAG_lexical_block    [has children]
    DW_AT_low_pc       DW_FORM_addr
    DW_AT_high_pc      DW_FORM_data8
    DW_AT value: 0     DW_FORM value: 0
   25      DW_TAG_lexical_block    [has children]
    DW_AT_ranges       DW_FORM_sec_offset
    DW_AT value: 0     DW_FORM value: 0

Raw dump of debug contents of section .debug_line (loaded from a.out):

  Offset:                      0
  Length:                      388
  DWARF Version:               3
  Prologue Length:             138
  Minimum Instruction Length:  4
  Initial value of 'is_stmt':  1
  Line Base:                   -5
  Line Range:                  14
  Opcode Base:                 13

 Opcodes:
  Opcode 1 has 0 args
  Opcode 2 has 1 arg
  Opcode 3 has 1 arg
  Opcode 4 has 1 arg
  Opcode 5 has 1 arg
  Opcode 6 has 0 args
  Opcode 7 has 0 args
  Opcode 8 has 0 args
  Opcode 9 has 1 arg
  Opcode 10 has 0 args
  Opcode 11 has 0 args
  Opcode 12 has 1 arg

 The Directory Table (offset 0x1b):
  1	..
  2	/usr/lib/gcc-cross/powerpc64-linux-gnu/12/include
  3	/usr/powerpc64-linux-gnu/include

 The File Name Table (offset 0x72):
  Entry	Dir	Time	Size	Name
  1	1	0	0	sort.c
  2	2	0	0	stddef.h
  3	3	0	0	stdio.h

 Line Number Statements:
  [0x00000094]  Set column to 45
  [0x00000096]  Extended opcode 2: set Address to 0x954
  [0x000000a1]  Special opcode 10: advance Address by 0 to 0x954 and Line by 5 to 6
  [0x000000a2]  Set column to 2
  [0x000000a4]  Special opcode 6: advance Address by 0 to 0x954 and Line by 1 to 7 (view 1)
  [0x000000a5]  Set column to 6
  [0x000000a7]  Copy (view 2)
  [0x000000a8]  Set column to 22
  [0x000000aa]  Copy (view 3)
  [0x000000ab]  Set column to 13
  [0x000000ad]  Set is_stmt to 0
  [0x000000ae]  Special opcode 47: advance Address by 12 to 0x960 and Line by 0 to 7
  [0x000000af]  Set column to 3
  [0x000000b1]  Extended opcode 4: set Discriminator to 2
  [0x000000b5]  Set is_stmt to 1
  [0x000000b6]  Special opcode 40: advance Address by 8 to 0x968 and Line by 7 to 14
  [0x000000b7]  Set column to 8
  [0x000000b9]  Extended opcode 4: set Discriminator to 2
  [0x000000bd]  Set is_stmt to 0
  [0x000000be]  Copy (view 1)
  [0x000000bf]  Extended opcode 4: set Discriminator to 2
  [0x000000c3]  Special opcode 19: advance Address by 4 to 0x96c and Line by 0 to 14
  [0x000000c4]  Set column to 27
  [0x000000c6]  Extended opcode 4: set Discriminator to 2
  [0x000000ca]  Set is_stmt to 1
  [0x000000cb]  Advance Line by -7 to 7
  [0x000000cd]  Special opcode 19: advance Address by 4 to 0x970 and Line by 0 to 7
  [0x000000ce]  Set column to 22
  [0x000000d0]  Extended opcode 4: set Discriminator to 2
  [0x000000d4]  Special opcode 19: advance Address by 4 to 0x974 and Line by 0 to 7
  [0x000000d5]  Set column to 3
  [0x000000d7]  Special opcode 34: advance Address by 8 to 0x97c and Line by 1 to 8
  [0x000000d8]  Set column to 7
  [0x000000da]  Set is_stmt to 0
  [0x000000db]  Copy (view 1)
  [0x000000dc]  Set column to 3
  [0x000000de]  Set is_stmt to 1
  [0x000000df]  Special opcode 20: advance Address by 4 to 0x980 and Line by 1 to 9
  [0x000000e0]  Special opcode 6: advance Address by 0 to 0x980 and Line by 1 to 10 (view 1)
  [0x000000e1]  Set column to 18
  [0x000000e3]  Copy (view 2)
  [0x000000e4]  Set column to 29
  [0x000000e6]  Extended opcode 4: set Discriminator to 1
  [0x000000ea]  Set is_stmt to 0
  [0x000000eb]  Special opcode 75: advance Address by 20 to 0x994 and Line by 0 to 10
  [0x000000ec]  Set column to 18
  [0x000000ee]  Extended opcode 4: set Discriminator to 1
  [0x000000f2]  Special opcode 19: advance Address by 4 to 0x998 and Line by 0 to 10
  [0x000000f3]  Set column to 4
  [0x000000f5]  Set is_stmt to 1
  [0x000000f6]  Special opcode 34: advance Address by 8 to 0x9a0 and Line by 1 to 11
  [0x000000f7]  Set column to 9
  [0x000000f9]  Set is_stmt to 0
  [0x000000fa]  Copy (view 1)
  [0x000000fb]  Set column to 4
  [0x000000fd]  Set is_stmt to 1
  [0x000000fe]  Special opcode 20: advance Address by 4 to 0x9a4 and Line by 1 to 12
  [0x000000ff]  Set column to 18
  [0x00000101]  Special opcode 17: advance Address by 4 to 0x9a8 and Line by -2 to 10
  [0x00000102]  Set column to 3
  [0x00000104]  Special opcode 37: advance Address by 8 to 0x9b0 and Line by 4 to 14
  [0x00000105]  Set column to 8
  [0x00000107]  Set is_stmt to 0
  [0x00000108]  Copy (view 1)
  [0x00000109]  Set column to 27
  [0x0000010b]  Set is_stmt to 1
  [0x0000010c]  Advance Line by -7 to 7
  [0x0000010e]  Special opcode 19: advance Address by 4 to 0x9b4 and Line by 0 to 7
  [0x0000010f]  Set column to 22
  [0x00000111]  Special opcode 19: advance Address by 4 to 0x9b8 and Line by 0 to 7
  [0x00000112]  Set is_stmt to 0
  [0x00000113]  Copy (view 1)
  [0x00000114]  Set column to 34
  [0x00000116]  Set is_stmt to 1
  [0x00000117]  Advance Line by 11 to 18
  [0x00000119]  Special opcode 61: advance Address by 16 to 0x9c8 and Line by 0 to 18
  [0x0000011a]  Set is_stmt to 0
  [0x0000011b]  Copy (view 1)
  [0x0000011c]  Set column to 5
  [0x0000011e]  Set is_stmt to 1
  [0x0000011f]  Special opcode 119: advance Address by 32 to 0x9e8 and Line by 2 to 20
  [0x00000120]  Set column to 9
  [0x00000122]  Set is_stmt to 0
  [0x00000123]  Copy (view 1)
  [0x00000124]  Set column to 5
  [0x00000126]  Set is_stmt to 1
  [0x00000127]  Special opcode 119: advance Address by 32 to 0xa08 and Line by 2 to 22
  [0x00000128]  Special opcode 7: advance Address by 0 to 0xa08 and Line by 2 to 24 (view 1)
  [0x00000129]  Set column to 10
  [0x0000012b]  Copy (view 2)
  [0x0000012c]  Set column to 26
  [0x0000012e]  Copy (view 3)
  [0x0000012f]  Set column to 9
  [0x00000131]  Set is_stmt to 0
  [0x00000132]  Special opcode 29: advance Address by 8 to 0xa10 and Line by -4 to 20
  [0x00000133]  Special opcode 24: advance Address by 4 to 0xa14 and Line by 5 to 25
  [0x00000134]  Extended opcode 4: set Discriminator to 4
  [0x00000138]  Special opcode 75: advance Address by 20 to 0xa28 and Line by 0 to 25
  [0x00000139]  Set column to 32
  [0x0000013b]  Extended opcode 4: set Discriminator to 4
  [0x0000013f]  Set is_stmt to 1
  [0x00000140]  Special opcode 74: advance Address by 20 to 0xa3c and Line by -1 to 24
  [0x00000141]  Set column to 26
  [0x00000143]  Extended opcode 4: set Discriminator to 4
  [0x00000147]  Copy (view 1)
  [0x00000148]  Set column to 9
  [0x0000014a]  Special opcode 6: advance Address by 0 to 0xa3c and Line by 1 to 25 (view 2)
  [0x0000014b]  Set column to 32
  [0x0000014d]  Special opcode 144: advance Address by 40 to 0xa64 and Line by -1 to 24
  [0x0000014e]  Set column to 26
  [0x00000150]  Copy (view 1)
  [0x00000151]  Set column to 5
  [0x00000153]  Special opcode 8: advance Address by 0 to 0xa64 and Line by 3 to 27 (view 2)
  [0x00000154]  Special opcode 49: advance Address by 12 to 0xa70 and Line by 2 to 29
  [0x00000155]  Set column to 10
  [0x00000157]  Copy (view 1)
  [0x00000158]  Set column to 26
  [0x0000015a]  Copy (view 2)
  [0x0000015b]  Set column to 9
  [0x0000015d]  Set is_stmt to 0
  [0x0000015e]  Special opcode 6: advance Address by 0 to 0xa70 and Line by 1 to 30 (view 3)
  [0x0000015f]  Extended opcode 4: set Discriminator to 4
  [0x00000163]  Special opcode 75: advance Address by 20 to 0xa84 and Line by 0 to 30
  [0x00000164]  Set column to 32
  [0x00000166]  Extended opcode 4: set Discriminator to 4
  [0x0000016a]  Set is_stmt to 1
  [0x0000016b]  Special opcode 74: advance Address by 20 to 0xa98 and Line by -1 to 29
  [0x0000016c]  Set column to 26
  [0x0000016e]  Extended opcode 4: set Discriminator to 4
  [0x00000172]  Copy (view 1)
  [0x00000173]  Set column to 9
  [0x00000175]  Special opcode 6: advance Address by 0 to 0xa98 and Line by 1 to 30 (view 2)
  [0x00000176]  Set column to 32
  [0x00000178]  Special opcode 144: advance Address by 40 to 0xac0 and Line by -1 to 29
  [0x00000179]  Set column to 26
  [0x0000017b]  Copy (view 1)
  [0x0000017c]  Set column to 5
  [0x0000017e]  Special opcode 8: advance Address by 0 to 0xac0 and Line by 3 to 32 (view 2)
  [0x0000017f]  Set column to 1
  [0x00000181]  Set is_stmt to 0
  [0x00000182]  Special opcode 6: advance Address by 0 to 0xac0 and Line by 1 to 33 (view 3)
  [0x00000183]  Advance PC by 52 to 0xaf4
  [0x00000185]  Extended opcode 1: End of Sequence


Contents of the .debug_str section (loaded from a.out):

  0x00000000 2e2e2f73 6f72742e 63007369 7a655f74 ../sort.c.size_t
  0x00000010 002f726f 6f742f68 656c6c6f 2d776f72 ./root/hello-wor
  0x00000020 6c642f70 6f776572 70633634 2d6c696e ld/powerpc64-lin
  0x00000030 75782d67 6e750069 6e736572 74696f6e ux-gnu.insertion
  0x00000040 5f736f72 74006c6f 6e672075 6e736967 _sort.long unsig
  0x00000050 6e656420 696e7400 756e7369 676e6564 ned int.unsigned
  0x00000060 20636861 72006d61 696e006c 6f6e6720  char.main.long 
  0x00000070 696e7400 61726763 0073686f 72742075 int.argc.short u
  0x00000080 6e736967 6e656420 696e7400 7072696e nsigned int.prin
  0x00000090 74660047 4e552043 39392031 322e322e tf.GNU C99 12.2.
  0x000000a0 30202d6d 73656375 72652d70 6c74202d 0 -msecure-plt -
  0x000000b0 6d637075 3d706f77 65723920 2d67202d mcpu=power9 -g -
  0x000000c0 4f31202d 7374643d 676e7539 39202d66 O1 -std=gnu99 -f
  0x000000d0 6173796e 6368726f 6e6f7573 2d756e77 asynchronous-unw
  0x000000e0 696e642d 7461626c 65730073 686f7274 ind-tables.short
  0x000000f0 20696e74 00617267 7600               int.argv.

Contents of the .debug_loclists section (loaded from a.out):

    Offset   Begin            End              Expression

    0000000c v000000000000000 v000000000000000 location view pair
    0000000e v000000000000000 v000000000000000 location view pair

    00000010 v000000000000000 v000000000000000 views at 0000000c for:
             00000000000009c8 0000000000000a28 (DW_OP_reg3 (r3))
    00000016 v000000000000000 v000000000000000 views at 0000000e for:
             0000000000000a28 0000000000000af4 (DW_OP_entry_value: (DW_OP_reg3 (r3)); DW_OP_stack_value)
    00000020 <End of list>

    00000021 v000000000000000 v000000000000000 location view pair
    00000023 v000000000000000 v000000000000000 location view pair

    00000025 v000000000000000 v000000000000000 views at 00000021 for:
             00000000000009c8 0000000000000a28 (DW_OP_reg4 (r4))
    0000002b v000000000000000 v000000000000000 views at 00000023 for:
             0000000000000a28 0000000000000af4 (DW_OP_entry_value: (DW_OP_reg4 (r4)); DW_OP_stack_value)
    00000035 <End of list>

    00000036 v000000000000003 v000000000000000 location view pair

    00000038 v000000000000003 v000000000000000 views at 00000036 for:
             0000000000000a08 0000000000000a28 (DW_OP_lit0; DW_OP_stack_value)
    00000040 <End of list>

    00000041 v000000000000002 v000000000000000 location view pair

    00000043 v000000000000002 v000000000000000 views at 00000041 for:
             0000000000000a70 0000000000000a84 (DW_OP_lit0; DW_OP_stack_value)
    0000004b <End of list>

    0000004c v000000000000003 v000000000000000 location view pair
    0000004e v000000000000000 v000000000000000 location view pair
    00000050 v000000000000000 v000000000000000 location view pair

    00000052 v000000000000003 v000000000000000 views at 0000004c for:
             0000000000000954 0000000000000968 (DW_OP_lit1; DW_OP_stack_value)
    00000058 v000000000000000 v000000000000000 views at 0000004e for:
             0000000000000974 0000000000000994 (DW_OP_reg6 (r6))
    0000005d v000000000000000 v000000000000000 views at 00000050 for:
             00000000000009b0 00000000000009c8 (DW_OP_reg6 (r6))
    00000062 <End of list>

    00000063 v000000000000000 v000000000000000 location view pair
    00000065 v000000000000000 v000000000000000 location view pair

    00000067 v000000000000000 v000000000000000 views at 00000063 for:
             0000000000000980 0000000000000994 (DW_OP_reg7 (r7))
    0000006c v000000000000000 v000000000000000 views at 00000065 for:
             00000000000009b0 00000000000009c8 (DW_OP_reg7 (r7))
    00000071 <End of list>

    00000072 v000000000000000 v000000000000000 location view pair
    00000074 v000000000000001 v000000000000000 location view pair
    00000076 v000000000000000 v000000000000000 location view pair
    00000078 v000000000000000 v000000000000000 location view pair
    0000007a v000000000000000 v000000000000000 location view pair

    0000007c v000000000000000 v000000000000000 views at 00000072 for:
             0000000000000968 000000000000096c (DW_OP_reg8 (r8))
    00000081 v000000000000001 v000000000000000 views at 00000074 for:
             0000000000000980 0000000000000994 (DW_OP_reg6 (r6))
    00000086 v000000000000000 v000000000000000 views at 00000076 for:
             0000000000000994 00000000000009b0 (DW_OP_reg8 (r8))
    0000008b v000000000000000 v000000000000000 views at 00000078 for:
             00000000000009b0 00000000000009b8 (DW_OP_reg6 (r6))
    00000090 v000000000000000 v000000000000000 views at 0000007a for:
             00000000000009b8 00000000000009c8 (DW_OP_reg8 (r8))
    00000095 <End of list>

Contents of the .debug_rnglists section (loaded from a.out):

 Table at Offset: 0:
  Length:          0x1a
  DWARF version:   5
  Address size:    8
  Segment size:    0
  Offset entries:  0

  Offset: 0xc, Index: 0
    Offset   Begin    End
    0000000c 0000000000000014 000000000000001c 
    0000000f 0000000000000028 0000000000000060 
    00000012 <End of list>

