
a.out:     file format elf64-littleriscv

SYMBOL TABLE:
0000000000000270 l    d  .interp	0000000000000000              .interp
0000000000000294 l    d  .note.gnu.build-id	0000000000000000              .note.gnu.build-id
00000000000002b8 l    d  .note.ABI-tag	0000000000000000              .note.ABI-tag
00000000000002d8 l    d  .gnu.hash	0000000000000000              .gnu.hash
0000000000000300 l    d  .dynsym	0000000000000000              .dynsym
00000000000004b0 l    d  .dynstr	0000000000000000              .dynstr
000000000000056e l    d  .gnu.version	0000000000000000              .gnu.version
0000000000000598 l    d  .gnu.version_r	0000000000000000              .gnu.version_r
00000000000005c8 l    d  .rela.dyn	0000000000000000              .rela.dyn
00000000000009e8 l    d  .rela.plt	0000000000000000              .rela.plt
0000000000000b10 l    d  .plt	0000000000000000              .plt
0000000000000bf0 l    d  .text	0000000000000000              .text
0000000000000f90 l    d  .rodata	0000000000000000              .rodata
0000000000001288 l    d  .eh_frame_hdr	0000000000000000              .eh_frame_hdr
00000000000012a0 l    d  .eh_frame	0000000000000000              .eh_frame
0000000000002ce8 l    d  .preinit_array	0000000000000000              .preinit_array
0000000000002cf0 l    d  .init_array	0000000000000000              .init_array
0000000000002cf8 l    d  .fini_array	0000000000000000              .fini_array
0000000000002d00 l    d  .data.rel.ro	0000000000000000              .data.rel.ro
0000000000002e20 l    d  .dynamic	0000000000000000              .dynamic
0000000000003000 l    d  .data	0000000000000000              .data
0000000000003008 l    d  .got	0000000000000000              .got
00000000000030a0 l    d  .bss	0000000000000000              .bss
0000000000000000 l    d  .comment	0000000000000000              .comment
0000000000000000 l    d  .riscv.attributes	0000000000000000              .riscv.attributes
0000000000000000 l    d  .debug_aranges	0000000000000000              .debug_aranges
0000000000000000 l    d  .debug_info	0000000000000000              .debug_info
0000000000000000 l    d  .debug_abbrev	0000000000000000              .debug_abbrev
0000000000000000 l    d  .debug_line	0000000000000000              .debug_line
0000000000000000 l    d  .debug_frame	0000000000000000              .debug_frame
0000000000000000 l    d  .debug_str	0000000000000000              .debug_str
0000000000000000 l    d  .debug_line_str	0000000000000000              .debug_line_str
0000000000000000 l    d  .debug_loclists	0000000000000000              .debug_loclists
0000000000000000 l    df *ABS*	0000000000000000              Scrt1.o
00000000000002b8 l     O .note.ABI-tag	0000000000000020              __abi_tag
0000000000000c12 l       .text	0000000000000000              load_gp
0000000000000000 l    df *ABS*	0000000000000000              crtstuff.c
0000000000000c1e l     F .text	0000000000000000              deregister_tm_clones
0000000000000c40 l     F .text	0000000000000000              register_tm_clones
0000000000000c6c l     F .text	0000000000000000              __do_global_dtors_aux
00000000000030a0 l     O .bss	0000000000000001              completed.0
0000000000002cf8 l     O .fini_array	0000000000000000              __do_global_dtors_aux_fini_array_entry
0000000000000ca6 l     F .text	0000000000000000              frame_dummy
0000000000002cf0 l     O .init_array	0000000000000000              __frame_dummy_init_array_entry
0000000000000000 l    df *ABS*	0000000000000000              morse.c
00000000000030a8 l     O .bss	0000000000000008              fp
0000000000002d00 l     O .data.rel.ro	0000000000000120              morse_tbl
0000000000000000 l    df *ABS*	0000000000000000              crtstuff.c
00000000000012c8 l     O .eh_frame	0000000000000000              __FRAME_END__
0000000000000b10 l     O *ABS*	0000000000000000              _PROCEDURE_LINKAGE_TABLE_
0000000000002e20 l     O *ABS*	0000000000000000              _DYNAMIC
0000000000001288 l       .eh_frame_hdr	0000000000000000              __GNU_EH_FRAME_HDR
0000000000003078 l     O *ABS*	0000000000000000              _GLOBAL_OFFSET_TABLE_
0000000000000000       F *UND*	0000000000000000              nanosleep@GLIBC_2.27
0000000000000000       F *UND*	0000000000000000              fprintf@GLIBC_2.27
0000000000000000       F *UND*	0000000000000000              __libc_start_main@GLIBC_2.34
0000000000000000  w      *UND*	0000000000000000              _ITM_deregisterTMCloneTable
0000000000003000  w      .data	0000000000000000              data_start
0000000000000000       F *UND*	0000000000000000              fwrite@GLIBC_2.27
00000000000030b0 g       .bss	0000000000000000              __BSS_END__
0000000000000e06 g     F .text	0000000000000036              io_write
0000000000000f3e g     F .text	0000000000000022              morse
00000000000030a0 g       .got	0000000000000000              _edata
00000000000030a0 g       .got	0000000000000000              __SDATA_BEGIN__
0000000000003000 g       .data	0000000000000000              __DATA_BEGIN__
0000000000000e62 g     F .text	00000000000000dc              morse_letter
0000000000000ca8 g     F .text	000000000000015e              io_init
0000000000000000       F *UND*	0000000000000000              fputc@GLIBC_2.27
0000000000000000       F *UND*	0000000000000000              fflush@GLIBC_2.27
0000000000003000 g       .data	0000000000000000              __data_start
0000000000003000 g     O .data	0000000000000000              .hidden __dso_handle
0000000000000f90 g     O .rodata	0000000000000004              _IO_stdin_used
0000000000000e3c g     F .text	0000000000000026              fsleep
00000000000030b0 g       .bss	0000000000000000              _end
0000000000000000       F *UND*	0000000000000000              sprintf@GLIBC_2.27
0000000000000bf0 g     F .text	0000000000000022              _start
0000000000003800 g       *ABS*	0000000000000000              __global_pointer$
0000000000000000       F *UND*	0000000000000000              puts@GLIBC_2.27
00000000000030a0 g       .bss	0000000000000000              __bss_start
0000000000000f60 g     F .text	000000000000002c              main
0000000000000000       F *UND*	0000000000000000              exit@GLIBC_2.27
0000000000000000       F *UND*	0000000000000000              printf@GLIBC_2.27
0000000000000000       F *UND*	0000000000000000              fclose@GLIBC_2.27
0000000000000000  w    F *UND*	0000000000000000              __cxa_finalize@GLIBC_2.27
0000000000003008 g     O .got	0000000000000000              .hidden __TMC_END__
0000000000000000       F *UND*	0000000000000000              fopen@GLIBC_2.27
0000000000000000  w      *UND*	0000000000000000              _ITM_registerTMCloneTable



Disassembly of section .plt:

0000000000000b10 <.plt>:
 b10:	00002397          	auipc	t2,0x2
 b14:	41c30333          	sub	t1,t1,t3
 b18:	4f83be03          	ld	t3,1272(t2) # 3008 <__TMC_END__>
 b1c:	fd430313          	add	t1,t1,-44
 b20:	4f838293          	add	t0,t2,1272
 b24:	00135313          	srl	t1,t1,0x1
 b28:	0082b283          	ld	t0,8(t0)
 b2c:	000e0067          	jr	t3

0000000000000b30 <nanosleep@plt>:
 b30:	00002e17          	auipc	t3,0x2
 b34:	4e8e3e03          	ld	t3,1256(t3) # 3018 <nanosleep@GLIBC_2.27>
 b38:	000e0367          	jalr	t1,t3
 b3c:	00000013          	nop

0000000000000b40 <fprintf@plt>:
 b40:	00002e17          	auipc	t3,0x2
 b44:	4e0e3e03          	ld	t3,1248(t3) # 3020 <fprintf@GLIBC_2.27>
 b48:	000e0367          	jalr	t1,t3
 b4c:	00000013          	nop

0000000000000b50 <__libc_start_main@plt>:
 b50:	00002e17          	auipc	t3,0x2
 b54:	4d8e3e03          	ld	t3,1240(t3) # 3028 <__libc_start_main@GLIBC_2.34>
 b58:	000e0367          	jalr	t1,t3
 b5c:	00000013          	nop

0000000000000b60 <fwrite@plt>:
 b60:	00002e17          	auipc	t3,0x2
 b64:	4d0e3e03          	ld	t3,1232(t3) # 3030 <fwrite@GLIBC_2.27>
 b68:	000e0367          	jalr	t1,t3
 b6c:	00000013          	nop

0000000000000b70 <fputc@plt>:
 b70:	00002e17          	auipc	t3,0x2
 b74:	4c8e3e03          	ld	t3,1224(t3) # 3038 <fputc@GLIBC_2.27>
 b78:	000e0367          	jalr	t1,t3
 b7c:	00000013          	nop

0000000000000b80 <fflush@plt>:
 b80:	00002e17          	auipc	t3,0x2
 b84:	4c0e3e03          	ld	t3,1216(t3) # 3040 <fflush@GLIBC_2.27>
 b88:	000e0367          	jalr	t1,t3
 b8c:	00000013          	nop

0000000000000b90 <sprintf@plt>:
 b90:	00002e17          	auipc	t3,0x2
 b94:	4b8e3e03          	ld	t3,1208(t3) # 3048 <sprintf@GLIBC_2.27>
 b98:	000e0367          	jalr	t1,t3
 b9c:	00000013          	nop

0000000000000ba0 <puts@plt>:
 ba0:	00002e17          	auipc	t3,0x2
 ba4:	4b0e3e03          	ld	t3,1200(t3) # 3050 <puts@GLIBC_2.27>
 ba8:	000e0367          	jalr	t1,t3
 bac:	00000013          	nop

0000000000000bb0 <exit@plt>:
 bb0:	00002e17          	auipc	t3,0x2
 bb4:	4a8e3e03          	ld	t3,1192(t3) # 3058 <exit@GLIBC_2.27>
 bb8:	000e0367          	jalr	t1,t3
 bbc:	00000013          	nop

0000000000000bc0 <printf@plt>:
 bc0:	00002e17          	auipc	t3,0x2
 bc4:	4a0e3e03          	ld	t3,1184(t3) # 3060 <printf@GLIBC_2.27>
 bc8:	000e0367          	jalr	t1,t3
 bcc:	00000013          	nop

0000000000000bd0 <fclose@plt>:
 bd0:	00002e17          	auipc	t3,0x2
 bd4:	498e3e03          	ld	t3,1176(t3) # 3068 <fclose@GLIBC_2.27>
 bd8:	000e0367          	jalr	t1,t3
 bdc:	00000013          	nop

0000000000000be0 <fopen@plt>:
 be0:	00002e17          	auipc	t3,0x2
 be4:	490e3e03          	ld	t3,1168(t3) # 3070 <fopen@GLIBC_2.27>
 be8:	000e0367          	jalr	t1,t3
 bec:	00000013          	nop

Disassembly of section .text:

0000000000000bf0 <_start>:
 bf0:	022000ef          	jal	c12 <load_gp>
 bf4:	87aa                	mv	a5,a0
 bf6:	00002517          	auipc	a0,0x2
 bfa:	49253503          	ld	a0,1170(a0) # 3088 <_GLOBAL_OFFSET_TABLE_+0x10>
 bfe:	6582                	ld	a1,0(sp)
 c00:	0030                	add	a2,sp,8
 c02:	ff017113          	and	sp,sp,-16
 c06:	4681                	li	a3,0
 c08:	4701                	li	a4,0
 c0a:	880a                	mv	a6,sp
 c0c:	f45ff0ef          	jal	b50 <__libc_start_main@plt>
 c10:	9002                	ebreak

0000000000000c12 <load_gp>:
 c12:	00003197          	auipc	gp,0x3
 c16:	bee18193          	add	gp,gp,-1042 # 3800 <__global_pointer$>
 c1a:	8082                	ret
	...

0000000000000c1e <deregister_tm_clones>:
 c1e:	    00002517          	auipc	a0,0x2
 c22:	    3ea50513          	add	a0,a0,1002 # 3008 <__TMC_END__>
 c26:	    00002797          	auipc	a5,0x2
 c2a:	    3e278793          	add	a5,a5,994 # 3008 <__TMC_END__>
 c2e:	/-- 00a78863          	beq	a5,a0,c3e <deregister_tm_clones+0x20>
 c32:	|   00002797          	auipc	a5,0x2
 c36:	|   44e7b783          	ld	a5,1102(a5) # 3080 <_ITM_deregisterTMCloneTable@Base>
 c3a:	+-- c391                	beqz	a5,c3e <deregister_tm_clones+0x20>
 c3c:	|   8782                	jr	a5
 c3e:	\-> 8082                	ret

0000000000000c40 <register_tm_clones>:
 c40:	    00002517          	auipc	a0,0x2
 c44:	    3c850513          	add	a0,a0,968 # 3008 <__TMC_END__>
 c48:	    00002597          	auipc	a1,0x2
 c4c:	    3c058593          	add	a1,a1,960 # 3008 <__TMC_END__>
 c50:	    8d89                	sub	a1,a1,a0
 c52:	    4035d793          	sra	a5,a1,0x3
 c56:	    91fd                	srl	a1,a1,0x3f
 c58:	    95be                	add	a1,a1,a5
 c5a:	    8585                	sra	a1,a1,0x1
 c5c:	/-- c599                	beqz	a1,c6a <register_tm_clones+0x2a>
 c5e:	|   00002797          	auipc	a5,0x2
 c62:	|   43a7b783          	ld	a5,1082(a5) # 3098 <_ITM_registerTMCloneTable@Base>
 c66:	+-- c391                	beqz	a5,c6a <register_tm_clones+0x2a>
 c68:	|   8782                	jr	a5
 c6a:	\-> 8082                	ret

0000000000000c6c <__do_global_dtors_aux>:
 c6c:	       1141                	add	sp,sp,-16
 c6e:	       e022                	sd	s0,0(sp)
 c70:	       00002417          	auipc	s0,0x2
 c74:	       43040413          	add	s0,s0,1072 # 30a0 <completed.0>
 c78:	       00044783          	lbu	a5,0(s0)
 c7c:	       e406                	sd	ra,8(sp)
 c7e:	/----- e385                	bnez	a5,c9e <__do_global_dtors_aux+0x32>
 c80:	|      00002797          	auipc	a5,0x2
 c84:	|      4107b783          	ld	a5,1040(a5) # 3090 <__cxa_finalize@GLIBC_2.27>
 c88:	|  /-- c791                	beqz	a5,c94 <__do_global_dtors_aux+0x28>
 c8a:	|  |   00002517          	auipc	a0,0x2
 c8e:	|  |   37653503          	ld	a0,886(a0) # 3000 <__dso_handle>
 c92:	|  |   9782                	jalr	a5
 c94:	|  \-> f8bff0ef          	jal	c1e <deregister_tm_clones>
 c98:	|      4785                	li	a5,1
 c9a:	|      00f40023          	sb	a5,0(s0)
 c9e:	\----> 60a2                	ld	ra,8(sp)
 ca0:	       6402                	ld	s0,0(sp)
 ca2:	       0141                	add	sp,sp,16
 ca4:	       8082                	ret

0000000000000ca6 <frame_dummy>:
 ca6:	bf69                	j	c40 <register_tm_clones>

0000000000000ca8 <io_init>:
# /* 
#  * IO Functions
#  */
# static FILE* fp = NULL;
# void io_init(const int pin)
# {	
 ca8:	          711d                	add	sp,sp,-96
 caa:	          ec86                	sd	ra,88(sp)
 cac:	          e8a2                	sd	s0,80(sp)
 cae:	          e4a6                	sd	s1,72(sp)
 cb0:	          e0ca                	sd	s2,64(sp)
 cb2:	          84aa                	mv	s1,a0
# 	char path[64];
# 	/* Open GPIO direction for writing */
# 	sprintf(path,"/sys/class/gpio/gpio%d/direction",pin);
 cb4:	          862a                	mv	a2,a0
 cb6:	          00000597          	auipc	a1,0x0
 cba:	          2e258593          	add	a1,a1,738 # f98 <_IO_stdin_used+0x8>
 cbe:	          840a                	mv	s0,sp
 cc0:	          8522                	mv	a0,s0
 cc2:	          ecfff0ef          	jal	b90 <sprintf@plt>
# 	printf("Opening Direction file %s\n",path);
 cc6:	          85a2                	mv	a1,s0
 cc8:	          00000517          	auipc	a0,0x0
 ccc:	          2f850513          	add	a0,a0,760 # fc0 <_IO_stdin_used+0x30>
 cd0:	          ef1ff0ef          	jal	bc0 <printf@plt>
# 	fp = fopen(path,"w");
 cd4:	          00000597          	auipc	a1,0x0
 cd8:	          30c58593          	add	a1,a1,780 # fe0 <_IO_stdin_used+0x50>
 cdc:	          8522                	mv	a0,s0
 cde:	          f03ff0ef          	jal	be0 <fopen@plt>
 ce2:	          00002797          	auipc	a5,0x2
 ce6:	          3ca7b323          	sd	a0,966(a5) # 30a8 <fp>
# 	if(!fp)
 cea:	      /-- cd35                	beqz	a0,d66 <io_init+0xbe>
# 			printf("ERROR: Failed to open GPIO direction\n");
# 			exit(-1);
# 		}
# 	}
# 	/* Write direction */
# 	fprintf(fp,"out");
 cec:	/-----|-> 00002917          	auipc	s2,0x2
 cf0:	|     |   3bc90913          	add	s2,s2,956 # 30a8 <fp>
 cf4:	|     |   00093683          	ld	a3,0(s2)
 cf8:	|     |   460d                	li	a2,3
 cfa:	|     |   4585                	li	a1,1
 cfc:	|     |   00000517          	auipc	a0,0x0
 d00:	|     |   37c50513          	add	a0,a0,892 # 1078 <_IO_stdin_used+0xe8>
 d04:	|     |   e5dff0ef          	jal	b60 <fwrite@plt>
# 	fclose(fp);
 d08:	|     |   00093503          	ld	a0,0(s2)
 d0c:	|     |   ec5ff0ef          	jal	bd0 <fclose@plt>
# 	/* Open 'value' file */
# 	sprintf(path,"/sys/class/gpio/gpio%d/value",pin);
 d10:	|     |   8626                	mv	a2,s1
 d12:	|     |   00000597          	auipc	a1,0x0
 d16:	|     |   36e58593          	add	a1,a1,878 # 1080 <_IO_stdin_used+0xf0>
 d1a:	|     |   840a                	mv	s0,sp
 d1c:	|     |   8522                	mv	a0,s0
 d1e:	|     |   e73ff0ef          	jal	b90 <sprintf@plt>
# 	printf("Opening Value file %s\n",path);
 d22:	|     |   85a2                	mv	a1,s0
 d24:	|     |   00000517          	auipc	a0,0x0
 d28:	|     |   37c50513          	add	a0,a0,892 # 10a0 <_IO_stdin_used+0x110>
 d2c:	|     |   e95ff0ef          	jal	bc0 <printf@plt>
# 	fp = fopen(path,"w");
 d30:	|     |   00000597          	auipc	a1,0x0
 d34:	|     |   2b058593          	add	a1,a1,688 # fe0 <_IO_stdin_used+0x50>
 d38:	|     |   8522                	mv	a0,s0
 d3a:	|     |   ea7ff0ef          	jal	be0 <fopen@plt>
 d3e:	|     |   85aa                	mv	a1,a0
 d40:	|     |   00a93023          	sd	a0,0(s2)
# 	if(!fp)
 d44:	|  /--|-- c945                	beqz	a0,df4 <io_init+0x14c>
# 	{
# 		printf("ERROR: Failed to open GPIO value\n");
# 		exit(-1);
# 	}
# 	/* Initialize LED to off */
# 	fprintf(fp,"0");
 d46:	|  |  |   03000513          	li	a0,48
 d4a:	|  |  |   e27ff0ef          	jal	b70 <fputc@plt>
# 	fflush(fp);
 d4e:	|  |  |   00002517          	auipc	a0,0x2
 d52:	|  |  |   35a53503          	ld	a0,858(a0) # 30a8 <fp>
 d56:	|  |  |   e2bff0ef          	jal	b80 <fflush@plt>
# }
 d5a:	|  |  |   60e6                	ld	ra,88(sp)
 d5c:	|  |  |   6446                	ld	s0,80(sp)
 d5e:	|  |  |   64a6                	ld	s1,72(sp)
 d60:	|  |  |   6906                	ld	s2,64(sp)
 d62:	|  |  |   6125                	add	sp,sp,96
 d64:	|  |  |   8082                	ret
# 		printf("GPIO not exported yet... doing that\n");
 d66:	|  |  \-> 00000517          	auipc	a0,0x0
 d6a:	|  |      28250513          	add	a0,a0,642 # fe8 <_IO_stdin_used+0x58>
 d6e:	|  |      e33ff0ef          	jal	ba0 <puts@plt>
# 		fp = fopen("/sys/class/gpio/export", "w");
 d72:	|  |      00000597          	auipc	a1,0x0
 d76:	|  |      26e58593          	add	a1,a1,622 # fe0 <_IO_stdin_used+0x50>
 d7a:	|  |      00000517          	auipc	a0,0x0
 d7e:	|  |      29650513          	add	a0,a0,662 # 1010 <_IO_stdin_used+0x80>
 d82:	|  |      e5fff0ef          	jal	be0 <fopen@plt>
 d86:	|  |      00002797          	auipc	a5,0x2
 d8a:	|  |      32a7b123          	sd	a0,802(a5) # 30a8 <fp>
# 		if(!fp)
 d8e:	|  |  /-- c931                	beqz	a0,de2 <io_init+0x13a>
# 		fprintf(fp, "%d", pin);
 d90:	|  |  |   8626                	mv	a2,s1
 d92:	|  |  |   00000597          	auipc	a1,0x0
 d96:	|  |  |   2b658593          	add	a1,a1,694 # 1048 <_IO_stdin_used+0xb8>
 d9a:	|  |  |   da7ff0ef          	jal	b40 <fprintf@plt>
# 		fclose(fp);
 d9e:	|  |  |   00002417          	auipc	s0,0x2
 da2:	|  |  |   30a40413          	add	s0,s0,778 # 30a8 <fp>
 da6:	|  |  |   6008                	ld	a0,0(s0)
 da8:	|  |  |   e29ff0ef          	jal	bd0 <fclose@plt>
# 		printf("Opening Direction file %s\n",path);
 dac:	|  |  |   890a                	mv	s2,sp
 dae:	|  |  |   85ca                	mv	a1,s2
 db0:	|  |  |   00000517          	auipc	a0,0x0
 db4:	|  |  |   21050513          	add	a0,a0,528 # fc0 <_IO_stdin_used+0x30>
 db8:	|  |  |   e09ff0ef          	jal	bc0 <printf@plt>
# 		fp = fopen(path,"w");
 dbc:	|  |  |   00000597          	auipc	a1,0x0
 dc0:	|  |  |   22458593          	add	a1,a1,548 # fe0 <_IO_stdin_used+0x50>
 dc4:	|  |  |   854a                	mv	a0,s2
 dc6:	|  |  |   e1bff0ef          	jal	be0 <fopen@plt>
 dca:	|  |  |   e008                	sd	a0,0(s0)
# 		if(!fp)
 dcc:	\--|--|-- f20510e3          	bnez	a0,cec <io_init+0x44>
# 			printf("ERROR: Failed to open GPIO direction\n");
 dd0:	   |  |   00000517          	auipc	a0,0x0
 dd4:	   |  |   28050513          	add	a0,a0,640 # 1050 <_IO_stdin_used+0xc0>
 dd8:	   |  |   dc9ff0ef          	jal	ba0 <puts@plt>
# 			exit(-1);
 ddc:	   |  |   557d                	li	a0,-1
 dde:	   |  |   dd3ff0ef          	jal	bb0 <exit@plt>
# 			printf("ERROR: Failed to export IO\n");
 de2:	   |  \-> 00000517          	auipc	a0,0x0
 de6:	   |      24650513          	add	a0,a0,582 # 1028 <_IO_stdin_used+0x98>
 dea:	   |      db7ff0ef          	jal	ba0 <puts@plt>
# 			exit(-1);
 dee:	   |      557d                	li	a0,-1
 df0:	   |      dc1ff0ef          	jal	bb0 <exit@plt>
# 		printf("ERROR: Failed to open GPIO value\n");
 df4:	   \----> 00000517          	auipc	a0,0x0
 df8:	          2c450513          	add	a0,a0,708 # 10b8 <_IO_stdin_used+0x128>
 dfc:	          da5ff0ef          	jal	ba0 <puts@plt>
# 		exit(-1);
 e00:	          557d                	li	a0,-1
 e02:	          dafff0ef          	jal	bb0 <exit@plt>

0000000000000e06 <io_write>:
# 
# void io_write(bool status)
# {
 e06:	    1141                	add	sp,sp,-16
 e08:	    e406                	sd	ra,8(sp)
# 	fprintf(fp,(status) ? "1" : "0");
 e0a:	    00002797          	auipc	a5,0x2
 e0e:	    29e7b783          	ld	a5,670(a5) # 30a8 <fp>
 e12:	    00000597          	auipc	a1,0x0
 e16:	    2d658593          	add	a1,a1,726 # 10e8 <_IO_stdin_used+0x158>
 e1a:	/-- c509                	beqz	a0,e24 <io_write+0x1e>
 e1c:	|   00000597          	auipc	a1,0x0
 e20:	|   2c458593          	add	a1,a1,708 # 10e0 <_IO_stdin_used+0x150>
 e24:	\-> 853e                	mv	a0,a5
 e26:	    d1bff0ef          	jal	b40 <fprintf@plt>
# 	fflush(fp);
 e2a:	    00002517          	auipc	a0,0x2
 e2e:	    27e53503          	ld	a0,638(a0) # 30a8 <fp>
 e32:	    d4fff0ef          	jal	b80 <fflush@plt>
# }
 e36:	    60a2                	ld	ra,8(sp)
 e38:	    0141                	add	sp,sp,16
 e3a:	    8082                	ret

0000000000000e3c <fsleep>:
# 
# /* Float sleep function */
# void fsleep(double dur)
# {
 e3c:	1101                	add	sp,sp,-32
 e3e:	ec06                	sd	ra,24(sp)
# 	struct timespec tim;
#    	tim.tv_sec = 0;
 e40:	e002                	sd	zero,0(sp)
#    	tim.tv_nsec = dur * 1000000000.0;
 e42:	00000797          	auipc	a5,0x0
 e46:	41e7b787          	fld	fa5,1054(a5) # 1260 <_IO_stdin_used+0x2d0>
 e4a:	12f57553          	fmul.d	fa0,fa0,fa5
 e4e:	c22517d3          	fcvt.l.d	a5,fa0,rtz
 e52:	e43e                	sd	a5,8(sp)
# 	nanosleep(&tim , NULL);
 e54:	4581                	li	a1,0
 e56:	850a                	mv	a0,sp
 e58:	cd9ff0ef          	jal	b30 <nanosleep@plt>
# }
 e5c:	60e2                	ld	ra,24(sp)
 e5e:	6105                	add	sp,sp,32
 e60:	8082                	ret

0000000000000e62 <morse_letter>:
#     "----.", //9
# };
# 
# /* Function is only correct for letters and numbers, nothing else */
# void morse_letter(const char let)
# {
 e62:	                   7179                	add	sp,sp,-48
 e64:	                   f406                	sd	ra,40(sp)
 e66:	                   f022                	sd	s0,32(sp)
 e68:	                   ec26                	sd	s1,24(sp)
 e6a:	                   e84a                	sd	s2,16(sp)
 e6c:	                   e44e                	sd	s3,8(sp)
# 	/* If it's a space, wait the space time and exit */
# 	if(let == ' ')
 e6e:	                   02000793          	li	a5,32
 e72:	               /-- 04f50863          	beq	a0,a5,ec2 <morse_letter+0x60>
 e76:	               |   85aa                	mv	a1,a0
# 		return;
# 	}
# 
# 	/* Find the string from the table */
# 	const char * pattern = ".";//Initialize to ensure it's always valid
# 	if(let >= '0' && let <= '9')
 e78:	               |   fd05079b          	addw	a5,a0,-48
 e7c:	               |   0ff7f793          	zext.b	a5,a5
 e80:	               |   4725                	li	a4,9
 e82:	   /-----------|-- 04f76d63          	bltu	a4,a5,edc <morse_letter+0x7a>
# 	{
# 		pattern = morse_tbl[let - '0' + 26]; //For numbers
 e86:	   |           |   fea5071b          	addw	a4,a0,-22
 e8a:	   |           |   070e                	sll	a4,a4,0x3
 e8c:	   |           |   00002797          	auipc	a5,0x2
 e90:	   |           |   e7478793          	add	a5,a5,-396 # 2d00 <morse_tbl>
 e94:	   |           |   97ba                	add	a5,a5,a4
 e96:	   |           |   6380                	ld	s0,0(a5)
# 	else 
# 	{
# 		printf("Invalid Letter %c\n",let);
# 		return;
# 	}
# 	printf("Letter %c to morse %s\n",let,pattern);
 e98:	   |        /--|-> 8622                	mv	a2,s0
 e9a:	   |        |  |   00000517          	auipc	a0,0x0
 e9e:	   |        |  |   25e50513          	add	a0,a0,606 # 10f8 <_IO_stdin_used+0x168>
 ea2:	   |        |  |   d1fff0ef          	jal	bc0 <printf@plt>
# 
# 	/* Loop through remaining symbols and output them */
# 	while(pattern[0])
 ea6:	   |        |  |   00044783          	lbu	a5,0(s0)
 eaa:	/--|--------|--|-- cfad                	beqz	a5,f24 <morse_letter+0xc2>
# 	{
# 		/* Turn on output */
# 		io_write(1);
# 		/* Output on-time */
# 		if(pattern[0] == '.')
 eac:	|  |        |  |   02e00913          	li	s2,46
# 		{
# 			fsleep(time_dit);
# 		}
# 		else
# 		{
# 			fsleep(time_dah);
 eb0:	|  |        |  |   00000997          	auipc	s3,0x0
 eb4:	|  |        |  |   3c898993          	add	s3,s3,968 # 1278 <_IO_stdin_used+0x2e8>
# 			fsleep(time_dit);
 eb8:	|  |        |  |   00000497          	auipc	s1,0x0
 ebc:	|  |        |  |   3b848493          	add	s1,s1,952 # 1270 <_IO_stdin_used+0x2e0>
 ec0:	|  |     /--|--|-- a0b1                	j	f0c <morse_letter+0xaa>
# 		printf("Space\n");
 ec2:	|  |     |  |  \-> 00000517          	auipc	a0,0x0
 ec6:	|  |     |  |      22e50513          	add	a0,a0,558 # 10f0 <_IO_stdin_used+0x160>
 eca:	|  |     |  |      cd7ff0ef          	jal	ba0 <puts@plt>
# 		fsleep(time_word);
 ece:	|  |     |  |      00000797          	auipc	a5,0x0
 ed2:	|  |     |  |      39a7b507          	fld	fa0,922(a5) # 1268 <_IO_stdin_used+0x2d8>
 ed6:	|  |     |  |      f67ff0ef          	jal	e3c <fsleep>
# 		return;
 eda:	|  |  /--|--|----- a899                	j	f30 <morse_letter+0xce>
# 		pattern = morse_tbl[(let & 0x1F) - 1]; //For letters
 edc:	|  \--|--|--|----> 01f57793          	and	a5,a0,31
 ee0:	|     |  |  |      37fd                	addw	a5,a5,-1
 ee2:	|     |  |  |      078e                	sll	a5,a5,0x3
 ee4:	|     |  |  |      00002717          	auipc	a4,0x2
 ee8:	|     |  |  |      e1c70713          	add	a4,a4,-484 # 2d00 <morse_tbl>
 eec:	|     |  |  |      97ba                	add	a5,a5,a4
 eee:	|     |  |  |      6380                	ld	s0,0(a5)
 ef0:	|     |  |  \----- b765                	j	e98 <morse_letter+0x36>
# 			fsleep(time_dit);
 ef2:	|     |  |     /-> 2088                	fld	fa0,0(s1)
 ef4:	|     |  |     |   f49ff0ef          	jal	e3c <fsleep>
# 		}
# 		/* Turn off output and wait off-time */
# 		io_write(0);
 ef8:	|     |  |  /--|-> 4501                	li	a0,0
 efa:	|     |  |  |  |   f0dff0ef          	jal	e06 <io_write>
# 		fsleep(time_space);
 efe:	|     |  |  |  |   2088                	fld	fa0,0(s1)
 f00:	|     |  |  |  |   f3dff0ef          	jal	e3c <fsleep>
# 		/* Increment pointer */
# 		pattern++;
 f04:	|     |  |  |  |   0405                	add	s0,s0,1
# 	while(pattern[0])
 f06:	|     |  |  |  |   00044783          	lbu	a5,0(s0)
 f0a:	+-----|--|--|--|-- cf89                	beqz	a5,f24 <morse_letter+0xc2>
# 		io_write(1);
 f0c:	|     |  \--|--|-> 4505                	li	a0,1
 f0e:	|     |     |  |   ef9ff0ef          	jal	e06 <io_write>
# 		if(pattern[0] == '.')
 f12:	|     |     |  |   00044783          	lbu	a5,0(s0)
 f16:	|     |     |  \-- fd278ee3          	beq	a5,s2,ef2 <morse_letter+0x90>
# 			fsleep(time_dah);
 f1a:	|     |     |      0009b507          	fld	fa0,0(s3)
 f1e:	|     |     |      f1fff0ef          	jal	e3c <fsleep>
 f22:	|     |     \----- bfd9                	j	ef8 <morse_letter+0x96>
# 	};
# 	/* Wait additional character delay */
# 	fsleep(time_letter);
 f24:	\-----|----------> 00000797          	auipc	a5,0x0
 f28:	      |            35c7b507          	fld	fa0,860(a5) # 1280 <_IO_stdin_used+0x2f0>
 f2c:	      |            f11ff0ef          	jal	e3c <fsleep>
# }
 f30:	      \----------> 70a2                	ld	ra,40(sp)
 f32:	                   7402                	ld	s0,32(sp)
 f34:	                   64e2                	ld	s1,24(sp)
 f36:	                   6942                	ld	s2,16(sp)
 f38:	                   69a2                	ld	s3,8(sp)
 f3a:	                   6145                	add	sp,sp,48
 f3c:	                   8082                	ret

0000000000000f3e <morse>:
# 
# /* Output a string in morse code */
# void morse(const char * string)
# {
 f3e:	       1141                	add	sp,sp,-16
 f40:	       e406                	sd	ra,8(sp)
 f42:	       e022                	sd	s0,0(sp)
 f44:	       842a                	mv	s0,a0
# 	/* Output all letters in the string */
# 	while(string[0])
 f46:	       00054503          	lbu	a0,0(a0)
 f4a:	/----- c519                	beqz	a0,f58 <morse+0x1a>
# 	{
# 		morse_letter(string[0]);
 f4c:	|  /-> f17ff0ef          	jal	e62 <morse_letter>
# 		string++;
 f50:	|  |   0405                	add	s0,s0,1
# 	while(string[0])
 f52:	|  |   00044503          	lbu	a0,0(s0)
 f56:	|  \-- f97d                	bnez	a0,f4c <morse+0xe>
# 	}
# }
 f58:	\----> 60a2                	ld	ra,8(sp)
 f5a:	       6402                	ld	s0,0(sp)
 f5c:	       0141                	add	sp,sp,16
 f5e:	       8082                	ret

0000000000000f60 <main>:
# int main (int argc, char** argv) {
 f60:	1141                	add	sp,sp,-16
 f62:	e406                	sd	ra,8(sp)
# 
#     printf("Hello from RISC-V!\n");
 f64:	00000517          	auipc	a0,0x0
 f68:	1ac50513          	add	a0,a0,428 # 1110 <_IO_stdin_used+0x180>
 f6c:	c35ff0ef          	jal	ba0 <puts@plt>
# 	io_init(blinky);
 f70:	1b800513          	li	a0,440
 f74:	d35ff0ef          	jal	ca8 <io_init>
# 	morse("Hello World from RISC V");
 f78:	00000517          	auipc	a0,0x0
 f7c:	1b050513          	add	a0,a0,432 # 1128 <_IO_stdin_used+0x198>
 f80:	fbfff0ef          	jal	f3e <morse>
#     return 0;
 f84:	4501                	li	a0,0
 f86:	60a2                	ld	ra,8(sp)
 f88:	0141                	add	sp,sp,16
 f8a:	8082                	ret
Contents of the .eh_frame section (loaded from a.out):


00000000 0000000000000010 00000000 CIE
  Version:               3
  Augmentation:          "zR"
  Code alignment factor: 1
  Data alignment factor: -4
  Return address column: 1
  Augmentation data:     1b
  DW_CFA_def_cfa_register: r2 (sp)
  DW_CFA_nop

00000014 0000000000000010 00000018 FDE cie=00000000 pc=0000000000000bf0..0000000000000c12
  DW_CFA_undefined: r1 (ra)
  DW_CFA_nop

00000028 ZERO terminator


Contents of the .debug_aranges section (loaded from a.out):

  Length:                   44
  Version:                  2
  Offset into .debug_info:  0
  Pointer Size:             8
  Segment Size:             0

    Address            Length
    0000000000000ca8 00000000000002e4
    0000000000000000 0000000000000000

Contents of the .debug_info section (loaded from a.out):

  Compilation Unit @ offset 0:
   Length:        0xa41 (32-bit)
   Version:       5
   Unit Type:     DW_UT_compile (1)
   Abbrev Offset: 0
   Pointer Size:  8
 <0><c>: Abbrev Number: 26 (DW_TAG_compile_unit)
    <d>   DW_AT_producer    : (indirect string, offset: 0x11a): GNU C99 12.2.0 -mabi=lp64d -misa-spec=20191213 -march=rv64imafdc_zicsr_zifencei -g -O1 -std=gnu99
    <11>   DW_AT_language    : 12	(ANSI C99)
    <12>   DW_AT_name        : (indirect line string, offset: 0x24): ../morse.c
    <16>   DW_AT_comp_dir    : (indirect line string, offset: 0): /root/hello-world/riscv64-linux-gnu
    <1a>   DW_AT_low_pc      : 0xca8
    <22>   DW_AT_high_pc     : 0x2e4
    <2a>   DW_AT_stmt_list   : 0
 <1><2e>: Abbrev Number: 4 (DW_TAG_base_type)
    <2f>   DW_AT_byte_size   : 8
    <30>   DW_AT_encoding    : 4	(float)
    <31>   DW_AT_name        : (indirect string, offset: 0xe7): double
 <1><35>: Abbrev Number: 7 (DW_TAG_typedef)
    <36>   DW_AT_name        : (indirect string, offset: 0x26): size_t
    <3a>   DW_AT_decl_file   : 2
    <3b>   DW_AT_decl_line   : 214
    <3c>   DW_AT_decl_column : 23
    <3d>   DW_AT_type        : <0x41>
 <1><41>: Abbrev Number: 4 (DW_TAG_base_type)
    <42>   DW_AT_byte_size   : 8
    <43>   DW_AT_encoding    : 7	(unsigned)
    <44>   DW_AT_name        : (indirect string, offset: 0x55): long unsigned int
 <1><48>: Abbrev Number: 4 (DW_TAG_base_type)
    <49>   DW_AT_byte_size   : 1
    <4a>   DW_AT_encoding    : 8	(unsigned char)
    <4b>   DW_AT_name        : (indirect string, offset: 0x28a): unsigned char
 <1><4f>: Abbrev Number: 4 (DW_TAG_base_type)
    <50>   DW_AT_byte_size   : 2
    <51>   DW_AT_encoding    : 7	(unsigned)
    <52>   DW_AT_name        : (indirect string, offset: 0x192): short unsigned int
 <1><56>: Abbrev Number: 4 (DW_TAG_base_type)
    <57>   DW_AT_byte_size   : 4
    <58>   DW_AT_encoding    : 7	(unsigned)
    <59>   DW_AT_name        : (indirect string, offset: 0x5a): unsigned int
 <1><5d>: Abbrev Number: 4 (DW_TAG_base_type)
    <5e>   DW_AT_byte_size   : 1
    <5f>   DW_AT_encoding    : 6	(signed char)
    <60>   DW_AT_name        : (indirect string, offset: 0x28c): signed char
 <1><64>: Abbrev Number: 4 (DW_TAG_base_type)
    <65>   DW_AT_byte_size   : 2
    <66>   DW_AT_encoding    : 5	(signed)
    <67>   DW_AT_name        : (indirect string, offset: 0x298): short int
 <1><6b>: Abbrev Number: 27 (DW_TAG_base_type)
    <6c>   DW_AT_byte_size   : 4
    <6d>   DW_AT_encoding    : 5	(signed)
    <6e>   DW_AT_name        : int
 <1><72>: Abbrev Number: 12 (DW_TAG_const_type)
    <73>   DW_AT_type        : <0x6b>
 <1><77>: Abbrev Number: 4 (DW_TAG_base_type)
    <78>   DW_AT_byte_size   : 8
    <79>   DW_AT_encoding    : 5	(signed)
    <7a>   DW_AT_name        : (indirect string, offset: 0x76): long int
 <1><7e>: Abbrev Number: 7 (DW_TAG_typedef)
    <7f>   DW_AT_name        : (indirect string, offset: 0): __off_t
    <83>   DW_AT_decl_file   : 3
    <84>   DW_AT_decl_line   : 152
    <85>   DW_AT_decl_column : 25
    <86>   DW_AT_type        : <0x77>
 <1><8a>: Abbrev Number: 7 (DW_TAG_typedef)
    <8b>   DW_AT_name        : (indirect string, offset: 0x2de): __off64_t
    <8f>   DW_AT_decl_file   : 3
    <90>   DW_AT_decl_line   : 153
    <91>   DW_AT_decl_column : 27
    <92>   DW_AT_type        : <0x77>
 <1><96>: Abbrev Number: 7 (DW_TAG_typedef)
    <97>   DW_AT_name        : (indirect string, offset: 0x311): __time_t
    <9b>   DW_AT_decl_file   : 3
    <9c>   DW_AT_decl_line   : 160
    <9d>   DW_AT_decl_column : 26
    <9e>   DW_AT_type        : <0x77>
 <1><a2>: Abbrev Number: 28 (DW_TAG_pointer_type)
    <a3>   DW_AT_byte_size   : 8
 <1><a4>: Abbrev Number: 7 (DW_TAG_typedef)
    <a5>   DW_AT_name        : (indirect string, offset: 0x1f3): __syscall_slong_t
    <a9>   DW_AT_decl_file   : 3
    <aa>   DW_AT_decl_line   : 197
    <ab>   DW_AT_decl_column : 33
    <ac>   DW_AT_type        : <0x77>
 <1><b0>: Abbrev Number: 6 (DW_TAG_pointer_type)
    <b1>   DW_AT_byte_size   : 8
    <b1>   DW_AT_type        : <0xb5>
 <1><b5>: Abbrev Number: 4 (DW_TAG_base_type)
    <b6>   DW_AT_byte_size   : 1
    <b7>   DW_AT_encoding    : 8	(unsigned char)
    <b8>   DW_AT_name        : (indirect string, offset: 0x293): char
 <1><bc>: Abbrev Number: 12 (DW_TAG_const_type)
    <bd>   DW_AT_type        : <0xb5>
 <1><c1>: Abbrev Number: 21 (DW_TAG_structure_type)
    <c2>   DW_AT_name        : (indirect string, offset: 0x230): _IO_FILE
    <c6>   DW_AT_byte_size   : 216
    <c7>   DW_AT_decl_file   : 4
    <c8>   DW_AT_decl_line   : 49
    <c9>   DW_AT_decl_column : 8
    <c9>   DW_AT_sibling     : <0x247>
 <2><cd>: Abbrev Number: 2 (DW_TAG_member)
    <ce>   DW_AT_name        : (indirect string, offset: 0xbc): _flags
    <d2>   DW_AT_decl_file   : 4
    <d3>   DW_AT_decl_line   : 51
    <d4>   DW_AT_decl_column : 7
    <d5>   DW_AT_type        : <0x6b>
    <d9>   DW_AT_data_member_location: 0
 <2><da>: Abbrev Number: 2 (DW_TAG_member)
    <db>   DW_AT_name        : (indirect string, offset: 0x8): _IO_read_ptr
    <df>   DW_AT_decl_file   : 4
    <e0>   DW_AT_decl_line   : 54
    <e1>   DW_AT_decl_column : 9
    <e2>   DW_AT_type        : <0xb0>
    <e6>   DW_AT_data_member_location: 8
 <2><e7>: Abbrev Number: 2 (DW_TAG_member)
    <e8>   DW_AT_name        : (indirect string, offset: 0xaf): _IO_read_end
    <ec>   DW_AT_decl_file   : 4
    <ed>   DW_AT_decl_line   : 55
    <ee>   DW_AT_decl_column : 9
    <ef>   DW_AT_type        : <0xb0>
    <f3>   DW_AT_data_member_location: 16
 <2><f4>: Abbrev Number: 2 (DW_TAG_member)
    <f5>   DW_AT_name        : (indirect string, offset: 0x2e8): _IO_read_base
    <f9>   DW_AT_decl_file   : 4
    <fa>   DW_AT_decl_line   : 56
    <fb>   DW_AT_decl_column : 9
    <fc>   DW_AT_type        : <0xb0>
    <100>   DW_AT_data_member_location: 24
 <2><101>: Abbrev Number: 2 (DW_TAG_member)
    <102>   DW_AT_name        : (indirect string, offset: 0x357): _IO_write_base
    <106>   DW_AT_decl_file   : 4
    <107>   DW_AT_decl_line   : 57
    <108>   DW_AT_decl_column : 9
    <109>   DW_AT_type        : <0xb0>
    <10d>   DW_AT_data_member_location: 32
 <2><10e>: Abbrev Number: 2 (DW_TAG_member)
    <10f>   DW_AT_name        : (indirect string, offset: 0x184): _IO_write_ptr
    <113>   DW_AT_decl_file   : 4
    <114>   DW_AT_decl_line   : 58
    <115>   DW_AT_decl_column : 9
    <116>   DW_AT_type        : <0xb0>
    <11a>   DW_AT_data_member_location: 40
 <2><11b>: Abbrev Number: 2 (DW_TAG_member)
    <11c>   DW_AT_name        : (indirect string, offset: 0x205): _IO_write_end
    <120>   DW_AT_decl_file   : 4
    <121>   DW_AT_decl_line   : 59
    <122>   DW_AT_decl_column : 9
    <123>   DW_AT_type        : <0xb0>
    <127>   DW_AT_data_member_location: 48
 <2><128>: Abbrev Number: 2 (DW_TAG_member)
    <129>   DW_AT_name        : (indirect string, offset: 0x43): _IO_buf_base
    <12d>   DW_AT_decl_file   : 4
    <12e>   DW_AT_decl_line   : 60
    <12f>   DW_AT_decl_column : 9
    <130>   DW_AT_type        : <0xb0>
    <134>   DW_AT_data_member_location: 56
 <2><135>: Abbrev Number: 2 (DW_TAG_member)
    <136>   DW_AT_name        : (indirect string, offset: 0xc3): _IO_buf_end
    <13a>   DW_AT_decl_file   : 4
    <13b>   DW_AT_decl_line   : 61
    <13c>   DW_AT_decl_column : 9
    <13d>   DW_AT_type        : <0xb0>
    <141>   DW_AT_data_member_location: 64
 <2><142>: Abbrev Number: 2 (DW_TAG_member)
    <143>   DW_AT_name        : (indirect string, offset: 0x1a5): _IO_save_base
    <147>   DW_AT_decl_file   : 4
    <148>   DW_AT_decl_line   : 64
    <149>   DW_AT_decl_column : 9
    <14a>   DW_AT_type        : <0xb0>
    <14e>   DW_AT_data_member_location: 72
 <2><14f>: Abbrev Number: 2 (DW_TAG_member)
    <150>   DW_AT_name        : (indirect string, offset: 0x32f): _IO_backup_base
    <154>   DW_AT_decl_file   : 4
    <155>   DW_AT_decl_line   : 65
    <156>   DW_AT_decl_column : 9
    <157>   DW_AT_type        : <0xb0>
    <15b>   DW_AT_data_member_location: 80
 <2><15c>: Abbrev Number: 2 (DW_TAG_member)
    <15d>   DW_AT_name        : (indirect string, offset: 0x2f6): _IO_save_end
    <161>   DW_AT_decl_file   : 4
    <162>   DW_AT_decl_line   : 66
    <163>   DW_AT_decl_column : 9
    <164>   DW_AT_type        : <0xb0>
    <168>   DW_AT_data_member_location: 88
 <2><169>: Abbrev Number: 2 (DW_TAG_member)
    <16a>   DW_AT_name        : (indirect string, offset: 0x25a): _markers
    <16e>   DW_AT_decl_file   : 4
    <16f>   DW_AT_decl_line   : 68
    <170>   DW_AT_decl_column : 22
    <171>   DW_AT_type        : <0x260>
    <175>   DW_AT_data_member_location: 96
 <2><176>: Abbrev Number: 2 (DW_TAG_member)
    <177>   DW_AT_name        : (indirect string, offset: 0x15): _chain
    <17b>   DW_AT_decl_file   : 4
    <17c>   DW_AT_decl_line   : 70
    <17d>   DW_AT_decl_column : 20
    <17e>   DW_AT_type        : <0x265>
    <182>   DW_AT_data_member_location: 104
 <2><183>: Abbrev Number: 2 (DW_TAG_member)
    <184>   DW_AT_name        : (indirect string, offset: 0x97): _fileno
    <188>   DW_AT_decl_file   : 4
    <189>   DW_AT_decl_line   : 72
    <18a>   DW_AT_decl_column : 7
    <18b>   DW_AT_type        : <0x6b>
    <18f>   DW_AT_data_member_location: 112
 <2><190>: Abbrev Number: 2 (DW_TAG_member)
    <191>   DW_AT_name        : (indirect string, offset: 0x1c1): _flags2
    <195>   DW_AT_decl_file   : 4
    <196>   DW_AT_decl_line   : 73
    <197>   DW_AT_decl_column : 7
    <198>   DW_AT_type        : <0x6b>
    <19c>   DW_AT_data_member_location: 116
 <2><19d>: Abbrev Number: 2 (DW_TAG_member)
    <19e>   DW_AT_name        : (indirect string, offset: 0xee): _old_offset
    <1a2>   DW_AT_decl_file   : 4
    <1a3>   DW_AT_decl_line   : 74
    <1a4>   DW_AT_decl_column : 11
    <1a5>   DW_AT_type        : <0x7e>
    <1a9>   DW_AT_data_member_location: 120
 <2><1aa>: Abbrev Number: 2 (DW_TAG_member)
    <1ab>   DW_AT_name        : (indirect string, offset: 0xcf): _cur_column
    <1af>   DW_AT_decl_file   : 4
    <1b0>   DW_AT_decl_line   : 77
    <1b1>   DW_AT_decl_column : 18
    <1b2>   DW_AT_type        : <0x4f>
    <1b6>   DW_AT_data_member_location: 128
 <2><1b7>: Abbrev Number: 2 (DW_TAG_member)
    <1b8>   DW_AT_name        : (indirect string, offset: 0x2c3): _vtable_offset
    <1bc>   DW_AT_decl_file   : 4
    <1bd>   DW_AT_decl_line   : 78
    <1be>   DW_AT_decl_column : 15
    <1bf>   DW_AT_type        : <0x5d>
    <1c3>   DW_AT_data_member_location: 130
 <2><1c4>: Abbrev Number: 2 (DW_TAG_member)
    <1c5>   DW_AT_name        : (indirect string, offset: 0x2d): _shortbuf
    <1c9>   DW_AT_decl_file   : 4
    <1ca>   DW_AT_decl_line   : 79
    <1cb>   DW_AT_decl_column : 8
    <1cc>   DW_AT_type        : <0x26a>
    <1d0>   DW_AT_data_member_location: 131
 <2><1d1>: Abbrev Number: 2 (DW_TAG_member)
    <1d2>   DW_AT_name        : (indirect string, offset: 0x1b3): _lock
    <1d6>   DW_AT_decl_file   : 4
    <1d7>   DW_AT_decl_line   : 81
    <1d8>   DW_AT_decl_column : 15
    <1d9>   DW_AT_type        : <0x27a>
    <1dd>   DW_AT_data_member_location: 136
 <2><1de>: Abbrev Number: 2 (DW_TAG_member)
    <1df>   DW_AT_name        : (indirect string, offset: 0xf2): _offset
    <1e3>   DW_AT_decl_file   : 4
    <1e4>   DW_AT_decl_line   : 89
    <1e5>   DW_AT_decl_column : 13
    <1e6>   DW_AT_type        : <0x8a>
    <1ea>   DW_AT_data_member_location: 144
 <2><1eb>: Abbrev Number: 2 (DW_TAG_member)
    <1ec>   DW_AT_name        : (indirect string, offset: 0xde): _codecvt
    <1f0>   DW_AT_decl_file   : 4
    <1f1>   DW_AT_decl_line   : 91
    <1f2>   DW_AT_decl_column : 23
    <1f3>   DW_AT_type        : <0x284>
    <1f7>   DW_AT_data_member_location: 152
 <2><1f8>: Abbrev Number: 2 (DW_TAG_member)
    <1f9>   DW_AT_name        : (indirect string, offset: 0x2a5): _wide_data
    <1fd>   DW_AT_decl_file   : 4
    <1fe>   DW_AT_decl_line   : 92
    <1ff>   DW_AT_decl_column : 25
    <200>   DW_AT_type        : <0x28e>
    <204>   DW_AT_data_member_location: 160
 <2><205>: Abbrev Number: 2 (DW_TAG_member)
    <206>   DW_AT_name        : (indirect string, offset: 0x344): _freeres_list
    <20a>   DW_AT_decl_file   : 4
    <20b>   DW_AT_decl_line   : 93
    <20c>   DW_AT_decl_column : 20
    <20d>   DW_AT_type        : <0x265>
    <211>   DW_AT_data_member_location: 168
 <2><212>: Abbrev Number: 2 (DW_TAG_member)
    <213>   DW_AT_name        : (indirect string, offset: 0x10d): _freeres_buf
    <217>   DW_AT_decl_file   : 4
    <218>   DW_AT_decl_line   : 94
    <219>   DW_AT_decl_column : 9
    <21a>   DW_AT_type        : <0xa2>
    <21e>   DW_AT_data_member_location: 176
 <2><21f>: Abbrev Number: 2 (DW_TAG_member)
    <220>   DW_AT_name        : (indirect string, offset: 0x30a): __pad5
    <224>   DW_AT_decl_file   : 4
    <225>   DW_AT_decl_line   : 95
    <226>   DW_AT_decl_column : 10
    <227>   DW_AT_type        : <0x35>
    <22b>   DW_AT_data_member_location: 184
 <2><22c>: Abbrev Number: 2 (DW_TAG_member)
    <22d>   DW_AT_name        : (indirect string, offset: 0x1c9): _mode
    <231>   DW_AT_decl_file   : 4
    <232>   DW_AT_decl_line   : 96
    <233>   DW_AT_decl_column : 7
    <234>   DW_AT_type        : <0x6b>
    <238>   DW_AT_data_member_location: 192
 <2><239>: Abbrev Number: 2 (DW_TAG_member)
    <23a>   DW_AT_name        : (indirect string, offset: 0x31a): _unused2
    <23e>   DW_AT_decl_file   : 4
    <23f>   DW_AT_decl_line   : 98
    <240>   DW_AT_decl_column : 8
    <241>   DW_AT_type        : <0x293>
    <245>   DW_AT_data_member_location: 196
 <2><246>: Abbrev Number: 0
 <1><247>: Abbrev Number: 7 (DW_TAG_typedef)
    <248>   DW_AT_name        : (indirect string, offset: 0x234): FILE
    <24c>   DW_AT_decl_file   : 5
    <24d>   DW_AT_decl_line   : 7
    <24e>   DW_AT_decl_column : 25
    <24f>   DW_AT_type        : <0xc1>
 <1><253>: Abbrev Number: 29 (DW_TAG_typedef)
    <254>   DW_AT_name        : (indirect string, offset: 0x21c): _IO_lock_t
    <258>   DW_AT_decl_file   : 4
    <259>   DW_AT_decl_line   : 43
    <25a>   DW_AT_decl_column : 14
 <1><25b>: Abbrev Number: 17 (DW_TAG_structure_type)
    <25c>   DW_AT_name        : (indirect string, offset: 0x102): _IO_marker
    <260>   DW_AT_declaration : 1
 <1><260>: Abbrev Number: 6 (DW_TAG_pointer_type)
    <261>   DW_AT_byte_size   : 8
    <261>   DW_AT_type        : <0x25b>
 <1><265>: Abbrev Number: 6 (DW_TAG_pointer_type)
    <266>   DW_AT_byte_size   : 8
    <266>   DW_AT_type        : <0xc1>
 <1><26a>: Abbrev Number: 13 (DW_TAG_array_type)
    <26b>   DW_AT_type        : <0xb5>
    <26f>   DW_AT_sibling     : <0x27a>
 <2><273>: Abbrev Number: 14 (DW_TAG_subrange_type)
    <274>   DW_AT_type        : <0x41>
    <278>   DW_AT_upper_bound : 0
 <2><279>: Abbrev Number: 0
 <1><27a>: Abbrev Number: 6 (DW_TAG_pointer_type)
    <27b>   DW_AT_byte_size   : 8
    <27b>   DW_AT_type        : <0x253>
 <1><27f>: Abbrev Number: 17 (DW_TAG_structure_type)
    <280>   DW_AT_name        : (indirect string, offset: 0xdb): _IO_codecvt
    <284>   DW_AT_declaration : 1
 <1><284>: Abbrev Number: 6 (DW_TAG_pointer_type)
    <285>   DW_AT_byte_size   : 8
    <285>   DW_AT_type        : <0x27f>
 <1><289>: Abbrev Number: 17 (DW_TAG_structure_type)
    <28a>   DW_AT_name        : (indirect string, offset: 0x2a2): _IO_wide_data
    <28e>   DW_AT_declaration : 1
 <1><28e>: Abbrev Number: 6 (DW_TAG_pointer_type)
    <28f>   DW_AT_byte_size   : 8
    <28f>   DW_AT_type        : <0x289>
 <1><293>: Abbrev Number: 13 (DW_TAG_array_type)
    <294>   DW_AT_type        : <0xb5>
    <298>   DW_AT_sibling     : <0x2a3>
 <2><29c>: Abbrev Number: 14 (DW_TAG_subrange_type)
    <29d>   DW_AT_type        : <0x41>
    <2a1>   DW_AT_upper_bound : 19
 <2><2a2>: Abbrev Number: 0
 <1><2a3>: Abbrev Number: 6 (DW_TAG_pointer_type)
    <2a4>   DW_AT_byte_size   : 8
    <2a4>   DW_AT_type        : <0x247>
 <1><2a8>: Abbrev Number: 22 (DW_TAG_restrict_type)
    <2a9>   DW_AT_type        : <0x2a3>
 <1><2ad>: Abbrev Number: 4 (DW_TAG_base_type)
    <2ae>   DW_AT_byte_size   : 8
    <2af>   DW_AT_encoding    : 5	(signed)
    <2b0>   DW_AT_name        : (indirect string, offset: 0x71): long long int
 <1><2b4>: Abbrev Number: 21 (DW_TAG_structure_type)
    <2b5>   DW_AT_name        : (indirect string, offset: 0x2ba): timespec
    <2b9>   DW_AT_byte_size   : 16
    <2ba>   DW_AT_decl_file   : 6
    <2bb>   DW_AT_decl_line   : 11
    <2bc>   DW_AT_decl_column : 8
    <2bc>   DW_AT_sibling     : <0x2db>
 <2><2c0>: Abbrev Number: 2 (DW_TAG_member)
    <2c1>   DW_AT_name        : (indirect string, offset: 0x1ec): tv_sec
    <2c5>   DW_AT_decl_file   : 6
    <2c6>   DW_AT_decl_line   : 16
    <2c7>   DW_AT_decl_column : 12
    <2c8>   DW_AT_type        : <0x96>
    <2cc>   DW_AT_data_member_location: 0
 <2><2cd>: Abbrev Number: 2 (DW_TAG_member)
    <2ce>   DW_AT_name        : (indirect string, offset: 0x1e4): tv_nsec
    <2d2>   DW_AT_decl_file   : 6
    <2d3>   DW_AT_decl_line   : 21
    <2d4>   DW_AT_decl_column : 21
    <2d5>   DW_AT_type        : <0xa4>
    <2d9>   DW_AT_data_member_location: 8
 <2><2da>: Abbrev Number: 0
 <1><2db>: Abbrev Number: 12 (DW_TAG_const_type)
    <2dc>   DW_AT_type        : <0x2b4>
 <1><2e0>: Abbrev Number: 4 (DW_TAG_base_type)
    <2e1>   DW_AT_byte_size   : 8
    <2e2>   DW_AT_encoding    : 7	(unsigned)
    <2e3>   DW_AT_name        : (indirect string, offset: 0x50): long long unsigned int
 <1><2e7>: Abbrev Number: 6 (DW_TAG_pointer_type)
    <2e8>   DW_AT_byte_size   : 8
    <2e8>   DW_AT_type        : <0xbc>
 <1><2ec>: Abbrev Number: 22 (DW_TAG_restrict_type)
    <2ed>   DW_AT_type        : <0x2e7>
 <1><2f1>: Abbrev Number: 30 (DW_TAG_variable)
    <2f2>   DW_AT_name        : (indirect string, offset: 0x90): blinky
    <2f6>   DW_AT_decl_file   : 1
    <2f7>   DW_AT_decl_line   : 12
    <2f8>   DW_AT_decl_column : 18
    <2f9>   DW_AT_type        : <0x72>
    <2fd>   DW_AT_const_value : 440
 <1><2ff>: Abbrev Number: 23 (DW_TAG_variable)
    <300>   DW_AT_name        : fp
    <303>   DW_AT_decl_file   : 1
    <303>   DW_AT_decl_line   : 17
    <304>   DW_AT_decl_column : 14
    <305>   DW_AT_type        : <0x2a3>
    <309>   DW_AT_location    : 9 byte block: 3 a8 30 0 0 0 0 0 0 	(DW_OP_addr: 30a8)
 <1><313>: Abbrev Number: 9 (DW_TAG_variable)
    <314>   DW_AT_name        : (indirect string, offset: 0x270): time_dit
    <318>   DW_AT_decl_file   : 1
    <318>   DW_AT_decl_line   : 85
    <319>   DW_AT_decl_column : 21
    <319>   DW_AT_type        : <0x326>
    <31d>   DW_AT_const_value : 8 byte block: 1f 85 eb 51 b8 1e d5 3f 
 <1><326>: Abbrev Number: 12 (DW_TAG_const_type)
    <327>   DW_AT_type        : <0x2e>
 <1><32b>: Abbrev Number: 9 (DW_TAG_variable)
    <32c>   DW_AT_name        : (indirect string, offset: 0x213): time_dah
    <330>   DW_AT_decl_file   : 1
    <330>   DW_AT_decl_line   : 86
    <331>   DW_AT_decl_column : 21
    <331>   DW_AT_type        : <0x326>
    <335>   DW_AT_const_value : 8 byte block: ae 47 e1 7a 14 ae ef 3f 
 <1><33e>: Abbrev Number: 9 (DW_TAG_variable)
    <33f>   DW_AT_name        : (indirect string, offset: 0x279): time_space
    <343>   DW_AT_decl_file   : 1
    <343>   DW_AT_decl_line   : 88
    <344>   DW_AT_decl_column : 21
    <344>   DW_AT_type        : <0x326>
    <348>   DW_AT_const_value : 8 byte block: 1f 85 eb 51 b8 1e d5 3f 
 <1><351>: Abbrev Number: 9 (DW_TAG_variable)
    <352>   DW_AT_name        : (indirect string, offset: 0x239): time_letter
    <356>   DW_AT_decl_file   : 1
    <356>   DW_AT_decl_line   : 90
    <357>   DW_AT_decl_column : 21
    <357>   DW_AT_type        : <0x326>
    <35b>   DW_AT_const_value : 8 byte block: 1f 85 eb 51 b8 1e e5 3f 
 <1><364>: Abbrev Number: 9 (DW_TAG_variable)
    <365>   DW_AT_name        : (indirect string, offset: 0x1c): time_word
    <369>   DW_AT_decl_file   : 1
    <369>   DW_AT_decl_line   : 92
    <36a>   DW_AT_decl_column : 21
    <36a>   DW_AT_type        : <0x326>
    <36e>   DW_AT_const_value : 8 byte block: 1f 85 eb 51 b8 1e f5 3f 
 <1><377>: Abbrev Number: 13 (DW_TAG_array_type)
    <378>   DW_AT_type        : <0x2e7>
    <37c>   DW_AT_sibling     : <0x387>
 <2><380>: Abbrev Number: 14 (DW_TAG_subrange_type)
    <381>   DW_AT_type        : <0x41>
    <385>   DW_AT_upper_bound : 35
 <2><386>: Abbrev Number: 0
 <1><387>: Abbrev Number: 24 (DW_TAG_variable)
    <388>   DW_AT_name        : (indirect string, offset: 0x2b0): morse_tbl
    <38c>   DW_AT_decl_file   : 1
    <38c>   DW_AT_decl_line   : 100
    <38d>   DW_AT_decl_column : 20
    <38e>   DW_AT_type        : <0x377>
    <392>   DW_AT_location    : 9 byte block: 3 0 2d 0 0 0 0 0 0 	(DW_OP_addr: 2d00)
 <1><39c>: Abbrev Number: 10 (DW_TAG_subprogram)
    <39d>   DW_AT_external    : 1
    <39d>   DW_AT_name        : (indirect string, offset: 0x67): nanosleep
    <3a1>   DW_AT_decl_file   : 7
    <3a2>   DW_AT_decl_line   : 281
    <3a4>   DW_AT_decl_column : 12
    <3a5>   DW_AT_prototyped  : 1
    <3a5>   DW_AT_type        : <0x6b>
    <3a9>   DW_AT_declaration : 1
    <3a9>   DW_AT_sibling     : <0x3b8>
 <2><3ad>: Abbrev Number: 5 (DW_TAG_formal_parameter)
    <3ae>   DW_AT_type        : <0x3b8>
 <2><3b2>: Abbrev Number: 5 (DW_TAG_formal_parameter)
    <3b3>   DW_AT_type        : <0x3bd>
 <2><3b7>: Abbrev Number: 0
 <1><3b8>: Abbrev Number: 6 (DW_TAG_pointer_type)
    <3b9>   DW_AT_byte_size   : 8
    <3b9>   DW_AT_type        : <0x2db>
 <1><3bd>: Abbrev Number: 6 (DW_TAG_pointer_type)
    <3be>   DW_AT_byte_size   : 8
    <3be>   DW_AT_type        : <0x2b4>
 <1><3c2>: Abbrev Number: 25 (DW_TAG_subprogram)
    <3c3>   DW_AT_external    : 1
    <3c3>   DW_AT_name        : (indirect string, offset: 0x253): fflush
    <3c7>   DW_AT_decl_file   : 8
    <3c7>   DW_AT_decl_line   : 230
    <3c8>   DW_AT_decl_column : 12
    <3c8>   DW_AT_prototyped  : 1
    <3c8>   DW_AT_type        : <0x6b>
    <3cc>   DW_AT_declaration : 1
    <3cc>   DW_AT_sibling     : <0x3d6>
 <2><3d0>: Abbrev Number: 5 (DW_TAG_formal_parameter)
    <3d1>   DW_AT_type        : <0x2a3>
 <2><3d5>: Abbrev Number: 0
 <1><3d6>: Abbrev Number: 25 (DW_TAG_subprogram)
    <3d7>   DW_AT_external    : 1
    <3d7>   DW_AT_name        : (indirect string, offset: 0x2d7): fclose
    <3db>   DW_AT_decl_file   : 8
    <3db>   DW_AT_decl_line   : 178
    <3dc>   DW_AT_decl_column : 12
    <3dc>   DW_AT_prototyped  : 1
    <3dc>   DW_AT_type        : <0x6b>
    <3e0>   DW_AT_declaration : 1
    <3e0>   DW_AT_sibling     : <0x3ea>
 <2><3e4>: Abbrev Number: 5 (DW_TAG_formal_parameter)
    <3e5>   DW_AT_type        : <0x2a3>
 <2><3e9>: Abbrev Number: 0
 <1><3ea>: Abbrev Number: 10 (DW_TAG_subprogram)
    <3eb>   DW_AT_external    : 1
    <3eb>   DW_AT_name        : (indirect string, offset: 0x17c): fprintf
    <3ef>   DW_AT_decl_file   : 8
    <3f0>   DW_AT_decl_line   : 350
    <3f2>   DW_AT_decl_column : 12
    <3f3>   DW_AT_prototyped  : 1
    <3f3>   DW_AT_type        : <0x6b>
    <3f7>   DW_AT_declaration : 1
    <3f7>   DW_AT_sibling     : <0x407>
 <2><3fb>: Abbrev Number: 5 (DW_TAG_formal_parameter)
    <3fc>   DW_AT_type        : <0x2a8>
 <2><400>: Abbrev Number: 5 (DW_TAG_formal_parameter)
    <401>   DW_AT_type        : <0x2ec>
 <2><405>: Abbrev Number: 18 (DW_TAG_unspecified_parameters)
 <2><406>: Abbrev Number: 0
 <1><407>: Abbrev Number: 31 (DW_TAG_subprogram)
    <408>   DW_AT_external    : 1
    <408>   DW_AT_name        : (indirect string, offset: 0x2d2): exit
    <40c>   DW_AT_decl_file   : 9
    <40d>   DW_AT_decl_line   : 637
    <40f>   DW_AT_decl_column : 13
    <410>   DW_AT_prototyped  : 1
    <410>   DW_AT_noreturn    : 1
    <410>   DW_AT_declaration : 1
    <410>   DW_AT_sibling     : <0x41a>
 <2><414>: Abbrev Number: 5 (DW_TAG_formal_parameter)
    <415>   DW_AT_type        : <0x6b>
 <2><419>: Abbrev Number: 0
 <1><41a>: Abbrev Number: 10 (DW_TAG_subprogram)
    <41b>   DW_AT_external    : 1
    <41b>   DW_AT_name        : (indirect string, offset: 0x24d): fopen
    <41f>   DW_AT_decl_file   : 8
    <420>   DW_AT_decl_line   : 258
    <422>   DW_AT_decl_column : 14
    <423>   DW_AT_prototyped  : 1
    <423>   DW_AT_type        : <0x2a3>
    <427>   DW_AT_declaration : 1
    <427>   DW_AT_sibling     : <0x436>
 <2><42b>: Abbrev Number: 5 (DW_TAG_formal_parameter)
    <42c>   DW_AT_type        : <0x2ec>
 <2><430>: Abbrev Number: 5 (DW_TAG_formal_parameter)
    <431>   DW_AT_type        : <0x2ec>
 <2><435>: Abbrev Number: 0
 <1><436>: Abbrev Number: 10 (DW_TAG_subprogram)
    <437>   DW_AT_external    : 1
    <437>   DW_AT_name        : (indirect string, offset: 0x17d): printf
    <43b>   DW_AT_decl_file   : 8
    <43c>   DW_AT_decl_line   : 356
    <43e>   DW_AT_decl_column : 12
    <43f>   DW_AT_prototyped  : 1
    <43f>   DW_AT_type        : <0x6b>
    <443>   DW_AT_declaration : 1
    <443>   DW_AT_sibling     : <0x44e>
 <2><447>: Abbrev Number: 5 (DW_TAG_formal_parameter)
    <448>   DW_AT_type        : <0x2e7>
 <2><44c>: Abbrev Number: 18 (DW_TAG_unspecified_parameters)
 <2><44d>: Abbrev Number: 0
 <1><44e>: Abbrev Number: 10 (DW_TAG_subprogram)
    <44f>   DW_AT_external    : 1
    <44f>   DW_AT_name        : (indirect string, offset: 0x1b9): sprintf
    <453>   DW_AT_decl_file   : 8
    <454>   DW_AT_decl_line   : 358
    <456>   DW_AT_decl_column : 12
    <457>   DW_AT_prototyped  : 1
    <457>   DW_AT_type        : <0x6b>
    <45b>   DW_AT_declaration : 1
    <45b>   DW_AT_sibling     : <0x46b>
 <2><45f>: Abbrev Number: 5 (DW_TAG_formal_parameter)
    <460>   DW_AT_type        : <0xb0>
 <2><464>: Abbrev Number: 5 (DW_TAG_formal_parameter)
    <465>   DW_AT_type        : <0x2e7>
 <2><469>: Abbrev Number: 18 (DW_TAG_unspecified_parameters)
 <2><46a>: Abbrev Number: 0
 <1><46b>: Abbrev Number: 32 (DW_TAG_subprogram)
    <46c>   DW_AT_external    : 1
    <46c>   DW_AT_name        : (indirect string, offset: 0x352): main
    <470>   DW_AT_decl_file   : 1
    <471>   DW_AT_decl_line   : 201
    <472>   DW_AT_decl_column : 5
    <473>   DW_AT_prototyped  : 1
    <473>   DW_AT_type        : <0x6b>
    <477>   DW_AT_low_pc      : 0xf60
    <47f>   DW_AT_high_pc     : 0x2c
    <487>   DW_AT_frame_base  : 1 byte block: 9c 	(DW_OP_call_frame_cfa)
    <489>   DW_AT_call_all_calls: 1
    <489>   DW_AT_sibling     : <0x4ff>
 <2><48d>: Abbrev Number: 15 (DW_TAG_formal_parameter)
    <48e>   DW_AT_name        : (indirect string, offset: 0x33f): argc
    <492>   DW_AT_decl_file   : 1
    <492>   DW_AT_decl_line   : 201
    <493>   DW_AT_decl_column : 15
    <494>   DW_AT_type        : <0x6b>
    <498>   DW_AT_location    : 0xc (location list)
 <2><49c>: Abbrev Number: 15 (DW_TAG_formal_parameter)
    <49d>   DW_AT_name        : (indirect string, offset: 0x323): argv
    <4a1>   DW_AT_decl_file   : 1
    <4a1>   DW_AT_decl_line   : 201
    <4a2>   DW_AT_decl_column : 28
    <4a3>   DW_AT_type        : <0x4ff>
    <4a7>   DW_AT_location    : 0x36 (location list)
 <2><4ab>: Abbrev Number: 3 (DW_TAG_call_site)
    <4ac>   DW_AT_call_return_pc: 0xf70
    <4b4>   DW_AT_call_origin : <0xa29>
    <4b8>   DW_AT_sibling     : <0x4ca>
 <3><4bc>: Abbrev Number: 1 (DW_TAG_call_site_parameter)
    <4bd>   DW_AT_location    : 1 byte block: 5a 	(DW_OP_reg10 (a0))
    <4bf>   DW_AT_call_value  : 9 byte block: 3 10 11 0 0 0 0 0 0 	(DW_OP_addr: 1110)
 <3><4c9>: Abbrev Number: 0
 <2><4ca>: Abbrev Number: 3 (DW_TAG_call_site)
    <4cb>   DW_AT_call_return_pc: 0xf78
    <4d3>   DW_AT_call_origin : <0x731>
    <4d7>   DW_AT_sibling     : <0x4e3>
 <3><4db>: Abbrev Number: 1 (DW_TAG_call_site_parameter)
    <4dc>   DW_AT_location    : 1 byte block: 5a 	(DW_OP_reg10 (a0))
    <4de>   DW_AT_call_value  : 3 byte block: a b8 1 	(DW_OP_const2u: 440)
 <3><4e2>: Abbrev Number: 0
 <2><4e3>: Abbrev Number: 16 (DW_TAG_call_site)
    <4e4>   DW_AT_call_return_pc: 0xf84
    <4ec>   DW_AT_call_origin : <0x504>
 <3><4f0>: Abbrev Number: 1 (DW_TAG_call_site_parameter)
    <4f1>   DW_AT_location    : 1 byte block: 5a 	(DW_OP_reg10 (a0))
    <4f3>   DW_AT_call_value  : 9 byte block: 3 28 11 0 0 0 0 0 0 	(DW_OP_addr: 1128)
 <3><4fd>: Abbrev Number: 0
 <2><4fe>: Abbrev Number: 0
 <1><4ff>: Abbrev Number: 6 (DW_TAG_pointer_type)
    <500>   DW_AT_byte_size   : 8
    <500>   DW_AT_type        : <0xb0>
 <1><504>: Abbrev Number: 11 (DW_TAG_subprogram)
    <505>   DW_AT_external    : 1
    <505>   DW_AT_name        : (indirect string, offset: 0x1de): morse
    <509>   DW_AT_decl_file   : 1
    <509>   DW_AT_decl_line   : 192
    <50a>   DW_AT_decl_column : 6
    <50a>   DW_AT_prototyped  : 1
    <50a>   DW_AT_low_pc      : 0xf3e
    <512>   DW_AT_high_pc     : 0x22
    <51a>   DW_AT_frame_base  : 1 byte block: 9c 	(DW_OP_call_frame_cfa)
    <51c>   DW_AT_call_all_calls: 1
    <51c>   DW_AT_sibling     : <0x53d>
 <2><520>: Abbrev Number: 15 (DW_TAG_formal_parameter)
    <521>   DW_AT_name        : (indirect string, offset: 0x37): string
    <525>   DW_AT_decl_file   : 1
    <525>   DW_AT_decl_line   : 192
    <526>   DW_AT_decl_column : 25
    <527>   DW_AT_type        : <0x2e7>
    <52b>   DW_AT_location    : 0x60 (location list)
 <2><52f>: Abbrev Number: 8 (DW_TAG_call_site)
    <530>   DW_AT_call_return_pc: 0xf50
    <538>   DW_AT_call_origin : <0x53d>
 <2><53c>: Abbrev Number: 0
 <1><53d>: Abbrev Number: 11 (DW_TAG_subprogram)
    <53e>   DW_AT_external    : 1
    <53e>   DW_AT_name        : (indirect string, offset: 0x263): morse_letter
    <542>   DW_AT_decl_file   : 1
    <542>   DW_AT_decl_line   : 140
    <543>   DW_AT_decl_column : 6
    <543>   DW_AT_prototyped  : 1
    <543>   DW_AT_low_pc      : 0xe62
    <54b>   DW_AT_high_pc     : 0xdc
    <553>   DW_AT_frame_base  : 1 byte block: 9c 	(DW_OP_call_frame_cfa)
    <555>   DW_AT_call_all_calls: 1
    <555>   DW_AT_sibling     : <0x691>
 <2><559>: Abbrev Number: 19 (DW_TAG_formal_parameter)
    <55a>   DW_AT_name        : let
    <55e>   DW_AT_decl_file   : 1
    <55e>   DW_AT_decl_line   : 140
    <55f>   DW_AT_decl_column : 30
    <560>   DW_AT_type        : <0xbc>
    <564>   DW_AT_location    : 0x87 (location list)
 <2><568>: Abbrev Number: 33 (DW_TAG_variable)
    <569>   DW_AT_name        : (indirect string, offset: 0x245): pattern
    <56d>   DW_AT_decl_file   : 1
    <56e>   DW_AT_decl_line   : 151
    <56f>   DW_AT_decl_column : 15
    <570>   DW_AT_type        : <0x2e7>
    <574>   DW_AT_location    : 0x103 (location list)
 <2><578>: Abbrev Number: 3 (DW_TAG_call_site)
    <579>   DW_AT_call_return_pc: 0xea6
    <581>   DW_AT_call_origin : <0x436>
    <585>   DW_AT_sibling     : <0x59d>
 <3><589>: Abbrev Number: 1 (DW_TAG_call_site_parameter)
    <58a>   DW_AT_location    : 1 byte block: 5a 	(DW_OP_reg10 (a0))
    <58c>   DW_AT_call_value  : 9 byte block: 3 f8 10 0 0 0 0 0 0 	(DW_OP_addr: 10f8)
 <3><596>: Abbrev Number: 1 (DW_TAG_call_site_parameter)
    <597>   DW_AT_location    : 1 byte block: 5c 	(DW_OP_reg12 (a2))
    <599>   DW_AT_call_value  : 2 byte block: 78 0 	(DW_OP_breg8 (s0): 0)
 <3><59c>: Abbrev Number: 0
 <2><59d>: Abbrev Number: 3 (DW_TAG_call_site)
    <59e>   DW_AT_call_return_pc: 0xece
    <5a6>   DW_AT_call_origin : <0xa29>
    <5aa>   DW_AT_sibling     : <0x5bc>
 <3><5ae>: Abbrev Number: 1 (DW_TAG_call_site_parameter)
    <5af>   DW_AT_location    : 1 byte block: 5a 	(DW_OP_reg10 (a0))
    <5b1>   DW_AT_call_value  : 9 byte block: 3 f0 10 0 0 0 0 0 0 	(DW_OP_addr: 10f0)
 <3><5bb>: Abbrev Number: 0
 <2><5bc>: Abbrev Number: 3 (DW_TAG_call_site)
    <5bd>   DW_AT_call_return_pc: 0xeda
    <5c5>   DW_AT_call_origin : <0x691>
    <5c9>   DW_AT_sibling     : <0x5de>
 <3><5cd>: Abbrev Number: 1 (DW_TAG_call_site_parameter)
    <5ce>   DW_AT_location    : 2 byte block: 90 2a 	(DW_OP_regx: 42 (fa0))
    <5d1>   DW_AT_call_value  : 11 byte block: a4 2e 8 1f 85 eb 51 b8 1e f5 3f 	(DW_OP_const_type: <0x2e>  8 byte block: 1f 85 eb 51 b8 1e f5 3f )
 <3><5dd>: Abbrev Number: 0
 <2><5de>: Abbrev Number: 3 (DW_TAG_call_site)
    <5df>   DW_AT_call_return_pc: 0xef8
    <5e7>   DW_AT_call_origin : <0x691>
    <5eb>   DW_AT_sibling     : <0x600>
 <3><5ef>: Abbrev Number: 1 (DW_TAG_call_site_parameter)
    <5f0>   DW_AT_location    : 2 byte block: 90 2a 	(DW_OP_regx: 42 (fa0))
    <5f3>   DW_AT_call_value  : 11 byte block: a4 2e 8 1f 85 eb 51 b8 1e d5 3f 	(DW_OP_const_type: <0x2e>  8 byte block: 1f 85 eb 51 b8 1e d5 3f )
 <3><5ff>: Abbrev Number: 0
 <2><600>: Abbrev Number: 3 (DW_TAG_call_site)
    <601>   DW_AT_call_return_pc: 0xefe
    <609>   DW_AT_call_origin : <0x6e4>
    <60d>   DW_AT_sibling     : <0x617>
 <3><611>: Abbrev Number: 1 (DW_TAG_call_site_parameter)
    <612>   DW_AT_location    : 1 byte block: 5a 	(DW_OP_reg10 (a0))
    <614>   DW_AT_call_value  : 1 byte block: 30 	(DW_OP_lit0)
 <3><616>: Abbrev Number: 0
 <2><617>: Abbrev Number: 3 (DW_TAG_call_site)
    <618>   DW_AT_call_return_pc: 0xf04
    <620>   DW_AT_call_origin : <0x691>
    <624>   DW_AT_sibling     : <0x639>
 <3><628>: Abbrev Number: 1 (DW_TAG_call_site_parameter)
    <629>   DW_AT_location    : 2 byte block: 90 2a 	(DW_OP_regx: 42 (fa0))
    <62c>   DW_AT_call_value  : 11 byte block: a4 2e 8 1f 85 eb 51 b8 1e d5 3f 	(DW_OP_const_type: <0x2e>  8 byte block: 1f 85 eb 51 b8 1e d5 3f )
 <3><638>: Abbrev Number: 0
 <2><639>: Abbrev Number: 3 (DW_TAG_call_site)
    <63a>   DW_AT_call_return_pc: 0xf12
    <642>   DW_AT_call_origin : <0x6e4>
    <646>   DW_AT_sibling     : <0x650>
 <3><64a>: Abbrev Number: 1 (DW_TAG_call_site_parameter)
    <64b>   DW_AT_location    : 1 byte block: 5a 	(DW_OP_reg10 (a0))
    <64d>   DW_AT_call_value  : 1 byte block: 31 	(DW_OP_lit1)
 <3><64f>: Abbrev Number: 0
 <2><650>: Abbrev Number: 3 (DW_TAG_call_site)
    <651>   DW_AT_call_return_pc: 0xf22
    <659>   DW_AT_call_origin : <0x691>
    <65d>   DW_AT_sibling     : <0x672>
 <3><661>: Abbrev Number: 1 (DW_TAG_call_site_parameter)
    <662>   DW_AT_location    : 2 byte block: 90 2a 	(DW_OP_regx: 42 (fa0))
    <665>   DW_AT_call_value  : 11 byte block: a4 2e 8 ae 47 e1 7a 14 ae ef 3f 	(DW_OP_const_type: <0x2e>  8 byte block: ae 47 e1 7a 14 ae ef 3f )
 <3><671>: Abbrev Number: 0
 <2><672>: Abbrev Number: 16 (DW_TAG_call_site)
    <673>   DW_AT_call_return_pc: 0xf30
    <67b>   DW_AT_call_origin : <0x691>
 <3><67f>: Abbrev Number: 1 (DW_TAG_call_site_parameter)
    <680>   DW_AT_location    : 2 byte block: 90 2a 	(DW_OP_regx: 42 (fa0))
    <683>   DW_AT_call_value  : 11 byte block: a4 2e 8 1f 85 eb 51 b8 1e e5 3f 	(DW_OP_const_type: <0x2e>  8 byte block: 1f 85 eb 51 b8 1e e5 3f )
 <3><68f>: Abbrev Number: 0
 <2><690>: Abbrev Number: 0
 <1><691>: Abbrev Number: 11 (DW_TAG_subprogram)
    <692>   DW_AT_external    : 1
    <692>   DW_AT_name        : (indirect string, offset: 0x303): fsleep
    <696>   DW_AT_decl_file   : 1
    <696>   DW_AT_decl_line   : 70
    <697>   DW_AT_decl_column : 6
    <697>   DW_AT_prototyped  : 1
    <697>   DW_AT_low_pc      : 0xe3c
    <69f>   DW_AT_high_pc     : 0x26
    <6a7>   DW_AT_frame_base  : 1 byte block: 9c 	(DW_OP_call_frame_cfa)
    <6a9>   DW_AT_call_all_calls: 1
    <6a9>   DW_AT_sibling     : <0x6e4>
 <2><6ad>: Abbrev Number: 19 (DW_TAG_formal_parameter)
    <6ae>   DW_AT_name        : dur
    <6b2>   DW_AT_decl_file   : 1
    <6b2>   DW_AT_decl_line   : 70
    <6b3>   DW_AT_decl_column : 20
    <6b4>   DW_AT_type        : <0x2e>
    <6b8>   DW_AT_location    : 0x162 (location list)
 <2><6bc>: Abbrev Number: 23 (DW_TAG_variable)
    <6bd>   DW_AT_name        : tim
    <6c1>   DW_AT_decl_file   : 1
    <6c1>   DW_AT_decl_line   : 72
    <6c2>   DW_AT_decl_column : 18
    <6c3>   DW_AT_type        : <0x2b4>
    <6c7>   DW_AT_location    : 2 byte block: 91 60 	(DW_OP_fbreg: -32)
 <2><6ca>: Abbrev Number: 16 (DW_TAG_call_site)
    <6cb>   DW_AT_call_return_pc: 0xe5c
    <6d3>   DW_AT_call_origin : <0x39c>
 <3><6d7>: Abbrev Number: 1 (DW_TAG_call_site_parameter)
    <6d8>   DW_AT_location    : 1 byte block: 5a 	(DW_OP_reg10 (a0))
    <6da>   DW_AT_call_value  : 2 byte block: 72 0 	(DW_OP_breg2 (sp): 0)
 <3><6dd>: Abbrev Number: 1 (DW_TAG_call_site_parameter)
    <6de>   DW_AT_location    : 1 byte block: 5b 	(DW_OP_reg11 (a1))
    <6e0>   DW_AT_call_value  : 1 byte block: 30 	(DW_OP_lit0)
 <3><6e2>: Abbrev Number: 0
 <2><6e3>: Abbrev Number: 0
 <1><6e4>: Abbrev Number: 11 (DW_TAG_subprogram)
    <6e5>   DW_AT_external    : 1
    <6e5>   DW_AT_name        : (indirect string, offset: 0x227): io_write
    <6e9>   DW_AT_decl_file   : 1
    <6e9>   DW_AT_decl_line   : 63
    <6ea>   DW_AT_decl_column : 6
    <6ea>   DW_AT_prototyped  : 1
    <6ea>   DW_AT_low_pc      : 0xe06
    <6f2>   DW_AT_high_pc     : 0x36
    <6fa>   DW_AT_frame_base  : 1 byte block: 9c 	(DW_OP_call_frame_cfa)
    <6fc>   DW_AT_call_all_calls: 1
    <6fc>   DW_AT_sibling     : <0x72a>
 <2><700>: Abbrev Number: 15 (DW_TAG_formal_parameter)
    <701>   DW_AT_name        : (indirect string, offset: 0x328): status
    <705>   DW_AT_decl_file   : 1
    <705>   DW_AT_decl_line   : 63
    <706>   DW_AT_decl_column : 20
    <707>   DW_AT_type        : <0x72a>
    <70b>   DW_AT_location    : 0x18f (location list)
 <2><70f>: Abbrev Number: 8 (DW_TAG_call_site)
    <710>   DW_AT_call_return_pc: 0xe2a
    <718>   DW_AT_call_origin : <0x3ea>
 <2><71c>: Abbrev Number: 8 (DW_TAG_call_site)
    <71d>   DW_AT_call_return_pc: 0xe36
    <725>   DW_AT_call_origin : <0x3c2>
 <2><729>: Abbrev Number: 0
 <1><72a>: Abbrev Number: 4 (DW_TAG_base_type)
    <72b>   DW_AT_byte_size   : 1
    <72c>   DW_AT_encoding    : 2	(boolean)
    <72d>   DW_AT_name        : (indirect string, offset: 0x284): _Bool
 <1><731>: Abbrev Number: 11 (DW_TAG_subprogram)
    <732>   DW_AT_external    : 1
    <732>   DW_AT_name        : (indirect string, offset: 0xfa): io_init
    <736>   DW_AT_decl_file   : 1
    <736>   DW_AT_decl_line   : 18
    <737>   DW_AT_decl_column : 6
    <737>   DW_AT_prototyped  : 1
    <737>   DW_AT_low_pc      : 0xca8
    <73f>   DW_AT_high_pc     : 0x15e
    <747>   DW_AT_frame_base  : 1 byte block: 9c 	(DW_OP_call_frame_cfa)
    <749>   DW_AT_call_all_calls: 1
    <749>   DW_AT_sibling     : <0xa19>
 <2><74d>: Abbrev Number: 19 (DW_TAG_formal_parameter)
    <74e>   DW_AT_name        : pin
    <752>   DW_AT_decl_file   : 1
    <752>   DW_AT_decl_line   : 18
    <753>   DW_AT_decl_column : 24
    <754>   DW_AT_type        : <0x72>
    <758>   DW_AT_location    : 0x1b9 (location list)
 <2><75c>: Abbrev Number: 24 (DW_TAG_variable)
    <75d>   DW_AT_name        : (indirect string, offset: 0x3e): path
    <761>   DW_AT_decl_file   : 1
    <761>   DW_AT_decl_line   : 20
    <762>   DW_AT_decl_column : 7
    <763>   DW_AT_type        : <0xa19>
    <767>   DW_AT_location    : 3 byte block: 91 a0 7f 	(DW_OP_fbreg: -96)
 <2><76b>: Abbrev Number: 3 (DW_TAG_call_site)
    <76c>   DW_AT_call_return_pc: 0xcc6
    <774>   DW_AT_call_origin : <0x44e>
    <778>   DW_AT_sibling     : <0x796>
 <3><77c>: Abbrev Number: 1 (DW_TAG_call_site_parameter)
    <77d>   DW_AT_location    : 1 byte block: 5a 	(DW_OP_reg10 (a0))
    <77f>   DW_AT_call_value  : 2 byte block: 72 0 	(DW_OP_breg2 (sp): 0)
 <3><782>: Abbrev Number: 1 (DW_TAG_call_site_parameter)
    <783>   DW_AT_location    : 1 byte block: 5b 	(DW_OP_reg11 (a1))
    <785>   DW_AT_call_value  : 9 byte block: 3 98 f 0 0 0 0 0 0 	(DW_OP_addr: f98)
 <3><78f>: Abbrev Number: 1 (DW_TAG_call_site_parameter)
    <790>   DW_AT_location    : 1 byte block: 5c 	(DW_OP_reg12 (a2))
    <792>   DW_AT_call_value  : 2 byte block: 79 0 	(DW_OP_breg9 (s1): 0)
 <3><795>: Abbrev Number: 0
 <2><796>: Abbrev Number: 3 (DW_TAG_call_site)
    <797>   DW_AT_call_return_pc: 0xcd4
    <79f>   DW_AT_call_origin : <0x436>
    <7a3>   DW_AT_sibling     : <0x7bb>
 <3><7a7>: Abbrev Number: 1 (DW_TAG_call_site_parameter)
    <7a8>   DW_AT_location    : 1 byte block: 5a 	(DW_OP_reg10 (a0))
    <7aa>   DW_AT_call_value  : 9 byte block: 3 c0 f 0 0 0 0 0 0 	(DW_OP_addr: fc0)
 <3><7b4>: Abbrev Number: 1 (DW_TAG_call_site_parameter)
    <7b5>   DW_AT_location    : 1 byte block: 5b 	(DW_OP_reg11 (a1))
    <7b7>   DW_AT_call_value  : 2 byte block: 72 0 	(DW_OP_breg2 (sp): 0)
 <3><7ba>: Abbrev Number: 0
 <2><7bb>: Abbrev Number: 3 (DW_TAG_call_site)
    <7bc>   DW_AT_call_return_pc: 0xce2
    <7c4>   DW_AT_call_origin : <0x41a>
    <7c8>   DW_AT_sibling     : <0x7e0>
 <3><7cc>: Abbrev Number: 1 (DW_TAG_call_site_parameter)
    <7cd>   DW_AT_location    : 1 byte block: 5a 	(DW_OP_reg10 (a0))
    <7cf>   DW_AT_call_value  : 2 byte block: 72 0 	(DW_OP_breg2 (sp): 0)
 <3><7d2>: Abbrev Number: 1 (DW_TAG_call_site_parameter)
    <7d3>   DW_AT_location    : 1 byte block: 5b 	(DW_OP_reg11 (a1))
    <7d5>   DW_AT_call_value  : 9 byte block: 3 e0 f 0 0 0 0 0 0 	(DW_OP_addr: fe0)
 <3><7df>: Abbrev Number: 0
 <2><7e0>: Abbrev Number: 3 (DW_TAG_call_site)
    <7e1>   DW_AT_call_return_pc: 0xd08
    <7e9>   DW_AT_call_origin : <0xa32>
    <7ed>   DW_AT_sibling     : <0x809>
 <3><7f1>: Abbrev Number: 1 (DW_TAG_call_site_parameter)
    <7f2>   DW_AT_location    : 1 byte block: 5a 	(DW_OP_reg10 (a0))
    <7f4>   DW_AT_call_value  : 9 byte block: 3 78 10 0 0 0 0 0 0 	(DW_OP_addr: 1078)
 <3><7fe>: Abbrev Number: 1 (DW_TAG_call_site_parameter)
    <7ff>   DW_AT_location    : 1 byte block: 5b 	(DW_OP_reg11 (a1))
    <801>   DW_AT_call_value  : 1 byte block: 31 	(DW_OP_lit1)
 <3><803>: Abbrev Number: 1 (DW_TAG_call_site_parameter)
    <804>   DW_AT_location    : 1 byte block: 5c 	(DW_OP_reg12 (a2))
    <806>   DW_AT_call_value  : 1 byte block: 33 	(DW_OP_lit3)
 <3><808>: Abbrev Number: 0
 <2><809>: Abbrev Number: 8 (DW_TAG_call_site)
    <80a>   DW_AT_call_return_pc: 0xd10
    <812>   DW_AT_call_origin : <0x3d6>
 <2><816>: Abbrev Number: 3 (DW_TAG_call_site)
    <817>   DW_AT_call_return_pc: 0xd22
    <81f>   DW_AT_call_origin : <0x44e>
    <823>   DW_AT_sibling     : <0x841>
 <3><827>: Abbrev Number: 1 (DW_TAG_call_site_parameter)
    <828>   DW_AT_location    : 1 byte block: 5a 	(DW_OP_reg10 (a0))
    <82a>   DW_AT_call_value  : 2 byte block: 72 0 	(DW_OP_breg2 (sp): 0)
 <3><82d>: Abbrev Number: 1 (DW_TAG_call_site_parameter)
    <82e>   DW_AT_location    : 1 byte block: 5b 	(DW_OP_reg11 (a1))
    <830>   DW_AT_call_value  : 9 byte block: 3 80 10 0 0 0 0 0 0 	(DW_OP_addr: 1080)
 <3><83a>: Abbrev Number: 1 (DW_TAG_call_site_parameter)
    <83b>   DW_AT_location    : 1 byte block: 5c 	(DW_OP_reg12 (a2))
    <83d>   DW_AT_call_value  : 2 byte block: 79 0 	(DW_OP_breg9 (s1): 0)
 <3><840>: Abbrev Number: 0
 <2><841>: Abbrev Number: 3 (DW_TAG_call_site)
    <842>   DW_AT_call_return_pc: 0xd30
    <84a>   DW_AT_call_origin : <0x436>
    <84e>   DW_AT_sibling     : <0x866>
 <3><852>: Abbrev Number: 1 (DW_TAG_call_site_parameter)
    <853>   DW_AT_location    : 1 byte block: 5a 	(DW_OP_reg10 (a0))
    <855>   DW_AT_call_value  : 9 byte block: 3 a0 10 0 0 0 0 0 0 	(DW_OP_addr: 10a0)
 <3><85f>: Abbrev Number: 1 (DW_TAG_call_site_parameter)
    <860>   DW_AT_location    : 1 byte block: 5b 	(DW_OP_reg11 (a1))
    <862>   DW_AT_call_value  : 2 byte block: 72 0 	(DW_OP_breg2 (sp): 0)
 <3><865>: Abbrev Number: 0
 <2><866>: Abbrev Number: 3 (DW_TAG_call_site)
    <867>   DW_AT_call_return_pc: 0xd3e
    <86f>   DW_AT_call_origin : <0x41a>
    <873>   DW_AT_sibling     : <0x88b>
 <3><877>: Abbrev Number: 1 (DW_TAG_call_site_parameter)
    <878>   DW_AT_location    : 1 byte block: 5a 	(DW_OP_reg10 (a0))
    <87a>   DW_AT_call_value  : 2 byte block: 72 0 	(DW_OP_breg2 (sp): 0)
 <3><87d>: Abbrev Number: 1 (DW_TAG_call_site_parameter)
    <87e>   DW_AT_location    : 1 byte block: 5b 	(DW_OP_reg11 (a1))
    <880>   DW_AT_call_value  : 9 byte block: 3 e0 f 0 0 0 0 0 0 	(DW_OP_addr: fe0)
 <3><88a>: Abbrev Number: 0
 <2><88b>: Abbrev Number: 3 (DW_TAG_call_site)
    <88c>   DW_AT_call_return_pc: 0xd4e
    <894>   DW_AT_call_origin : <0xa3b>
    <898>   DW_AT_sibling     : <0x8a3>
 <3><89c>: Abbrev Number: 1 (DW_TAG_call_site_parameter)
    <89d>   DW_AT_location    : 1 byte block: 5a 	(DW_OP_reg10 (a0))
    <89f>   DW_AT_call_value  : 2 byte block: 8 30 	(DW_OP_const1u: 48)
 <3><8a2>: Abbrev Number: 0
 <2><8a3>: Abbrev Number: 8 (DW_TAG_call_site)
    <8a4>   DW_AT_call_return_pc: 0xd5a
    <8ac>   DW_AT_call_origin : <0x3c2>
 <2><8b0>: Abbrev Number: 3 (DW_TAG_call_site)
    <8b1>   DW_AT_call_return_pc: 0xd72
    <8b9>   DW_AT_call_origin : <0xa29>
    <8bd>   DW_AT_sibling     : <0x8cf>
 <3><8c1>: Abbrev Number: 1 (DW_TAG_call_site_parameter)
    <8c2>   DW_AT_location    : 1 byte block: 5a 	(DW_OP_reg10 (a0))
    <8c4>   DW_AT_call_value  : 9 byte block: 3 e8 f 0 0 0 0 0 0 	(DW_OP_addr: fe8)
 <3><8ce>: Abbrev Number: 0
 <2><8cf>: Abbrev Number: 3 (DW_TAG_call_site)
    <8d0>   DW_AT_call_return_pc: 0xd86
    <8d8>   DW_AT_call_origin : <0x41a>
    <8dc>   DW_AT_sibling     : <0x8fb>
 <3><8e0>: Abbrev Number: 1 (DW_TAG_call_site_parameter)
    <8e1>   DW_AT_location    : 1 byte block: 5a 	(DW_OP_reg10 (a0))
    <8e3>   DW_AT_call_value  : 9 byte block: 3 10 10 0 0 0 0 0 0 	(DW_OP_addr: 1010)
 <3><8ed>: Abbrev Number: 1 (DW_TAG_call_site_parameter)
    <8ee>   DW_AT_location    : 1 byte block: 5b 	(DW_OP_reg11 (a1))
    <8f0>   DW_AT_call_value  : 9 byte block: 3 e0 f 0 0 0 0 0 0 	(DW_OP_addr: fe0)
 <3><8fa>: Abbrev Number: 0
 <2><8fb>: Abbrev Number: 3 (DW_TAG_call_site)
    <8fc>   DW_AT_call_return_pc: 0xd9e
    <904>   DW_AT_call_origin : <0x3ea>
    <908>   DW_AT_sibling     : <0x920>
 <3><90c>: Abbrev Number: 1 (DW_TAG_call_site_parameter)
    <90d>   DW_AT_location    : 1 byte block: 5b 	(DW_OP_reg11 (a1))
    <90f>   DW_AT_call_value  : 9 byte block: 3 48 10 0 0 0 0 0 0 	(DW_OP_addr: 1048)
 <3><919>: Abbrev Number: 1 (DW_TAG_call_site_parameter)
    <91a>   DW_AT_location    : 1 byte block: 5c 	(DW_OP_reg12 (a2))
    <91c>   DW_AT_call_value  : 2 byte block: 79 0 	(DW_OP_breg9 (s1): 0)
 <3><91f>: Abbrev Number: 0
 <2><920>: Abbrev Number: 8 (DW_TAG_call_site)
    <921>   DW_AT_call_return_pc: 0xdac
    <929>   DW_AT_call_origin : <0x3d6>
 <2><92d>: Abbrev Number: 3 (DW_TAG_call_site)
    <92e>   DW_AT_call_return_pc: 0xdbc
    <936>   DW_AT_call_origin : <0x436>
    <93a>   DW_AT_sibling     : <0x952>
 <3><93e>: Abbrev Number: 1 (DW_TAG_call_site_parameter)
    <93f>   DW_AT_location    : 1 byte block: 5a 	(DW_OP_reg10 (a0))
    <941>   DW_AT_call_value  : 9 byte block: 3 c0 f 0 0 0 0 0 0 	(DW_OP_addr: fc0)
 <3><94b>: Abbrev Number: 1 (DW_TAG_call_site_parameter)
    <94c>   DW_AT_location    : 1 byte block: 5b 	(DW_OP_reg11 (a1))
    <94e>   DW_AT_call_value  : 2 byte block: 72 0 	(DW_OP_breg2 (sp): 0)
 <3><951>: Abbrev Number: 0
 <2><952>: Abbrev Number: 3 (DW_TAG_call_site)
    <953>   DW_AT_call_return_pc: 0xdca
    <95b>   DW_AT_call_origin : <0x41a>
    <95f>   DW_AT_sibling     : <0x977>
 <3><963>: Abbrev Number: 1 (DW_TAG_call_site_parameter)
    <964>   DW_AT_location    : 1 byte block: 5a 	(DW_OP_reg10 (a0))
    <966>   DW_AT_call_value  : 2 byte block: 72 0 	(DW_OP_breg2 (sp): 0)
 <3><969>: Abbrev Number: 1 (DW_TAG_call_site_parameter)
    <96a>   DW_AT_location    : 1 byte block: 5b 	(DW_OP_reg11 (a1))
    <96c>   DW_AT_call_value  : 9 byte block: 3 e0 f 0 0 0 0 0 0 	(DW_OP_addr: fe0)
 <3><976>: Abbrev Number: 0
 <2><977>: Abbrev Number: 3 (DW_TAG_call_site)
    <978>   DW_AT_call_return_pc: 0xddc
    <980>   DW_AT_call_origin : <0xa29>
    <984>   DW_AT_sibling     : <0x996>
 <3><988>: Abbrev Number: 1 (DW_TAG_call_site_parameter)
    <989>   DW_AT_location    : 1 byte block: 5a 	(DW_OP_reg10 (a0))
    <98b>   DW_AT_call_value  : 9 byte block: 3 50 10 0 0 0 0 0 0 	(DW_OP_addr: 1050)
 <3><995>: Abbrev Number: 0
 <2><996>: Abbrev Number: 3 (DW_TAG_call_site)
    <997>   DW_AT_call_return_pc: 0xde2
    <99f>   DW_AT_call_origin : <0x407>
    <9a3>   DW_AT_sibling     : <0x9ae>
 <3><9a7>: Abbrev Number: 1 (DW_TAG_call_site_parameter)
    <9a8>   DW_AT_location    : 1 byte block: 5a 	(DW_OP_reg10 (a0))
    <9aa>   DW_AT_call_value  : 2 byte block: 9 ff 	(DW_OP_const1s: -1)
 <3><9ad>: Abbrev Number: 0
 <2><9ae>: Abbrev Number: 3 (DW_TAG_call_site)
    <9af>   DW_AT_call_return_pc: 0xdee
    <9b7>   DW_AT_call_origin : <0xa29>
    <9bb>   DW_AT_sibling     : <0x9cd>
 <3><9bf>: Abbrev Number: 1 (DW_TAG_call_site_parameter)
    <9c0>   DW_AT_location    : 1 byte block: 5a 	(DW_OP_reg10 (a0))
    <9c2>   DW_AT_call_value  : 9 byte block: 3 28 10 0 0 0 0 0 0 	(DW_OP_addr: 1028)
 <3><9cc>: Abbrev Number: 0
 <2><9cd>: Abbrev Number: 3 (DW_TAG_call_site)
    <9ce>   DW_AT_call_return_pc: 0xdf4
    <9d6>   DW_AT_call_origin : <0x407>
    <9da>   DW_AT_sibling     : <0x9e5>
 <3><9de>: Abbrev Number: 1 (DW_TAG_call_site_parameter)
    <9df>   DW_AT_location    : 1 byte block: 5a 	(DW_OP_reg10 (a0))
    <9e1>   DW_AT_call_value  : 2 byte block: 9 ff 	(DW_OP_const1s: -1)
 <3><9e4>: Abbrev Number: 0
 <2><9e5>: Abbrev Number: 3 (DW_TAG_call_site)
    <9e6>   DW_AT_call_return_pc: 0xe00
    <9ee>   DW_AT_call_origin : <0xa29>
    <9f2>   DW_AT_sibling     : <0xa04>
 <3><9f6>: Abbrev Number: 1 (DW_TAG_call_site_parameter)
    <9f7>   DW_AT_location    : 1 byte block: 5a 	(DW_OP_reg10 (a0))
    <9f9>   DW_AT_call_value  : 9 byte block: 3 b8 10 0 0 0 0 0 0 	(DW_OP_addr: 10b8)
 <3><a03>: Abbrev Number: 0
 <2><a04>: Abbrev Number: 16 (DW_TAG_call_site)
    <a05>   DW_AT_call_return_pc: 0xe06
    <a0d>   DW_AT_call_origin : <0x407>
 <3><a11>: Abbrev Number: 1 (DW_TAG_call_site_parameter)
    <a12>   DW_AT_location    : 1 byte block: 5a 	(DW_OP_reg10 (a0))
    <a14>   DW_AT_call_value  : 2 byte block: 9 ff 	(DW_OP_const1s: -1)
 <3><a17>: Abbrev Number: 0
 <2><a18>: Abbrev Number: 0
 <1><a19>: Abbrev Number: 13 (DW_TAG_array_type)
    <a1a>   DW_AT_type        : <0xb5>
    <a1e>   DW_AT_sibling     : <0xa29>
 <2><a22>: Abbrev Number: 14 (DW_TAG_subrange_type)
    <a23>   DW_AT_type        : <0x41>
    <a27>   DW_AT_upper_bound : 63
 <2><a28>: Abbrev Number: 0
 <1><a29>: Abbrev Number: 20 (DW_TAG_subprogram)
    <a2a>   DW_AT_external    : 1
    <a2a>   DW_AT_declaration : 1
    <a2a>   DW_AT_linkage_name: (indirect string, offset: 0x1d9): puts
    <a2e>   DW_AT_name        : (indirect string, offset: 0x1cf): __builtin_puts
    <a32>   DW_AT_decl_file   : 10
    <a32>   DW_AT_decl_line   : 0
 <1><a32>: Abbrev Number: 20 (DW_TAG_subprogram)
    <a33>   DW_AT_external    : 1
    <a33>   DW_AT_declaration : 1
    <a33>   DW_AT_linkage_name: (indirect string, offset: 0x89): fwrite
    <a37>   DW_AT_name        : (indirect string, offset: 0x7f): __builtin_fwrite
    <a3b>   DW_AT_decl_file   : 10
    <a3b>   DW_AT_decl_line   : 0
 <1><a3b>: Abbrev Number: 20 (DW_TAG_subprogram)
    <a3c>   DW_AT_external    : 1
    <a3c>   DW_AT_declaration : 1
    <a3c>   DW_AT_linkage_name: (indirect string, offset: 0xa9): fputc
    <a40>   DW_AT_name        : (indirect string, offset: 0x9f): __builtin_fputc
    <a44>   DW_AT_decl_file   : 10
    <a44>   DW_AT_decl_line   : 0
 <1><a44>: Abbrev Number: 0

Contents of the .debug_abbrev section (loaded from a.out):

  Number TAG (0)
   1      DW_TAG_call_site_parameter    [no children]
    DW_AT_location     DW_FORM_exprloc
    DW_AT_call_value   DW_FORM_exprloc
    DW_AT value: 0     DW_FORM value: 0
   2      DW_TAG_member    [no children]
    DW_AT_name         DW_FORM_strp
    DW_AT_decl_file    DW_FORM_data1
    DW_AT_decl_line    DW_FORM_data1
    DW_AT_decl_column  DW_FORM_data1
    DW_AT_type         DW_FORM_ref4
    DW_AT_data_member_location DW_FORM_data1
    DW_AT value: 0     DW_FORM value: 0
   3      DW_TAG_call_site    [has children]
    DW_AT_call_return_pc DW_FORM_addr
    DW_AT_call_origin  DW_FORM_ref4
    DW_AT_sibling      DW_FORM_ref4
    DW_AT value: 0     DW_FORM value: 0
   4      DW_TAG_base_type    [no children]
    DW_AT_byte_size    DW_FORM_data1
    DW_AT_encoding     DW_FORM_data1
    DW_AT_name         DW_FORM_strp
    DW_AT value: 0     DW_FORM value: 0
   5      DW_TAG_formal_parameter    [no children]
    DW_AT_type         DW_FORM_ref4
    DW_AT value: 0     DW_FORM value: 0
   6      DW_TAG_pointer_type    [no children]
    DW_AT_byte_size    DW_FORM_implicit_const: 8
    DW_AT_type         DW_FORM_ref4
    DW_AT value: 0     DW_FORM value: 0
   7      DW_TAG_typedef    [no children]
    DW_AT_name         DW_FORM_strp
    DW_AT_decl_file    DW_FORM_data1
    DW_AT_decl_line    DW_FORM_data1
    DW_AT_decl_column  DW_FORM_data1
    DW_AT_type         DW_FORM_ref4
    DW_AT value: 0     DW_FORM value: 0
   8      DW_TAG_call_site    [no children]
    DW_AT_call_return_pc DW_FORM_addr
    DW_AT_call_origin  DW_FORM_ref4
    DW_AT value: 0     DW_FORM value: 0
   9      DW_TAG_variable    [no children]
    DW_AT_name         DW_FORM_strp
    DW_AT_decl_file    DW_FORM_implicit_const: 1
    DW_AT_decl_line    DW_FORM_data1
    DW_AT_decl_column  DW_FORM_implicit_const: 21
    DW_AT_type         DW_FORM_ref4
    DW_AT_const_value  DW_FORM_block1
    DW_AT value: 0     DW_FORM value: 0
   10      DW_TAG_subprogram    [has children]
    DW_AT_external     DW_FORM_flag_present
    DW_AT_name         DW_FORM_strp
    DW_AT_decl_file    DW_FORM_data1
    DW_AT_decl_line    DW_FORM_data2
    DW_AT_decl_column  DW_FORM_data1
    DW_AT_prototyped   DW_FORM_flag_present
    DW_AT_type         DW_FORM_ref4
    DW_AT_declaration  DW_FORM_flag_present
    DW_AT_sibling      DW_FORM_ref4
    DW_AT value: 0     DW_FORM value: 0
   11      DW_TAG_subprogram    [has children]
    DW_AT_external     DW_FORM_flag_present
    DW_AT_name         DW_FORM_strp
    DW_AT_decl_file    DW_FORM_implicit_const: 1
    DW_AT_decl_line    DW_FORM_data1
    DW_AT_decl_column  DW_FORM_implicit_const: 6
    DW_AT_prototyped   DW_FORM_flag_present
    DW_AT_low_pc       DW_FORM_addr
    DW_AT_high_pc      DW_FORM_data8
    DW_AT_frame_base   DW_FORM_exprloc
    DW_AT_call_all_calls DW_FORM_flag_present
    DW_AT_sibling      DW_FORM_ref4
    DW_AT value: 0     DW_FORM value: 0
   12      DW_TAG_const_type    [no children]
    DW_AT_type         DW_FORM_ref4
    DW_AT value: 0     DW_FORM value: 0
   13      DW_TAG_array_type    [has children]
    DW_AT_type         DW_FORM_ref4
    DW_AT_sibling      DW_FORM_ref4
    DW_AT value: 0     DW_FORM value: 0
   14      DW_TAG_subrange_type    [no children]
    DW_AT_type         DW_FORM_ref4
    DW_AT_upper_bound  DW_FORM_data1
    DW_AT value: 0     DW_FORM value: 0
   15      DW_TAG_formal_parameter    [no children]
    DW_AT_name         DW_FORM_strp
    DW_AT_decl_file    DW_FORM_implicit_const: 1
    DW_AT_decl_line    DW_FORM_data1
    DW_AT_decl_column  DW_FORM_data1
    DW_AT_type         DW_FORM_ref4
    DW_AT_location     DW_FORM_sec_offset
    DW_AT value: 0     DW_FORM value: 0
   16      DW_TAG_call_site    [has children]
    DW_AT_call_return_pc DW_FORM_addr
    DW_AT_call_origin  DW_FORM_ref4
    DW_AT value: 0     DW_FORM value: 0
   17      DW_TAG_structure_type    [no children]
    DW_AT_name         DW_FORM_strp
    DW_AT_declaration  DW_FORM_flag_present
    DW_AT value: 0     DW_FORM value: 0
   18      DW_TAG_unspecified_parameters    [no children]
    DW_AT value: 0     DW_FORM value: 0
   19      DW_TAG_formal_parameter    [no children]
    DW_AT_name         DW_FORM_string
    DW_AT_decl_file    DW_FORM_implicit_const: 1
    DW_AT_decl_line    DW_FORM_data1
    DW_AT_decl_column  DW_FORM_data1
    DW_AT_type         DW_FORM_ref4
    DW_AT_location     DW_FORM_sec_offset
    DW_AT value: 0     DW_FORM value: 0
   20      DW_TAG_subprogram    [no children]
    DW_AT_external     DW_FORM_flag_present
    DW_AT_declaration  DW_FORM_flag_present
    DW_AT_linkage_name DW_FORM_strp
    DW_AT_name         DW_FORM_strp
    DW_AT_decl_file    DW_FORM_implicit_const: 10
    DW_AT_decl_line    DW_FORM_implicit_const: 0
    DW_AT value: 0     DW_FORM value: 0
   21      DW_TAG_structure_type    [has children]
    DW_AT_name         DW_FORM_strp
    DW_AT_byte_size    DW_FORM_data1
    DW_AT_decl_file    DW_FORM_data1
    DW_AT_decl_line    DW_FORM_data1
    DW_AT_decl_column  DW_FORM_implicit_const: 8
    DW_AT_sibling      DW_FORM_ref4
    DW_AT value: 0     DW_FORM value: 0
   22      DW_TAG_restrict_type    [no children]
    DW_AT_type         DW_FORM_ref4
    DW_AT value: 0     DW_FORM value: 0
   23      DW_TAG_variable    [no children]
    DW_AT_name         DW_FORM_string
    DW_AT_decl_file    DW_FORM_implicit_const: 1
    DW_AT_decl_line    DW_FORM_data1
    DW_AT_decl_column  DW_FORM_data1
    DW_AT_type         DW_FORM_ref4
    DW_AT_location     DW_FORM_exprloc
    DW_AT value: 0     DW_FORM value: 0
   24      DW_TAG_variable    [no children]
    DW_AT_name         DW_FORM_strp
    DW_AT_decl_file    DW_FORM_implicit_const: 1
    DW_AT_decl_line    DW_FORM_data1
    DW_AT_decl_column  DW_FORM_data1
    DW_AT_type         DW_FORM_ref4
    DW_AT_location     DW_FORM_exprloc
    DW_AT value: 0     DW_FORM value: 0
   25      DW_TAG_subprogram    [has children]
    DW_AT_external     DW_FORM_flag_present
    DW_AT_name         DW_FORM_strp
    DW_AT_decl_file    DW_FORM_implicit_const: 8
    DW_AT_decl_line    DW_FORM_data1
    DW_AT_decl_column  DW_FORM_implicit_const: 12
    DW_AT_prototyped   DW_FORM_flag_present
    DW_AT_type         DW_FORM_ref4
    DW_AT_declaration  DW_FORM_flag_present
    DW_AT_sibling      DW_FORM_ref4
    DW_AT value: 0     DW_FORM value: 0
   26      DW_TAG_compile_unit    [has children]
    DW_AT_producer     DW_FORM_strp
    DW_AT_language     DW_FORM_data1
    DW_AT_name         DW_FORM_line_strp
    DW_AT_comp_dir     DW_FORM_line_strp
    DW_AT_low_pc       DW_FORM_addr
    DW_AT_high_pc      DW_FORM_data8
    DW_AT_stmt_list    DW_FORM_sec_offset
    DW_AT value: 0     DW_FORM value: 0
   27      DW_TAG_base_type    [no children]
    DW_AT_byte_size    DW_FORM_data1
    DW_AT_encoding     DW_FORM_data1
    DW_AT_name         DW_FORM_string
    DW_AT value: 0     DW_FORM value: 0
   28      DW_TAG_pointer_type    [no children]
    DW_AT_byte_size    DW_FORM_data1
    DW_AT value: 0     DW_FORM value: 0
   29      DW_TAG_typedef    [no children]
    DW_AT_name         DW_FORM_strp
    DW_AT_decl_file    DW_FORM_data1
    DW_AT_decl_line    DW_FORM_data1
    DW_AT_decl_column  DW_FORM_data1
    DW_AT value: 0     DW_FORM value: 0
   30      DW_TAG_variable    [no children]
    DW_AT_name         DW_FORM_strp
    DW_AT_decl_file    DW_FORM_data1
    DW_AT_decl_line    DW_FORM_data1
    DW_AT_decl_column  DW_FORM_data1
    DW_AT_type         DW_FORM_ref4
    DW_AT_const_value  DW_FORM_data2
    DW_AT value: 0     DW_FORM value: 0
   31      DW_TAG_subprogram    [has children]
    DW_AT_external     DW_FORM_flag_present
    DW_AT_name         DW_FORM_strp
    DW_AT_decl_file    DW_FORM_data1
    DW_AT_decl_line    DW_FORM_data2
    DW_AT_decl_column  DW_FORM_data1
    DW_AT_prototyped   DW_FORM_flag_present
    DW_AT_noreturn     DW_FORM_flag_present
    DW_AT_declaration  DW_FORM_flag_present
    DW_AT_sibling      DW_FORM_ref4
    DW_AT value: 0     DW_FORM value: 0
   32      DW_TAG_subprogram    [has children]
    DW_AT_external     DW_FORM_flag_present
    DW_AT_name         DW_FORM_strp
    DW_AT_decl_file    DW_FORM_data1
    DW_AT_decl_line    DW_FORM_data1
    DW_AT_decl_column  DW_FORM_data1
    DW_AT_prototyped   DW_FORM_flag_present
    DW_AT_type         DW_FORM_ref4
    DW_AT_low_pc       DW_FORM_addr
    DW_AT_high_pc      DW_FORM_data8
    DW_AT_frame_base   DW_FORM_exprloc
    DW_AT_call_all_calls DW_FORM_flag_present
    DW_AT_sibling      DW_FORM_ref4
    DW_AT value: 0     DW_FORM value: 0
   33      DW_TAG_variable    [no children]
    DW_AT_name         DW_FORM_strp
    DW_AT_decl_file    DW_FORM_data1
    DW_AT_decl_line    DW_FORM_data1
    DW_AT_decl_column  DW_FORM_data1
    DW_AT_type         DW_FORM_ref4
    DW_AT_location     DW_FORM_sec_offset
    DW_AT value: 0     DW_FORM value: 0

Raw dump of debug contents of section .debug_line (loaded from a.out):

  Offset:                      0
  Length:                      995
  DWARF Version:               5
  Address size (bytes):        8
  Segment selector (bytes):    0
  Prologue Length:             107
  Minimum Instruction Length:  1
  Maximum Ops per Instruction: 1
  Initial value of 'is_stmt':  1
  Line Base:                   -5
  Line Range:                  14
  Opcode Base:                 13

 Opcodes:
  Opcode 1 has 0 args
  Opcode 2 has 1 arg
  Opcode 3 has 1 arg
  Opcode 4 has 1 arg
  Opcode 5 has 1 arg
  Opcode 6 has 0 args
  Opcode 7 has 0 args
  Opcode 8 has 0 args
  Opcode 9 has 1 arg
  Opcode 10 has 0 args
  Opcode 11 has 0 args
  Opcode 12 has 1 arg

 The Directory Table (offset 0x22, lines 6, columns 1):
  Entry	Name
  0	(indirect line string, offset: 0): /root/hello-world/riscv64-linux-gnu
  1	(indirect line string, offset: 0x2f): ..
  2	(indirect line string, offset: 0x32): /usr/lib/gcc-cross/riscv64-linux-gnu/12/include
  3	(indirect line string, offset: 0x62): /usr/riscv64-linux-gnu/include/bits
  4	(indirect line string, offset: 0x86): /usr/riscv64-linux-gnu/include/bits/types
  5	(indirect line string, offset: 0xb0): /usr/riscv64-linux-gnu/include

 The File Name Table (offset 0x40, lines 11, columns 2):
  Entry	Dir	Name
  0	1	(indirect line string, offset: 0x27): morse.c
  1	1	(indirect line string, offset: 0x27): morse.c
  2	2	(indirect line string, offset: 0xcf): stddef.h
  3	3	(indirect line string, offset: 0xd8): types.h
  4	4	(indirect line string, offset: 0xe0): struct_FILE.h
  5	4	(indirect line string, offset: 0xe7): FILE.h
  6	4	(indirect line string, offset: 0xee): struct_timespec.h
  7	5	(indirect line string, offset: 0x100): time.h
  8	5	(indirect line string, offset: 0x107): stdio.h
  9	5	(indirect line string, offset: 0x10f): stdlib.h
  10	0	(indirect line string, offset: 0x118): <built-in>

 Line Number Statements:
  [0x00000077]  Set column to 1
  [0x00000079]  Extended opcode 2: set Address to 0xca8
  [0x00000084]  Advance Line by 18 to 19
  [0x00000086]  Copy
  [0x00000087]  Set column to 2
  [0x00000089]  Advance Line by 1 to 20
  [0x0000008b]  Advance PC by fixed size amount 12 to 0xcb4
  [0x0000008e]  Copy (view 1)
  [0x0000008f]  Advance Line by 2 to 22
  [0x00000091]  Advance PC by fixed size amount 0 to 0xcb4
  [0x00000094]  Copy (view 2)
  [0x00000095]  Advance Line by 1 to 23
  [0x00000097]  Advance PC by fixed size amount 18 to 0xcc6
  [0x0000009a]  Copy (view 3)
  [0x0000009b]  Advance Line by 1 to 24
  [0x0000009d]  Advance PC by fixed size amount 14 to 0xcd4
  [0x000000a0]  Copy (view 4)
  [0x000000a1]  Set column to 7
  [0x000000a3]  Set is_stmt to 0
  [0x000000a4]  Advance Line by 0 to 24
  [0x000000a6]  Advance PC by fixed size amount 0 to 0xcd4
  [0x000000a9]  Copy (view 5)
  [0x000000aa]  Set column to 5
  [0x000000ac]  Advance Line by 0 to 24
  [0x000000ae]  Advance PC by fixed size amount 14 to 0xce2
  [0x000000b1]  Copy (view 6)
  [0x000000b2]  Set column to 2
  [0x000000b4]  Set is_stmt to 1
  [0x000000b5]  Advance Line by 1 to 25
  [0x000000b7]  Advance PC by fixed size amount 8 to 0xcea
  [0x000000ba]  Copy (view 7)
  [0x000000bb]  Set column to 4
  [0x000000bd]  Set is_stmt to 0
  [0x000000be]  Advance Line by 0 to 25
  [0x000000c0]  Advance PC by fixed size amount 0 to 0xcea
  [0x000000c3]  Copy (view 8)
  [0x000000c4]  Set column to 2
  [0x000000c6]  Set is_stmt to 1
  [0x000000c7]  Advance Line by 22 to 47
  [0x000000c9]  Advance PC by fixed size amount 2 to 0xcec
  [0x000000cc]  Copy (view 9)
  [0x000000cd]  Advance Line by 1 to 48
  [0x000000cf]  Advance PC by fixed size amount 28 to 0xd08
  [0x000000d2]  Copy (view 10)
  [0x000000d3]  Advance Line by 2 to 50
  [0x000000d5]  Advance PC by fixed size amount 8 to 0xd10
  [0x000000d8]  Copy (view 11)
  [0x000000d9]  Advance Line by 1 to 51
  [0x000000db]  Advance PC by fixed size amount 18 to 0xd22
  [0x000000de]  Copy (view 12)
  [0x000000df]  Advance Line by 1 to 52
  [0x000000e1]  Advance PC by fixed size amount 14 to 0xd30
  [0x000000e4]  Copy (view 13)
  [0x000000e5]  Set column to 7
  [0x000000e7]  Set is_stmt to 0
  [0x000000e8]  Advance Line by 0 to 52
  [0x000000ea]  Advance PC by fixed size amount 0 to 0xd30
  [0x000000ed]  Copy (view 14)
  [0x000000ee]  Set column to 5
  [0x000000f0]  Advance Line by 0 to 52
  [0x000000f2]  Advance PC by fixed size amount 16 to 0xd40
  [0x000000f5]  Copy (view 15)
  [0x000000f6]  Set column to 2
  [0x000000f8]  Set is_stmt to 1
  [0x000000f9]  Advance Line by 1 to 53
  [0x000000fb]  Advance PC by fixed size amount 4 to 0xd44
  [0x000000fe]  Copy (view 16)
  [0x000000ff]  Set column to 4
  [0x00000101]  Set is_stmt to 0
  [0x00000102]  Advance Line by 0 to 53
  [0x00000104]  Advance PC by fixed size amount 0 to 0xd44
  [0x00000107]  Copy (view 17)
  [0x00000108]  Set column to 2
  [0x0000010a]  Set is_stmt to 1
  [0x0000010b]  Advance Line by 6 to 59
  [0x0000010d]  Advance PC by fixed size amount 2 to 0xd46
  [0x00000110]  Copy (view 18)
  [0x00000111]  Advance Line by 1 to 60
  [0x00000113]  Advance PC by fixed size amount 8 to 0xd4e
  [0x00000116]  Copy (view 19)
  [0x00000117]  Set column to 1
  [0x00000119]  Set is_stmt to 0
  [0x0000011a]  Advance Line by 1 to 61
  [0x0000011c]  Advance PC by fixed size amount 12 to 0xd5a
  [0x0000011f]  Copy (view 20)
  [0x00000120]  Set column to 3
  [0x00000122]  Set is_stmt to 1
  [0x00000123]  Advance Line by -33 to 28
  [0x00000125]  Advance PC by fixed size amount 12 to 0xd66
  [0x00000128]  Copy (view 21)
  [0x00000129]  Advance Line by 1 to 29
  [0x0000012b]  Advance PC by fixed size amount 12 to 0xd72
  [0x0000012e]  Copy (view 22)
  [0x0000012f]  Set column to 8
  [0x00000131]  Set is_stmt to 0
  [0x00000132]  Advance Line by 0 to 29
  [0x00000134]  Advance PC by fixed size amount 0 to 0xd72
  [0x00000137]  Copy (view 23)
  [0x00000138]  Set column to 6
  [0x0000013a]  Advance Line by 0 to 29
  [0x0000013c]  Advance PC by fixed size amount 20 to 0xd86
  [0x0000013f]  Copy (view 24)
  [0x00000140]  Set column to 3
  [0x00000142]  Set is_stmt to 1
  [0x00000143]  Advance Line by 1 to 30
  [0x00000145]  Advance PC by fixed size amount 8 to 0xd8e
  [0x00000148]  Copy (view 25)
  [0x00000149]  Set column to 5
  [0x0000014b]  Set is_stmt to 0
  [0x0000014c]  Advance Line by 0 to 30
  [0x0000014e]  Advance PC by fixed size amount 0 to 0xd8e
  [0x00000151]  Copy (view 26)
  [0x00000152]  Set column to 3
  [0x00000154]  Set is_stmt to 1
  [0x00000155]  Advance Line by 5 to 35
  [0x00000157]  Advance PC by fixed size amount 2 to 0xd90
  [0x0000015a]  Copy (view 27)
  [0x0000015b]  Advance Line by 1 to 36
  [0x0000015d]  Advance PC by fixed size amount 14 to 0xd9e
  [0x00000160]  Copy (view 28)
  [0x00000161]  Advance Line by 2 to 38
  [0x00000163]  Advance PC by fixed size amount 14 to 0xdac
  [0x00000166]  Copy (view 29)
  [0x00000167]  Advance Line by 1 to 39
  [0x00000169]  Advance PC by fixed size amount 16 to 0xdbc
  [0x0000016c]  Copy (view 30)
  [0x0000016d]  Set column to 8
  [0x0000016f]  Set is_stmt to 0
  [0x00000170]  Advance Line by 0 to 39
  [0x00000172]  Advance PC by fixed size amount 0 to 0xdbc
  [0x00000175]  Copy (view 31)
  [0x00000176]  Set column to 6
  [0x00000178]  Advance Line by 0 to 39
  [0x0000017a]  Advance PC by fixed size amount 14 to 0xdca
  [0x0000017d]  Copy (view 32)
  [0x0000017e]  Set column to 3
  [0x00000180]  Set is_stmt to 1
  [0x00000181]  Advance Line by 1 to 40
  [0x00000183]  Advance PC by fixed size amount 2 to 0xdcc
  [0x00000186]  Copy (view 33)
  [0x00000187]  Set column to 5
  [0x00000189]  Set is_stmt to 0
  [0x0000018a]  Advance Line by 0 to 40
  [0x0000018c]  Advance PC by fixed size amount 0 to 0xdcc
  [0x0000018f]  Copy (view 34)
  [0x00000190]  Set column to 4
  [0x00000192]  Set is_stmt to 1
  [0x00000193]  Advance Line by 2 to 42
  [0x00000195]  Advance PC by fixed size amount 4 to 0xdd0
  [0x00000198]  Copy (view 35)
  [0x00000199]  Advance Line by 1 to 43
  [0x0000019b]  Advance PC by fixed size amount 12 to 0xddc
  [0x0000019e]  Copy (view 36)
  [0x0000019f]  Advance Line by -11 to 32
  [0x000001a1]  Advance PC by fixed size amount 6 to 0xde2
  [0x000001a4]  Copy (view 37)
  [0x000001a5]  Advance Line by 1 to 33
  [0x000001a7]  Advance PC by fixed size amount 12 to 0xdee
  [0x000001aa]  Copy (view 38)
  [0x000001ab]  Set column to 3
  [0x000001ad]  Advance Line by 22 to 55
  [0x000001af]  Advance PC by fixed size amount 6 to 0xdf4
  [0x000001b2]  Copy (view 39)
  [0x000001b3]  Advance Line by 1 to 56
  [0x000001b5]  Advance PC by fixed size amount 12 to 0xe00
  [0x000001b8]  Copy (view 40)
  [0x000001b9]  Set column to 1
  [0x000001bb]  Advance Line by 8 to 64
  [0x000001bd]  Advance PC by fixed size amount 6 to 0xe06
  [0x000001c0]  Copy (view 41)
  [0x000001c1]  Set column to 2
  [0x000001c3]  Advance Line by 1 to 65
  [0x000001c5]  Advance PC by fixed size amount 4 to 0xe0a
  [0x000001c8]  Copy (view 42)
  [0x000001c9]  Extended opcode 4: set Discriminator to 4
  [0x000001cd]  Set is_stmt to 0
  [0x000001ce]  Advance Line by 0 to 65
  [0x000001d0]  Advance PC by fixed size amount 26 to 0xe24
  [0x000001d3]  Copy (view 43)
  [0x000001d4]  Extended opcode 4: set Discriminator to 4
  [0x000001d8]  Set is_stmt to 1
  [0x000001d9]  Advance Line by 1 to 66
  [0x000001db]  Advance PC by fixed size amount 6 to 0xe2a
  [0x000001de]  Copy (view 44)
  [0x000001df]  Set column to 1
  [0x000001e1]  Extended opcode 4: set Discriminator to 4
  [0x000001e5]  Set is_stmt to 0
  [0x000001e6]  Advance Line by 1 to 67
  [0x000001e8]  Advance PC by fixed size amount 12 to 0xe36
  [0x000001eb]  Copy (view 45)
  [0x000001ec]  Set is_stmt to 1
  [0x000001ed]  Advance Line by 4 to 71
  [0x000001ef]  Advance PC by fixed size amount 6 to 0xe3c
  [0x000001f2]  Copy (view 46)
  [0x000001f3]  Set column to 2
  [0x000001f5]  Advance Line by 1 to 72
  [0x000001f7]  Advance PC by fixed size amount 4 to 0xe40
  [0x000001fa]  Copy (view 47)
  [0x000001fb]  Set column to 5
  [0x000001fd]  Advance Line by 1 to 73
  [0x000001ff]  Advance PC by fixed size amount 0 to 0xe40
  [0x00000202]  Copy (view 48)
  [0x00000203]  Set column to 16
  [0x00000205]  Set is_stmt to 0
  [0x00000206]  Advance Line by 0 to 73
  [0x00000208]  Advance PC by fixed size amount 0 to 0xe40
  [0x0000020b]  Copy (view 49)
  [0x0000020c]  Set column to 5
  [0x0000020e]  Set is_stmt to 1
  [0x0000020f]  Advance Line by 1 to 74
  [0x00000211]  Advance PC by fixed size amount 2 to 0xe42
  [0x00000214]  Copy (view 50)
  [0x00000215]  Set column to 23
  [0x00000217]  Set is_stmt to 0
  [0x00000218]  Advance Line by 0 to 74
  [0x0000021a]  Advance PC by fixed size amount 0 to 0xe42
  [0x0000021d]  Copy (view 51)
  [0x0000021e]  Set column to 17
  [0x00000220]  Advance Line by 0 to 74
  [0x00000222]  Advance PC by fixed size amount 12 to 0xe4e
  [0x00000225]  Copy (view 52)
  [0x00000226]  Set column to 2
  [0x00000228]  Set is_stmt to 1
  [0x00000229]  Advance Line by 1 to 75
  [0x0000022b]  Advance PC by fixed size amount 6 to 0xe54
  [0x0000022e]  Copy (view 53)
  [0x0000022f]  Set column to 1
  [0x00000231]  Set is_stmt to 0
  [0x00000232]  Advance Line by 1 to 76
  [0x00000234]  Advance PC by fixed size amount 8 to 0xe5c
  [0x00000237]  Copy (view 54)
  [0x00000238]  Set is_stmt to 1
  [0x00000239]  Advance Line by 65 to 141
  [0x0000023c]  Advance PC by fixed size amount 6 to 0xe62
  [0x0000023f]  Copy (view 55)
  [0x00000240]  Set column to 2
  [0x00000242]  Advance Line by 2 to 143
  [0x00000244]  Advance PC by fixed size amount 12 to 0xe6e
  [0x00000247]  Copy (view 56)
  [0x00000248]  Set column to 4
  [0x0000024a]  Set is_stmt to 0
  [0x0000024b]  Advance Line by 0 to 143
  [0x0000024d]  Advance PC by fixed size amount 0 to 0xe6e
  [0x00000250]  Copy (view 57)
  [0x00000251]  Set column to 2
  [0x00000253]  Set is_stmt to 1
  [0x00000254]  Advance Line by 8 to 151
  [0x00000256]  Advance PC by fixed size amount 10 to 0xe78
  [0x00000259]  Copy (view 58)
  [0x0000025a]  Advance Line by 1 to 152
  [0x0000025c]  Advance PC by fixed size amount 0 to 0xe78
  [0x0000025f]  Copy (view 59)
  [0x00000260]  Set column to 16
  [0x00000262]  Set is_stmt to 0
  [0x00000263]  Advance Line by 0 to 152
  [0x00000265]  Advance PC by fixed size amount 0 to 0xe78
  [0x00000268]  Copy (view 60)
  [0x00000269]  Set column to 4
  [0x0000026b]  Advance Line by 0 to 152
  [0x0000026d]  Advance PC by fixed size amount 4 to 0xe7c
  [0x00000270]  Copy (view 61)
  [0x00000271]  Set column to 3
  [0x00000273]  Set is_stmt to 1
  [0x00000274]  Advance Line by 2 to 154
  [0x00000276]  Advance PC by fixed size amount 10 to 0xe86
  [0x00000279]  Copy (view 62)
  [0x0000027a]  Set column to 11
  [0x0000027c]  Set is_stmt to 0
  [0x0000027d]  Advance Line by 0 to 154
  [0x0000027f]  Advance PC by fixed size amount 0 to 0xe86
  [0x00000282]  Copy (view 63)
  [0x00000283]  Set column to 2
  [0x00000285]  Set is_stmt to 1
  [0x00000286]  Advance Line by 11 to 165
  [0x00000288]  Advance PC by fixed size amount 18 to 0xe98
  [0x0000028b]  Copy (view 64)
  [0x0000028c]  Advance Line by 3 to 168
  [0x0000028e]  Advance PC by fixed size amount 14 to 0xea6
  [0x00000291]  Copy (view 65)
  [0x00000292]  Set column to 8
  [0x00000294]  Advance Line by 0 to 168
  [0x00000296]  Advance PC by fixed size amount 0 to 0xea6
  [0x00000299]  Copy (view 66)
  [0x0000029a]  Set column to 5
  [0x0000029c]  Set is_stmt to 0
  [0x0000029d]  Advance Line by 5 to 173
  [0x0000029f]  Advance PC by fixed size amount 6 to 0xeac
  [0x000002a2]  Copy (view 67)
  [0x000002a3]  Set column to 4
  [0x000002a5]  Advance Line by 6 to 179
  [0x000002a7]  Advance PC by fixed size amount 4 to 0xeb0
  [0x000002aa]  Copy (view 68)
  [0x000002ab]  Advance Line by -4 to 175
  [0x000002ad]  Advance PC by fixed size amount 8 to 0xeb8
  [0x000002b0]  Copy (view 69)
  [0x000002b1]  Set column to 3
  [0x000002b3]  Set is_stmt to 1
  [0x000002b4]  Advance Line by -30 to 145
  [0x000002b6]  Advance PC by fixed size amount 10 to 0xec2
  [0x000002b9]  Copy (view 70)
  [0x000002ba]  Advance Line by 1 to 146
  [0x000002bc]  Advance PC by fixed size amount 12 to 0xece
  [0x000002bf]  Copy (view 71)
  [0x000002c0]  Advance Line by 1 to 147
  [0x000002c2]  Advance PC by fixed size amount 12 to 0xeda
  [0x000002c5]  Copy (view 72)
  [0x000002c6]  Set column to 7
  [0x000002c8]  Advance Line by 9 to 156
  [0x000002ca]  Advance PC by fixed size amount 2 to 0xedc
  [0x000002cd]  Copy (view 73)
  [0x000002ce]  Set column to 3
  [0x000002d0]  Advance Line by 2 to 158
  [0x000002d2]  Advance PC by fixed size amount 0 to 0xedc
  [0x000002d5]  Copy (view 74)
  [0x000002d6]  Set column to 28
  [0x000002d8]  Set is_stmt to 0
  [0x000002d9]  Advance Line by 0 to 158
  [0x000002db]  Advance PC by fixed size amount 0 to 0xedc
  [0x000002de]  Copy (view 75)
  [0x000002df]  Set column to 11
  [0x000002e1]  Advance Line by 0 to 158
  [0x000002e3]  Advance PC by fixed size amount 4 to 0xee0
  [0x000002e6]  Copy (view 76)
  [0x000002e7]  Set column to 4
  [0x000002e9]  Set is_stmt to 1
  [0x000002ea]  Advance Line by 17 to 175
  [0x000002ec]  Advance PC by fixed size amount 18 to 0xef2
  [0x000002ef]  Copy (view 77)
  [0x000002f0]  Set column to 3
  [0x000002f2]  Advance Line by 7 to 182
  [0x000002f4]  Advance PC by fixed size amount 6 to 0xef8
  [0x000002f7]  Copy (view 78)
  [0x000002f8]  Advance Line by 1 to 183
  [0x000002fa]  Advance PC by fixed size amount 6 to 0xefe
  [0x000002fd]  Copy (view 79)
  [0x000002fe]  Advance Line by 2 to 185
  [0x00000300]  Advance PC by fixed size amount 6 to 0xf04
  [0x00000303]  Copy (view 80)
  [0x00000304]  Set column to 10
  [0x00000306]  Set is_stmt to 0
  [0x00000307]  Advance Line by 0 to 185
  [0x00000309]  Advance PC by fixed size amount 0 to 0xf04
  [0x0000030c]  Copy (view 81)
  [0x0000030d]  Set column to 8
  [0x0000030f]  Set is_stmt to 1
  [0x00000310]  Advance Line by -17 to 168
  [0x00000312]  Advance PC by fixed size amount 2 to 0xf06
  [0x00000315]  Copy (view 82)
  [0x00000316]  Set column to 3
  [0x00000318]  Advance Line by 3 to 171
  [0x0000031a]  Advance PC by fixed size amount 6 to 0xf0c
  [0x0000031d]  Copy (view 83)
  [0x0000031e]  Advance Line by 2 to 173
  [0x00000320]  Advance PC by fixed size amount 6 to 0xf12
  [0x00000323]  Copy (view 84)
  [0x00000324]  Set column to 5
  [0x00000326]  Set is_stmt to 0
  [0x00000327]  Advance Line by 0 to 173
  [0x00000329]  Advance PC by fixed size amount 0 to 0xf12
  [0x0000032c]  Copy (view 85)
  [0x0000032d]  Set column to 4
  [0x0000032f]  Set is_stmt to 1
  [0x00000330]  Advance Line by 6 to 179
  [0x00000332]  Advance PC by fixed size amount 8 to 0xf1a
  [0x00000335]  Copy (view 86)
  [0x00000336]  Set column to 3
  [0x00000338]  Advance Line by 7 to 186
  [0x0000033a]  Advance PC by fixed size amount 10 to 0xf24
  [0x0000033d]  Copy (view 87)
  [0x0000033e]  Set column to 2
  [0x00000340]  Advance Line by 2 to 188
  [0x00000342]  Advance PC by fixed size amount 0 to 0xf24
  [0x00000345]  Copy (view 88)
  [0x00000346]  Set column to 1
  [0x00000348]  Set is_stmt to 0
  [0x00000349]  Advance Line by 1 to 189
  [0x0000034b]  Advance PC by fixed size amount 12 to 0xf30
  [0x0000034e]  Copy (view 89)
  [0x0000034f]  Set is_stmt to 1
  [0x00000350]  Advance Line by 4 to 193
  [0x00000352]  Advance PC by fixed size amount 14 to 0xf3e
  [0x00000355]  Copy (view 90)
  [0x00000356]  Set column to 2
  [0x00000358]  Advance Line by 2 to 195
  [0x0000035a]  Advance PC by fixed size amount 8 to 0xf46
  [0x0000035d]  Copy (view 91)
  [0x0000035e]  Set column to 8
  [0x00000360]  Advance Line by 0 to 195
  [0x00000362]  Advance PC by fixed size amount 0 to 0xf46
  [0x00000365]  Copy (view 92)
  [0x00000366]  Set column to 14
  [0x00000368]  Set is_stmt to 0
  [0x00000369]  Advance Line by 0 to 195
  [0x0000036b]  Advance PC by fixed size amount 0 to 0xf46
  [0x0000036e]  Copy (view 93)
  [0x0000036f]  Set column to 8
  [0x00000371]  Advance Line by 0 to 195
  [0x00000373]  Advance PC by fixed size amount 4 to 0xf4a
  [0x00000376]  Copy (view 94)
  [0x00000377]  Set column to 3
  [0x00000379]  Set is_stmt to 1
  [0x0000037a]  Advance Line by 2 to 197
  [0x0000037c]  Advance PC by fixed size amount 2 to 0xf4c
  [0x0000037f]  Copy (view 95)
  [0x00000380]  Advance Line by 1 to 198
  [0x00000382]  Advance PC by fixed size amount 4 to 0xf50
  [0x00000385]  Copy (view 96)
  [0x00000386]  Set column to 9
  [0x00000388]  Set is_stmt to 0
  [0x00000389]  Advance Line by 0 to 198
  [0x0000038b]  Advance PC by fixed size amount 0 to 0xf50
  [0x0000038e]  Copy (view 97)
  [0x0000038f]  Set column to 8
  [0x00000391]  Set is_stmt to 1
  [0x00000392]  Advance Line by -3 to 195
  [0x00000394]  Advance PC by fixed size amount 2 to 0xf52
  [0x00000397]  Copy (view 98)
  [0x00000398]  Set column to 14
  [0x0000039a]  Set is_stmt to 0
  [0x0000039b]  Advance Line by 0 to 195
  [0x0000039d]  Advance PC by fixed size amount 0 to 0xf52
  [0x000003a0]  Copy (view 99)
  [0x000003a1]  Set column to 8
  [0x000003a3]  Advance Line by 0 to 195
  [0x000003a5]  Advance PC by fixed size amount 4 to 0xf56
  [0x000003a8]  Copy (view 100)
  [0x000003a9]  Set column to 1
  [0x000003ab]  Advance Line by 5 to 200
  [0x000003ad]  Advance PC by fixed size amount 2 to 0xf58
  [0x000003b0]  Copy (view 101)
  [0x000003b1]  Set column to 34
  [0x000003b3]  Set is_stmt to 1
  [0x000003b4]  Advance Line by 1 to 201
  [0x000003b6]  Advance PC by fixed size amount 8 to 0xf60
  [0x000003b9]  Copy (view 102)
  [0x000003ba]  Set column to 5
  [0x000003bc]  Advance Line by 2 to 203
  [0x000003be]  Advance PC by fixed size amount 4 to 0xf64
  [0x000003c1]  Copy (view 103)
  [0x000003c2]  Set column to 2
  [0x000003c4]  Advance Line by 1 to 204
  [0x000003c6]  Advance PC by fixed size amount 12 to 0xf70
  [0x000003c9]  Copy (view 104)
  [0x000003ca]  Advance Line by 1 to 205
  [0x000003cc]  Advance PC by fixed size amount 8 to 0xf78
  [0x000003cf]  Copy (view 105)
  [0x000003d0]  Set column to 5
  [0x000003d2]  Advance Line by 1 to 206
  [0x000003d4]  Advance PC by fixed size amount 12 to 0xf84
  [0x000003d7]  Copy (view 106)
  [0x000003d8]  Set column to 1
  [0x000003da]  Set is_stmt to 0
  [0x000003db]  Advance Line by 1 to 207
  [0x000003dd]  Advance PC by fixed size amount 0 to 0xf84
  [0x000003e0]  Copy (view 107)
  [0x000003e1]  Advance PC by fixed size amount 8 to 0xf8c
  [0x000003e4]  Extended opcode 1: End of Sequence


Contents of the .debug_frame section (loaded from a.out):


00000000 000000000000000c ffffffff CIE
  Version:               3
  Augmentation:          ""
  Code alignment factor: 1
  Data alignment factor: -4
  Return address column: 1

  DW_CFA_def_cfa_register: r2 (sp)
  DW_CFA_nop

00000010 0000000000000034 00000000 FDE cie=00000000 pc=0000000000000ca8..0000000000000e06
  DW_CFA_advance_loc: 2 to 0000000000000caa
  DW_CFA_def_cfa_offset: 96
  DW_CFA_advance_loc: 8 to 0000000000000cb2
  DW_CFA_offset: r1 (ra) at cfa-8
  DW_CFA_offset: r8 (s0) at cfa-16
  DW_CFA_offset: r9 (s1) at cfa-24
  DW_CFA_offset: r18 (s2) at cfa-32
  DW_CFA_advance_loc1: 170 to 0000000000000d5c
  DW_CFA_remember_state
  DW_CFA_restore: r1 (ra)
  DW_CFA_advance_loc: 2 to 0000000000000d5e
  DW_CFA_restore: r8 (s0)
  DW_CFA_advance_loc: 2 to 0000000000000d60
  DW_CFA_restore: r9 (s1)
  DW_CFA_advance_loc: 2 to 0000000000000d62
  DW_CFA_restore: r18 (s2)
  DW_CFA_advance_loc: 2 to 0000000000000d64
  DW_CFA_def_cfa_offset: 0
  DW_CFA_advance_loc: 2 to 0000000000000d66
  DW_CFA_restore_state
  DW_CFA_nop
  DW_CFA_nop
  DW_CFA_nop
  DW_CFA_nop
  DW_CFA_nop

00000048 0000000000000024 00000000 FDE cie=00000000 pc=0000000000000e06..0000000000000e3c
  DW_CFA_advance_loc: 2 to 0000000000000e08
  DW_CFA_def_cfa_offset: 16
  DW_CFA_advance_loc: 2 to 0000000000000e0a
  DW_CFA_offset: r1 (ra) at cfa-8
  DW_CFA_advance_loc: 46 to 0000000000000e38
  DW_CFA_restore: r1 (ra)
  DW_CFA_advance_loc: 2 to 0000000000000e3a
  DW_CFA_def_cfa_offset: 0
  DW_CFA_nop
  DW_CFA_nop
  DW_CFA_nop
  DW_CFA_nop
  DW_CFA_nop

00000070 0000000000000024 00000000 FDE cie=00000000 pc=0000000000000e3c..0000000000000e62
  DW_CFA_advance_loc: 2 to 0000000000000e3e
  DW_CFA_def_cfa_offset: 32
  DW_CFA_advance_loc: 2 to 0000000000000e40
  DW_CFA_offset: r1 (ra) at cfa-8
  DW_CFA_advance_loc: 30 to 0000000000000e5e
  DW_CFA_restore: r1 (ra)
  DW_CFA_advance_loc: 2 to 0000000000000e60
  DW_CFA_def_cfa_offset: 0
  DW_CFA_nop
  DW_CFA_nop
  DW_CFA_nop
  DW_CFA_nop
  DW_CFA_nop

00000098 0000000000000034 00000000 FDE cie=00000000 pc=0000000000000e62..0000000000000f3e
  DW_CFA_advance_loc: 2 to 0000000000000e64
  DW_CFA_def_cfa_offset: 48
  DW_CFA_advance_loc: 10 to 0000000000000e6e
  DW_CFA_offset: r1 (ra) at cfa-8
  DW_CFA_offset: r8 (s0) at cfa-16
  DW_CFA_offset: r9 (s1) at cfa-24
  DW_CFA_offset: r18 (s2) at cfa-32
  DW_CFA_offset: r19 (s3) at cfa-40
  DW_CFA_advance_loc1: 196 to 0000000000000f32
  DW_CFA_restore: r1 (ra)
  DW_CFA_advance_loc: 2 to 0000000000000f34
  DW_CFA_restore: r8 (s0)
  DW_CFA_advance_loc: 2 to 0000000000000f36
  DW_CFA_restore: r9 (s1)
  DW_CFA_advance_loc: 2 to 0000000000000f38
  DW_CFA_restore: r18 (s2)
  DW_CFA_advance_loc: 2 to 0000000000000f3a
  DW_CFA_restore: r19 (s3)
  DW_CFA_advance_loc: 2 to 0000000000000f3c
  DW_CFA_def_cfa_offset: 0
  DW_CFA_nop
  DW_CFA_nop
  DW_CFA_nop
  DW_CFA_nop

000000d0 0000000000000024 00000000 FDE cie=00000000 pc=0000000000000f3e..0000000000000f60
  DW_CFA_advance_loc: 2 to 0000000000000f40
  DW_CFA_def_cfa_offset: 16
  DW_CFA_advance_loc: 4 to 0000000000000f44
  DW_CFA_offset: r1 (ra) at cfa-8
  DW_CFA_offset: r8 (s0) at cfa-16
  DW_CFA_advance_loc: 22 to 0000000000000f5a
  DW_CFA_restore: r1 (ra)
  DW_CFA_advance_loc: 2 to 0000000000000f5c
  DW_CFA_restore: r8 (s0)
  DW_CFA_advance_loc: 2 to 0000000000000f5e
  DW_CFA_def_cfa_offset: 0
  DW_CFA_nop

000000f8 0000000000000024 00000000 FDE cie=00000000 pc=0000000000000f60..0000000000000f8c
  DW_CFA_advance_loc: 2 to 0000000000000f62
  DW_CFA_def_cfa_offset: 16
  DW_CFA_advance_loc: 2 to 0000000000000f64
  DW_CFA_offset: r1 (ra) at cfa-8
  DW_CFA_advance_loc: 36 to 0000000000000f88
  DW_CFA_restore: r1 (ra)
  DW_CFA_advance_loc: 2 to 0000000000000f8a
  DW_CFA_def_cfa_offset: 0
  DW_CFA_nop
  DW_CFA_nop
  DW_CFA_nop
  DW_CFA_nop
  DW_CFA_nop

Contents of the .debug_str section (loaded from a.out):

  0x00000000 5f5f6f66 665f7400 5f494f5f 72656164 __off_t._IO_read
  0x00000010 5f707472 005f6368 61696e00 74696d65 _ptr._chain.time
  0x00000020 5f776f72 64007369 7a655f74 005f7368 _word.size_t._sh
  0x00000030 6f727462 75660073 7472696e 67007061 ortbuf.string.pa
  0x00000040 7468005f 494f5f62 75665f62 61736500 th._IO_buf_base.
  0x00000050 6c6f6e67 206c6f6e 6720756e 7369676e long long unsign
  0x00000060 65642069 6e74006e 616e6f73 6c656570 ed int.nanosleep
  0x00000070 006c6f6e 67206c6f 6e672069 6e74005f .long long int._
  0x00000080 5f627569 6c74696e 5f667772 69746500 _builtin_fwrite.
  0x00000090 626c696e 6b79005f 66696c65 6e6f005f blinky._fileno._
  0x000000a0 5f627569 6c74696e 5f667075 7463005f _builtin_fputc._
  0x000000b0 494f5f72 6561645f 656e6400 5f666c61 IO_read_end._fla
  0x000000c0 6773005f 494f5f62 75665f65 6e64005f gs._IO_buf_end._
  0x000000d0 6375725f 636f6c75 6d6e005f 494f5f63 cur_column._IO_c
  0x000000e0 6f646563 76740064 6f75626c 65005f6f odecvt.double._o
  0x000000f0 6c645f6f 66667365 7400696f 5f696e69 ld_offset.io_ini
  0x00000100 74005f49 4f5f6d61 726b6572 005f6672 t._IO_marker._fr
  0x00000110 65657265 735f6275 6600474e 55204339 eeres_buf.GNU C9
  0x00000120 39203132 2e322e30 202d6d61 62693d6c 9 12.2.0 -mabi=l
  0x00000130 70363464 202d6d69 73612d73 7065633d p64d -misa-spec=
  0x00000140 32303139 31323133 202d6d61 7263683d 20191213 -march=
  0x00000150 72763634 696d6166 64635f7a 69637372 rv64imafdc_zicsr
  0x00000160 5f7a6966 656e6365 69202d67 202d4f31 _zifencei -g -O1
  0x00000170 202d7374 643d676e 75393900 66707269  -std=gnu99.fpri
  0x00000180 6e746600 5f494f5f 77726974 655f7074 ntf._IO_write_pt
  0x00000190 72007368 6f727420 756e7369 676e6564 r.short unsigned
  0x000001a0 20696e74 005f494f 5f736176 655f6261  int._IO_save_ba
  0x000001b0 7365005f 6c6f636b 00737072 696e7466 se._lock.sprintf
  0x000001c0 005f666c 61677332 005f6d6f 6465005f ._flags2._mode._
  0x000001d0 5f627569 6c74696e 5f707574 73006d6f _builtin_puts.mo
  0x000001e0 72736500 74765f6e 73656300 74765f73 rse.tv_nsec.tv_s
  0x000001f0 6563005f 5f737973 63616c6c 5f736c6f ec.__syscall_slo
  0x00000200 6e675f74 005f494f 5f777269 74655f65 ng_t._IO_write_e
  0x00000210 6e640074 696d655f 64616800 5f494f5f nd.time_dah._IO_
  0x00000220 6c6f636b 5f740069 6f5f7772 69746500 lock_t.io_write.
  0x00000230 5f494f5f 46494c45 0074696d 655f6c65 _IO_FILE.time_le
  0x00000240 74746572 00706174 7465726e 00666f70 tter.pattern.fop
  0x00000250 656e0066 666c7573 68005f6d 61726b65 en.fflush._marke
  0x00000260 7273006d 6f727365 5f6c6574 74657200 rs.morse_letter.
  0x00000270 74696d65 5f646974 0074696d 655f7370 time_dit.time_sp
  0x00000280 61636500 5f426f6f 6c00756e 7369676e ace._Bool.unsign
  0x00000290 65642063 68617200 73686f72 7420696e ed char.short in
  0x000002a0 74005f49 4f5f7769 64655f64 61746100 t._IO_wide_data.
  0x000002b0 6d6f7273 655f7462 6c007469 6d657370 morse_tbl.timesp
  0x000002c0 6563005f 76746162 6c655f6f 66667365 ec._vtable_offse
  0x000002d0 74006578 69740066 636c6f73 65005f5f t.exit.fclose.__
  0x000002e0 6f666636 345f7400 5f494f5f 72656164 off64_t._IO_read
  0x000002f0 5f626173 65005f49 4f5f7361 76655f65 _base._IO_save_e
  0x00000300 6e640066 736c6565 70005f5f 70616435 nd.fsleep.__pad5
  0x00000310 005f5f74 696d655f 74005f75 6e757365 .__time_t._unuse
  0x00000320 64320061 72677600 73746174 7573005f d2.argv.status._
  0x00000330 494f5f62 61636b75 705f6261 73650061 IO_backup_base.a
  0x00000340 72676300 5f667265 65726573 5f6c6973 rgc._freeres_lis
  0x00000350 74006d61 696e005f 494f5f77 72697465 t.main._IO_write
  0x00000360 5f626173 6500                       _base.

Contents of the .debug_line_str section (loaded from a.out):

  0x00000000 2f726f6f 742f6865 6c6c6f2d 776f726c /root/hello-worl
  0x00000010 642f7269 73637636 342d6c69 6e75782d d/riscv64-linux-
  0x00000020 676e7500 2e2e2f6d 6f727365 2e63002e gnu.../morse.c..
  0x00000030 2e002f75 73722f6c 69622f67 63632d63 ../usr/lib/gcc-c
  0x00000040 726f7373 2f726973 63763634 2d6c696e ross/riscv64-lin
  0x00000050 75782d67 6e752f31 322f696e 636c7564 ux-gnu/12/includ
  0x00000060 65002f75 73722f72 69736376 36342d6c e./usr/riscv64-l
  0x00000070 696e7578 2d676e75 2f696e63 6c756465 inux-gnu/include
  0x00000080 2f626974 73002f75 73722f72 69736376 /bits./usr/riscv
  0x00000090 36342d6c 696e7578 2d676e75 2f696e63 64-linux-gnu/inc
  0x000000a0 6c756465 2f626974 732f7479 70657300 lude/bits/types.
  0x000000b0 2f757372 2f726973 63763634 2d6c696e /usr/riscv64-lin
  0x000000c0 75782d67 6e752f69 6e636c75 64650073 ux-gnu/include.s
  0x000000d0 74646465 662e6800 74797065 732e6800 tddef.h.types.h.
  0x000000e0 73747275 63745f46 494c452e 68007374 struct_FILE.h.st
  0x000000f0 72756374 5f74696d 65737065 632e6800 ruct_timespec.h.
  0x00000100 74696d65 2e680073 7464696f 2e680073 time.h.stdio.h.s
  0x00000110 74646c69 622e6800 3c627569 6c742d69 tdlib.h.<built-i
  0x00000120 6e3e00                              n>.

Contents of the .debug_loclists section (loaded from a.out):

    Offset   Begin            End              Expression
    0000000c 0000000000000f60 0000000000000f6c (DW_OP_reg10 (a0))
    0000001f 0000000000000f6c 0000000000000f8c (DW_OP_entry_value: (DW_OP_reg10 (a0)); DW_OP_stack_value)
    00000035 <End of list>
    00000036 0000000000000f60 0000000000000f6f (DW_OP_reg11 (a1))
    00000049 0000000000000f6f 0000000000000f8c (DW_OP_entry_value: (DW_OP_reg11 (a1)); DW_OP_stack_value)
    0000005f <End of list>
    00000060 0000000000000f3e 0000000000000f4a (DW_OP_reg10 (a0))
    00000073 0000000000000f4a 0000000000000f5c (DW_OP_reg8 (s0))
    00000086 <End of list>
    00000087 0000000000000e62 0000000000000ea2 (DW_OP_reg10 (a0))
    0000009a 0000000000000ea2 0000000000000ec2 (DW_OP_entry_value: (DW_OP_reg10 (a0)); DW_OP_stack_value)
    000000b0 0000000000000ec2 0000000000000eca (DW_OP_reg10 (a0))
    000000c3 0000000000000eca 0000000000000edc (DW_OP_entry_value: (DW_OP_reg10 (a0)); DW_OP_stack_value)
    000000d9 0000000000000edc 0000000000000ef2 (DW_OP_reg10 (a0))
    000000ec 0000000000000ef2 0000000000000f3e (DW_OP_entry_value: (DW_OP_reg10 (a0)); DW_OP_stack_value)
    00000102 <End of list>
    00000103 0000000000000e78 0000000000000e98 (DW_OP_addr: 1160; DW_OP_stack_value)
    0000011f 0000000000000e98 0000000000000ec2 (DW_OP_reg8 (s0))
    00000132 0000000000000edc 0000000000000ef0 (DW_OP_addr: 1160; DW_OP_stack_value)
    0000014e 0000000000000ef0 0000000000000f30 (DW_OP_reg8 (s0))
    00000161 <End of list>
    00000162 0000000000000e3c 0000000000000e4e (DW_OP_regx: 42 (fa0))
    00000176 0000000000000e4e 0000000000000e62 (DW_OP_entry_value: (DW_OP_regval_type: 42 (fa0) <0x2e>); DW_OP_stack_value)
    0000018e <End of list>
    0000018f 0000000000000e06 0000000000000e26 (DW_OP_reg10 (a0))
    000001a2 0000000000000e26 0000000000000e3c (DW_OP_entry_value: (DW_OP_reg10 (a0)); DW_OP_stack_value)
    000001b8 <End of list>
    000001b9 0000000000000ca8 0000000000000cc2 (DW_OP_reg10 (a0))
    000001cc 0000000000000cc2 0000000000000e06 (DW_OP_entry_value: (DW_OP_reg10 (a0)); DW_OP_stack_value)
    000001e2 <End of list>

