
a.out:     file format elf64-littleriscv

SYMBOL TABLE:
0000000000000270 l    d  .interp	0000000000000000              .interp
0000000000000294 l    d  .note.gnu.build-id	0000000000000000              .note.gnu.build-id
00000000000002b8 l    d  .note.ABI-tag	0000000000000000              .note.ABI-tag
00000000000002d8 l    d  .gnu.hash	0000000000000000              .gnu.hash
0000000000000300 l    d  .dynsym	0000000000000000              .dynsym
00000000000003c0 l    d  .dynstr	0000000000000000              .dynstr
0000000000000440 l    d  .gnu.version	0000000000000000              .gnu.version
0000000000000450 l    d  .gnu.version_r	0000000000000000              .gnu.version_r
0000000000000480 l    d  .rela.dyn	0000000000000000              .rela.dyn
0000000000000540 l    d  .rela.plt	0000000000000000              .rela.plt
0000000000000570 l    d  .plt	0000000000000000              .plt
00000000000005b0 l    d  .text	0000000000000000              .text
0000000000000778 l    d  .rodata	0000000000000000              .rodata
00000000000007c0 l    d  .eh_frame_hdr	0000000000000000              .eh_frame_hdr
00000000000007d8 l    d  .eh_frame	0000000000000000              .eh_frame
0000000000001e08 l    d  .preinit_array	0000000000000000              .preinit_array
0000000000001e10 l    d  .init_array	0000000000000000              .init_array
0000000000001e18 l    d  .fini_array	0000000000000000              .fini_array
0000000000001e20 l    d  .dynamic	0000000000000000              .dynamic
0000000000002000 l    d  .data	0000000000000000              .data
0000000000002008 l    d  .got	0000000000000000              .got
0000000000002050 l    d  .bss	0000000000000000              .bss
0000000000000000 l    d  .comment	0000000000000000              .comment
0000000000000000 l    d  .riscv.attributes	0000000000000000              .riscv.attributes
0000000000000000 l    d  .debug_aranges	0000000000000000              .debug_aranges
0000000000000000 l    d  .debug_info	0000000000000000              .debug_info
0000000000000000 l    d  .debug_abbrev	0000000000000000              .debug_abbrev
0000000000000000 l    d  .debug_line	0000000000000000              .debug_line
0000000000000000 l    d  .debug_frame	0000000000000000              .debug_frame
0000000000000000 l    d  .debug_str	0000000000000000              .debug_str
0000000000000000 l    d  .debug_line_str	0000000000000000              .debug_line_str
0000000000000000 l    d  .debug_loclists	0000000000000000              .debug_loclists
0000000000000000 l    d  .debug_rnglists	0000000000000000              .debug_rnglists
0000000000000000 l    df *ABS*	0000000000000000              Scrt1.o
00000000000002b8 l     O .note.ABI-tag	0000000000000020              __abi_tag
00000000000005d2 l       .text	0000000000000000              load_gp
0000000000000000 l    df *ABS*	0000000000000000              crtstuff.c
00000000000005de l     F .text	0000000000000000              deregister_tm_clones
0000000000000600 l     F .text	0000000000000000              register_tm_clones
000000000000062c l     F .text	0000000000000000              __do_global_dtors_aux
0000000000002050 l     O .bss	0000000000000001              completed.0
0000000000001e18 l     O .fini_array	0000000000000000              __do_global_dtors_aux_fini_array_entry
0000000000000666 l     F .text	0000000000000000              frame_dummy
0000000000001e10 l     O .init_array	0000000000000000              __frame_dummy_init_array_entry
0000000000000000 l    df *ABS*	0000000000000000              sort.c
0000000000000000 l    df *ABS*	0000000000000000              crtstuff.c
0000000000000800 l     O .eh_frame	0000000000000000              __FRAME_END__
0000000000000570 l     O *ABS*	0000000000000000              _PROCEDURE_LINKAGE_TABLE_
0000000000001e20 l     O *ABS*	0000000000000000              _DYNAMIC
00000000000007c0 l       .eh_frame_hdr	0000000000000000              __GNU_EH_FRAME_HDR
0000000000002028 l     O *ABS*	0000000000000000              _GLOBAL_OFFSET_TABLE_
0000000000000000       F *UND*	0000000000000000              __libc_start_main@GLIBC_2.34
0000000000000000  w      *UND*	0000000000000000              _ITM_deregisterTMCloneTable
0000000000002000  w      .data	0000000000000000              data_start
0000000000002058 g       .bss	0000000000000000              __BSS_END__
0000000000002050 g       .got	0000000000000000              _edata
0000000000002050 g       .got	0000000000000000              __SDATA_BEGIN__
0000000000002000 g       .data	0000000000000000              __DATA_BEGIN__
0000000000002000 g       .data	0000000000000000              __data_start
0000000000002000 g     O .data	0000000000000000              .hidden __dso_handle
0000000000000778 g     O .rodata	0000000000000004              _IO_stdin_used
0000000000002058 g       .bss	0000000000000000              _end
00000000000005b0 g     F .text	0000000000000022              _start
0000000000002800 g       *ABS*	0000000000000000              __global_pointer$
0000000000002050 g       .bss	0000000000000000              __bss_start
00000000000006ae g     F .text	00000000000000c8              main
0000000000000000       F *UND*	0000000000000000              printf@GLIBC_2.27
0000000000000000  w    F *UND*	0000000000000000              __cxa_finalize@GLIBC_2.27
0000000000002008 g     O .got	0000000000000000              .hidden __TMC_END__
0000000000000000  w      *UND*	0000000000000000              _ITM_registerTMCloneTable
0000000000000668 g     F .text	0000000000000046              insertion_sort



Disassembly of section .plt:

0000000000000570 <.plt>:
 570:	00002397          	auipc	t2,0x2
 574:	41c30333          	sub	t1,t1,t3
 578:	a983be03          	ld	t3,-1384(t2) # 2008 <__TMC_END__>
 57c:	fd430313          	add	t1,t1,-44
 580:	a9838293          	add	t0,t2,-1384
 584:	00135313          	srl	t1,t1,0x1
 588:	0082b283          	ld	t0,8(t0)
 58c:	000e0067          	jr	t3

0000000000000590 <__libc_start_main@plt>:
 590:	00002e17          	auipc	t3,0x2
 594:	a88e3e03          	ld	t3,-1400(t3) # 2018 <__libc_start_main@GLIBC_2.34>
 598:	000e0367          	jalr	t1,t3
 59c:	00000013          	nop

00000000000005a0 <printf@plt>:
 5a0:	00002e17          	auipc	t3,0x2
 5a4:	a80e3e03          	ld	t3,-1408(t3) # 2020 <printf@GLIBC_2.27>
 5a8:	000e0367          	jalr	t1,t3
 5ac:	00000013          	nop

Disassembly of section .text:

00000000000005b0 <_start>:
 5b0:	022000ef          	jal	5d2 <load_gp>
 5b4:	87aa                	mv	a5,a0
 5b6:	00002517          	auipc	a0,0x2
 5ba:	a8253503          	ld	a0,-1406(a0) # 2038 <_GLOBAL_OFFSET_TABLE_+0x10>
 5be:	6582                	ld	a1,0(sp)
 5c0:	0030                	add	a2,sp,8
 5c2:	ff017113          	and	sp,sp,-16
 5c6:	4681                	li	a3,0
 5c8:	4701                	li	a4,0
 5ca:	880a                	mv	a6,sp
 5cc:	fc5ff0ef          	jal	590 <__libc_start_main@plt>
 5d0:	9002                	ebreak

00000000000005d2 <load_gp>:
 5d2:	00002197          	auipc	gp,0x2
 5d6:	22e18193          	add	gp,gp,558 # 2800 <__global_pointer$>
 5da:	8082                	ret
	...

00000000000005de <deregister_tm_clones>:
 5de:	    00002517          	auipc	a0,0x2
 5e2:	    a2a50513          	add	a0,a0,-1494 # 2008 <__TMC_END__>
 5e6:	    00002797          	auipc	a5,0x2
 5ea:	    a2278793          	add	a5,a5,-1502 # 2008 <__TMC_END__>
 5ee:	/-- 00a78863          	beq	a5,a0,5fe <deregister_tm_clones+0x20>
 5f2:	|   00002797          	auipc	a5,0x2
 5f6:	|   a3e7b783          	ld	a5,-1474(a5) # 2030 <_ITM_deregisterTMCloneTable@Base>
 5fa:	+-- c391                	beqz	a5,5fe <deregister_tm_clones+0x20>
 5fc:	|   8782                	jr	a5
 5fe:	\-> 8082                	ret

0000000000000600 <register_tm_clones>:
 600:	    00002517          	auipc	a0,0x2
 604:	    a0850513          	add	a0,a0,-1528 # 2008 <__TMC_END__>
 608:	    00002597          	auipc	a1,0x2
 60c:	    a0058593          	add	a1,a1,-1536 # 2008 <__TMC_END__>
 610:	    8d89                	sub	a1,a1,a0
 612:	    4035d793          	sra	a5,a1,0x3
 616:	    91fd                	srl	a1,a1,0x3f
 618:	    95be                	add	a1,a1,a5
 61a:	    8585                	sra	a1,a1,0x1
 61c:	/-- c599                	beqz	a1,62a <register_tm_clones+0x2a>
 61e:	|   00002797          	auipc	a5,0x2
 622:	|   a2a7b783          	ld	a5,-1494(a5) # 2048 <_ITM_registerTMCloneTable@Base>
 626:	+-- c391                	beqz	a5,62a <register_tm_clones+0x2a>
 628:	|   8782                	jr	a5
 62a:	\-> 8082                	ret

000000000000062c <__do_global_dtors_aux>:
 62c:	       1141                	add	sp,sp,-16
 62e:	       e022                	sd	s0,0(sp)
 630:	       00002417          	auipc	s0,0x2
 634:	       a2040413          	add	s0,s0,-1504 # 2050 <completed.0>
 638:	       00044783          	lbu	a5,0(s0)
 63c:	       e406                	sd	ra,8(sp)
 63e:	/----- e385                	bnez	a5,65e <__do_global_dtors_aux+0x32>
 640:	|      00002797          	auipc	a5,0x2
 644:	|      a007b783          	ld	a5,-1536(a5) # 2040 <__cxa_finalize@GLIBC_2.27>
 648:	|  /-- c791                	beqz	a5,654 <__do_global_dtors_aux+0x28>
 64a:	|  |   00002517          	auipc	a0,0x2
 64e:	|  |   9b653503          	ld	a0,-1610(a0) # 2000 <__dso_handle>
 652:	|  |   9782                	jalr	a5
 654:	|  \-> f8bff0ef          	jal	5de <deregister_tm_clones>
 658:	|      4785                	li	a5,1
 65a:	|      00f40023          	sb	a5,0(s0)
 65e:	\----> 60a2                	ld	ra,8(sp)
 660:	       6402                	ld	s0,0(sp)
 662:	       0141                	add	sp,sp,16
 664:	       8082                	ret

0000000000000666 <frame_dummy>:
 666:	bf69                	j	600 <register_tm_clones>

0000000000000668 <insertion_sort>:
# 
# /* Insertion Sort function example from Rosetta Code */
# void insertion_sort(int*, const size_t); 
# 
# void insertion_sort(int *a, const size_t n) {
# 	for(size_t i = 1; i < n; ++i) {
 668:	                   4785                	li	a5,1
 66a:	/----------------- 04b7f163          	bgeu	a5,a1,6ac <insertion_sort+0x44>
 66e:	|                  00450893          	add	a7,a0,4
 672:	|                  4805                	li	a6,1
 674:	|  /-------------- a801                	j	684 <insertion_sort+0x1c>
# 		size_t j = i;
# 		while( (j > 0) && (key < a[j - 1]) ) {
# 			a[j] = a[j - 1];
# 			--j;
# 		}
# 		a[j] = key;
 676:	|  |  /----------> 070a                	sll	a4,a4,0x2
 678:	|  |  |            972a                	add	a4,a4,a0
 67a:	|  |  |            c310                	sw	a2,0(a4)
# 	for(size_t i = 1; i < n; ++i) {
 67c:	|  |  |            0805                	add	a6,a6,1
 67e:	|  |  |            0891                	add	a7,a7,4
 680:	|  |  |  /-------- 03058163          	beq	a1,a6,6a2 <insertion_sort+0x3a>
# 		int key = a[i];
 684:	|  >--|--|-------> 0008a603          	lw	a2,0(a7)
# 		while( (j > 0) && (key < a[j - 1]) ) {
 688:	|  |  |  |         87c6                	mv	a5,a7
 68a:	|  |  |  |         8742                	mv	a4,a6
 68c:	|  |  |  |  /----- 00080c63          	beqz	a6,6a4 <insertion_sort+0x3c>
 690:	|  |  |  |  |  /-> ffc7a683          	lw	a3,-4(a5)
 694:	|  |  +--|--|--|-- fed651e3          	bge	a2,a3,676 <insertion_sort+0xe>
# 			a[j] = a[j - 1];
 698:	|  |  |  |  |  |   c394                	sw	a3,0(a5)
# 			--j;
 69a:	|  |  |  |  |  |   177d                	add	a4,a4,-1
# 		while( (j > 0) && (key < a[j - 1]) ) {
 69c:	|  |  |  |  |  |   17f1                	add	a5,a5,-4
 69e:	|  |  |  |  |  \-- fb6d                	bnez	a4,690 <insertion_sort+0x28>
 6a0:	|  |  \--|--|----- bfd9                	j	676 <insertion_sort+0xe>
 6a2:	|  |     \--|----> 8082                	ret
# 		a[j] = key;
 6a4:	|  |        \----> c110                	sw	a2,0(a0)
# 	for(size_t i = 1; i < n; ++i) {
 6a6:	|  |               0805                	add	a6,a6,1
 6a8:	|  |               0891                	add	a7,a7,4
 6aa:	|  \-------------- bfe9                	j	684 <insertion_sort+0x1c>
# 	}
# }
 6ac:	\----------------> 8082                	ret

00000000000006ae <main>:
# 
# int main (int argc, char** argv) {
 6ae:	          7159                	add	sp,sp,-112
 6b0:	          f486                	sd	ra,104(sp)
 6b2:	          f0a2                	sd	s0,96(sp)
 6b4:	          eca6                	sd	s1,88(sp)
 6b6:	          e8ca                	sd	s2,80(sp)
 6b8:	          e4ce                	sd	s3,72(sp)
 6ba:	          e0d2                	sd	s4,64(sp)
 6bc:	          fc56                	sd	s5,56(sp)
# 
#     int a[] = {4, 65, 2, -31, 0, 99, 2, 83, 782, 1};
 6be:	          00000797          	auipc	a5,0x0
 6c2:	          0da78793          	add	a5,a5,218 # 798 <_IO_stdin_used+0x20>
 6c6:	          638c                	ld	a1,0(a5)
 6c8:	          6790                	ld	a2,8(a5)
 6ca:	          6b94                	ld	a3,16(a5)
 6cc:	          6f98                	ld	a4,24(a5)
 6ce:	          739c                	ld	a5,32(a5)
 6d0:	          e42e                	sd	a1,8(sp)
 6d2:	          e832                	sd	a2,16(sp)
 6d4:	          ec36                	sd	a3,24(sp)
 6d6:	          f03a                	sd	a4,32(sp)
 6d8:	          f43e                	sd	a5,40(sp)
# 
#     const size_t n = sizeof(a) / sizeof(a[0]) ;   // array extent 
# 
#     for (size_t i = 0; i < n; i++)
 6da:	          0020                	add	s0,sp,8
 6dc:	          02c10913          	add	s2,sp,44
 6e0:	          03010993          	add	s3,sp,48
#     int a[] = {4, 65, 2, -31, 0, 99, 2, 83, 782, 1};
 6e4:	          84a2                	mv	s1,s0
#         printf("%d%s", a[i], (i == (n - 1))? "\n" : " ");
 6e6:	          00000a97          	auipc	s5,0x0
 6ea:	          09aa8a93          	add	s5,s5,154 # 780 <_IO_stdin_used+0x8>
 6ee:	          00000a17          	auipc	s4,0x0
 6f2:	          09aa0a13          	add	s4,s4,154 # 788 <_IO_stdin_used+0x10>
 6f6:	      /-- a801                	j	706 <main+0x58>
 6f8:	   /--|-> 8656                	mv	a2,s5
 6fa:	   |  |   8552                	mv	a0,s4
 6fc:	   |  |   ea5ff0ef          	jal	5a0 <printf@plt>
#     for (size_t i = 0; i < n; i++)
 700:	   |  |   0491                	add	s1,s1,4
 702:	/--|--|-- 01348f63          	beq	s1,s3,720 <main+0x72>
#         printf("%d%s", a[i], (i == (n - 1))? "\n" : " ");
 706:	|  |  \-> 408c                	lw	a1,0(s1)
 708:	|  \----- ff2498e3          	bne	s1,s2,6f8 <main+0x4a>
 70c:	|         00000617          	auipc	a2,0x0
 710:	|         08460613          	add	a2,a2,132 # 790 <_IO_stdin_used+0x18>
 714:	|         00000517          	auipc	a0,0x0
 718:	|         07450513          	add	a0,a0,116 # 788 <_IO_stdin_used+0x10>
 71c:	|         e85ff0ef          	jal	5a0 <printf@plt>
# 
#     insertion_sort(a, n);
 720:	\-------> 45a9                	li	a1,10
 722:	          0028                	add	a0,sp,8
 724:	          f45ff0ef          	jal	668 <insertion_sort>
# 
#     for (size_t i = 0; i < n; i++)
#         printf("%d%s", a[i], (i == (n - 1))? "\n" : " ");
 728:	          00000a17          	auipc	s4,0x0
 72c:	          058a0a13          	add	s4,s4,88 # 780 <_IO_stdin_used+0x8>
 730:	          00000497          	auipc	s1,0x0
 734:	          05848493          	add	s1,s1,88 # 788 <_IO_stdin_used+0x10>
 738:	      /-- a801                	j	748 <main+0x9a>
 73a:	   /--|-> 8652                	mv	a2,s4
 73c:	   |  |   8526                	mv	a0,s1
 73e:	   |  |   e63ff0ef          	jal	5a0 <printf@plt>
#     for (size_t i = 0; i < n; i++)
 742:	   |  |   0411                	add	s0,s0,4
 744:	/--|--|-- 01340f63          	beq	s0,s3,762 <main+0xb4>
#         printf("%d%s", a[i], (i == (n - 1))? "\n" : " ");
 748:	|  |  \-> 400c                	lw	a1,0(s0)
 74a:	|  \----- ff2418e3          	bne	s0,s2,73a <main+0x8c>
 74e:	|         00000617          	auipc	a2,0x0
 752:	|         04260613          	add	a2,a2,66 # 790 <_IO_stdin_used+0x18>
 756:	|         00000517          	auipc	a0,0x0
 75a:	|         03250513          	add	a0,a0,50 # 788 <_IO_stdin_used+0x10>
 75e:	|         e43ff0ef          	jal	5a0 <printf@plt>
# 
#     return 0;
 762:	\-------> 4501                	li	a0,0
 764:	          70a6                	ld	ra,104(sp)
 766:	          7406                	ld	s0,96(sp)
 768:	          64e6                	ld	s1,88(sp)
 76a:	          6946                	ld	s2,80(sp)
 76c:	          69a6                	ld	s3,72(sp)
 76e:	          6a06                	ld	s4,64(sp)
 770:	          7ae2                	ld	s5,56(sp)
 772:	          6165                	add	sp,sp,112
 774:	          8082                	ret
Contents of the .eh_frame section (loaded from a.out):


00000000 0000000000000010 00000000 CIE
  Version:               3
  Augmentation:          "zR"
  Code alignment factor: 1
  Data alignment factor: -4
  Return address column: 1
  Augmentation data:     1b
  DW_CFA_def_cfa_register: r2 (sp)
  DW_CFA_nop

00000014 0000000000000010 00000018 FDE cie=00000000 pc=00000000000005b0..00000000000005d2
  DW_CFA_undefined: r1 (ra)
  DW_CFA_nop

00000028 ZERO terminator


Contents of the .debug_aranges section (loaded from a.out):

  Length:                   44
  Version:                  2
  Offset into .debug_info:  0
  Pointer Size:             8
  Segment Size:             0

    Address            Length
    0000000000000668 000000000000010e
    0000000000000000 0000000000000000

Contents of the .debug_info section (loaded from a.out):

  Compilation Unit @ offset 0:
   Length:        0x259 (32-bit)
   Version:       5
   Unit Type:     DW_UT_compile (1)
   Abbrev Offset: 0
   Pointer Size:  8
 <0><c>: Abbrev Number: 10 (DW_TAG_compile_unit)
    <d>   DW_AT_producer    : (indirect string, offset: 0x28): GNU C99 12.2.0 -mabi=lp64d -misa-spec=20191213 -march=rv64imafdc_zicsr_zifencei -g -O1 -std=gnu99
    <11>   DW_AT_language    : 12	(ANSI C99)
    <12>   DW_AT_name        : (indirect line string, offset: 0x24): ../sort.c
    <16>   DW_AT_comp_dir    : (indirect line string, offset: 0): /root/hello-world/riscv64-linux-gnu
    <1a>   DW_AT_low_pc      : 0x668
    <22>   DW_AT_high_pc     : 0x10e
    <2a>   DW_AT_stmt_list   : 0
 <1><2e>: Abbrev Number: 11 (DW_TAG_typedef)
    <2f>   DW_AT_name        : (indirect string, offset: 0): size_t
    <33>   DW_AT_decl_file   : 2
    <34>   DW_AT_decl_line   : 214
    <35>   DW_AT_decl_column : 23
    <36>   DW_AT_type        : <0x3f>
 <1><3a>: Abbrev Number: 6 (DW_TAG_const_type)
    <3b>   DW_AT_type        : <0x2e>
 <1><3f>: Abbrev Number: 2 (DW_TAG_base_type)
    <40>   DW_AT_byte_size   : 8
    <41>   DW_AT_encoding    : 7	(unsigned)
    <42>   DW_AT_name        : (indirect string, offset: 0x16): long unsigned int
 <1><46>: Abbrev Number: 2 (DW_TAG_base_type)
    <47>   DW_AT_byte_size   : 1
    <48>   DW_AT_encoding    : 8	(unsigned char)
    <49>   DW_AT_name        : (indirect string, offset: 0x8a): unsigned char
 <1><4d>: Abbrev Number: 2 (DW_TAG_base_type)
    <4e>   DW_AT_byte_size   : 2
    <4f>   DW_AT_encoding    : 7	(unsigned)
    <50>   DW_AT_name        : (indirect string, offset: 0xab): short unsigned int
 <1><54>: Abbrev Number: 2 (DW_TAG_base_type)
    <55>   DW_AT_byte_size   : 4
    <56>   DW_AT_encoding    : 7	(unsigned)
    <57>   DW_AT_name        : (indirect string, offset: 0x1b): unsigned int
 <1><5b>: Abbrev Number: 2 (DW_TAG_base_type)
    <5c>   DW_AT_byte_size   : 1
    <5d>   DW_AT_encoding    : 6	(signed char)
    <5e>   DW_AT_name        : (indirect string, offset: 0x8c): signed char
 <1><62>: Abbrev Number: 2 (DW_TAG_base_type)
    <63>   DW_AT_byte_size   : 2
    <64>   DW_AT_encoding    : 5	(signed)
    <65>   DW_AT_name        : (indirect string, offset: 0xc5): short int
 <1><69>: Abbrev Number: 12 (DW_TAG_base_type)
    <6a>   DW_AT_byte_size   : 4
    <6b>   DW_AT_encoding    : 5	(signed)
    <6c>   DW_AT_name        : int
 <1><70>: Abbrev Number: 2 (DW_TAG_base_type)
    <71>   DW_AT_byte_size   : 8
    <72>   DW_AT_encoding    : 5	(signed)
    <73>   DW_AT_name        : (indirect string, offset: 0x9d): long int
 <1><77>: Abbrev Number: 4 (DW_TAG_pointer_type)
    <78>   DW_AT_byte_size   : 8
    <78>   DW_AT_type        : <0x7c>
 <1><7c>: Abbrev Number: 2 (DW_TAG_base_type)
    <7d>   DW_AT_byte_size   : 1
    <7e>   DW_AT_encoding    : 8	(unsigned char)
    <7f>   DW_AT_name        : (indirect string, offset: 0x93): char
 <1><83>: Abbrev Number: 6 (DW_TAG_const_type)
    <84>   DW_AT_type        : <0x7c>
 <1><88>: Abbrev Number: 13 (DW_TAG_subprogram)
    <89>   DW_AT_external    : 1
    <89>   DW_AT_name        : (indirect string, offset: 0xbe): printf
    <8d>   DW_AT_decl_file   : 3
    <8e>   DW_AT_decl_line   : 356
    <90>   DW_AT_decl_column : 12
    <91>   DW_AT_prototyped  : 1
    <91>   DW_AT_type        : <0x69>
    <95>   DW_AT_declaration : 1
    <95>   DW_AT_sibling     : <0xa0>
 <2><99>: Abbrev Number: 14 (DW_TAG_formal_parameter)
    <9a>   DW_AT_type        : <0xa0>
 <2><9e>: Abbrev Number: 15 (DW_TAG_unspecified_parameters)
 <2><9f>: Abbrev Number: 0
 <1><a0>: Abbrev Number: 4 (DW_TAG_pointer_type)
    <a1>   DW_AT_byte_size   : 8
    <a1>   DW_AT_type        : <0x83>
 <1><a5>: Abbrev Number: 16 (DW_TAG_subprogram)
    <a6>   DW_AT_external    : 1
    <a6>   DW_AT_name        : (indirect string, offset: 0x98): main
    <aa>   DW_AT_decl_file   : 1
    <ab>   DW_AT_decl_line   : 18
    <ac>   DW_AT_decl_column : 5
    <ad>   DW_AT_prototyped  : 1
    <ad>   DW_AT_type        : <0x69>
    <b1>   DW_AT_low_pc      : 0x6ae
    <b9>   DW_AT_high_pc     : 0xc8
    <c1>   DW_AT_frame_base  : 1 byte block: 9c 	(DW_OP_call_frame_cfa)
    <c3>   DW_AT_call_all_calls: 1
    <c3>   DW_AT_sibling     : <0x1ce>
 <2><c7>: Abbrev Number: 7 (DW_TAG_formal_parameter)
    <c8>   DW_AT_name        : (indirect string, offset: 0xa6): argc
    <cc>   DW_AT_decl_file   : 1
    <cc>   DW_AT_decl_line   : 18
    <cc>   DW_AT_decl_column : 15
    <cd>   DW_AT_type        : <0x69>
    <d1>   DW_AT_location    : 0xc (location list)
 <2><d5>: Abbrev Number: 7 (DW_TAG_formal_parameter)
    <d6>   DW_AT_name        : (indirect string, offset: 0xcf): argv
    <da>   DW_AT_decl_file   : 1
    <da>   DW_AT_decl_line   : 18
    <da>   DW_AT_decl_column : 28
    <db>   DW_AT_type        : <0x1ce>
    <df>   DW_AT_location    : 0x36 (location list)
 <2><e3>: Abbrev Number: 17 (DW_TAG_variable)
    <e4>   DW_AT_name        : a
    <e6>   DW_AT_decl_file   : 1
    <e7>   DW_AT_decl_line   : 20
    <e8>   DW_AT_decl_column : 9
    <e9>   DW_AT_type        : <0x1d3>
    <ed>   DW_AT_location    : 3 byte block: 91 98 7f 	(DW_OP_fbreg: -104)
 <2><f1>: Abbrev Number: 18 (DW_TAG_variable)
    <f2>   DW_AT_name        : n
    <f4>   DW_AT_decl_file   : 1
    <f5>   DW_AT_decl_line   : 22
    <f6>   DW_AT_decl_column : 18
    <f7>   DW_AT_type        : <0x3a>
    <fb>   DW_AT_const_value : 10
 <2><fc>: Abbrev Number: 19 (DW_TAG_lexical_block)
    <fd>   DW_AT_ranges      : 0x40
    <101>   DW_AT_sibling     : <0x152>
 <3><105>: Abbrev Number: 3 (DW_TAG_variable)
    <106>   DW_AT_name        : i
    <108>   DW_AT_decl_file   : 1
    <108>   DW_AT_decl_line   : 24
    <109>   DW_AT_decl_column : 17
    <10a>   DW_AT_type        : <0x2e>
    <10e>   DW_AT_location    : 0x60 (location list)
 <3><112>: Abbrev Number: 8 (DW_TAG_call_site)
    <113>   DW_AT_call_return_pc: 0x700
    <11b>   DW_AT_call_origin : <0x88>
    <11f>   DW_AT_sibling     : <0x130>
 <4><123>: Abbrev Number: 1 (DW_TAG_call_site_parameter)
    <124>   DW_AT_location    : 1 byte block: 5a 	(DW_OP_reg10 (a0))
    <126>   DW_AT_call_value  : 2 byte block: 84 0 	(DW_OP_breg20 (s4): 0)
 <4><129>: Abbrev Number: 1 (DW_TAG_call_site_parameter)
    <12a>   DW_AT_location    : 1 byte block: 5c 	(DW_OP_reg12 (a2))
    <12c>   DW_AT_call_value  : 2 byte block: 85 0 	(DW_OP_breg21 (s5): 0)
 <4><12f>: Abbrev Number: 0
 <3><130>: Abbrev Number: 5 (DW_TAG_call_site)
    <131>   DW_AT_call_return_pc: 0x720
    <139>   DW_AT_call_origin : <0x88>
 <4><13d>: Abbrev Number: 1 (DW_TAG_call_site_parameter)
    <13e>   DW_AT_location    : 1 byte block: 5a 	(DW_OP_reg10 (a0))
    <140>   DW_AT_call_value  : 2 byte block: 84 0 	(DW_OP_breg20 (s4): 0)
 <4><143>: Abbrev Number: 1 (DW_TAG_call_site_parameter)
    <144>   DW_AT_location    : 1 byte block: 5c 	(DW_OP_reg12 (a2))
    <146>   DW_AT_call_value  : 9 byte block: 3 90 7 0 0 0 0 0 0 	(DW_OP_addr: 790)
 <4><150>: Abbrev Number: 0
 <3><151>: Abbrev Number: 0
 <2><152>: Abbrev Number: 20 (DW_TAG_lexical_block)
    <153>   DW_AT_low_pc      : 0x728
    <15b>   DW_AT_high_pc     : 0x3a
    <163>   DW_AT_sibling     : <0x1b4>
 <3><167>: Abbrev Number: 3 (DW_TAG_variable)
    <168>   DW_AT_name        : i
    <16a>   DW_AT_decl_file   : 1
    <16a>   DW_AT_decl_line   : 29
    <16b>   DW_AT_decl_column : 17
    <16c>   DW_AT_type        : <0x2e>
    <170>   DW_AT_location    : 0x75 (location list)
 <3><174>: Abbrev Number: 8 (DW_TAG_call_site)
    <175>   DW_AT_call_return_pc: 0x742
    <17d>   DW_AT_call_origin : <0x88>
    <181>   DW_AT_sibling     : <0x192>
 <4><185>: Abbrev Number: 1 (DW_TAG_call_site_parameter)
    <186>   DW_AT_location    : 1 byte block: 5a 	(DW_OP_reg10 (a0))
    <188>   DW_AT_call_value  : 2 byte block: 79 0 	(DW_OP_breg9 (s1): 0)
 <4><18b>: Abbrev Number: 1 (DW_TAG_call_site_parameter)
    <18c>   DW_AT_location    : 1 byte block: 5c 	(DW_OP_reg12 (a2))
    <18e>   DW_AT_call_value  : 2 byte block: 84 0 	(DW_OP_breg20 (s4): 0)
 <4><191>: Abbrev Number: 0
 <3><192>: Abbrev Number: 5 (DW_TAG_call_site)
    <193>   DW_AT_call_return_pc: 0x762
    <19b>   DW_AT_call_origin : <0x88>
 <4><19f>: Abbrev Number: 1 (DW_TAG_call_site_parameter)
    <1a0>   DW_AT_location    : 1 byte block: 5a 	(DW_OP_reg10 (a0))
    <1a2>   DW_AT_call_value  : 2 byte block: 79 0 	(DW_OP_breg9 (s1): 0)
 <4><1a5>: Abbrev Number: 1 (DW_TAG_call_site_parameter)
    <1a6>   DW_AT_location    : 1 byte block: 5c 	(DW_OP_reg12 (a2))
    <1a8>   DW_AT_call_value  : 9 byte block: 3 90 7 0 0 0 0 0 0 	(DW_OP_addr: 790)
 <4><1b2>: Abbrev Number: 0
 <3><1b3>: Abbrev Number: 0
 <2><1b4>: Abbrev Number: 5 (DW_TAG_call_site)
    <1b5>   DW_AT_call_return_pc: 0x728
    <1bd>   DW_AT_call_origin : <0x1e3>
 <3><1c1>: Abbrev Number: 1 (DW_TAG_call_site_parameter)
    <1c2>   DW_AT_location    : 1 byte block: 5a 	(DW_OP_reg10 (a0))
    <1c4>   DW_AT_call_value  : 2 byte block: 78 0 	(DW_OP_breg8 (s0): 0)
 <3><1c7>: Abbrev Number: 1 (DW_TAG_call_site_parameter)
    <1c8>   DW_AT_location    : 1 byte block: 5b 	(DW_OP_reg11 (a1))
    <1ca>   DW_AT_call_value  : 1 byte block: 3a 	(DW_OP_lit10)
 <3><1cc>: Abbrev Number: 0
 <2><1cd>: Abbrev Number: 0
 <1><1ce>: Abbrev Number: 4 (DW_TAG_pointer_type)
    <1cf>   DW_AT_byte_size   : 8
    <1cf>   DW_AT_type        : <0x77>
 <1><1d3>: Abbrev Number: 21 (DW_TAG_array_type)
    <1d4>   DW_AT_type        : <0x69>
    <1d8>   DW_AT_sibling     : <0x1e3>
 <2><1dc>: Abbrev Number: 22 (DW_TAG_subrange_type)
    <1dd>   DW_AT_type        : <0x3f>
    <1e1>   DW_AT_upper_bound : 9
 <2><1e2>: Abbrev Number: 0
 <1><1e3>: Abbrev Number: 23 (DW_TAG_subprogram)
    <1e4>   DW_AT_external    : 1
    <1e4>   DW_AT_name        : (indirect string, offset: 0x7): insertion_sort
    <1e8>   DW_AT_decl_file   : 1
    <1e9>   DW_AT_decl_line   : 6
    <1ea>   DW_AT_decl_column : 6
    <1eb>   DW_AT_prototyped  : 1
    <1eb>   DW_AT_low_pc      : 0x668
    <1f3>   DW_AT_high_pc     : 0x46
    <1fb>   DW_AT_frame_base  : 1 byte block: 9c 	(DW_OP_call_frame_cfa)
    <1fd>   DW_AT_call_all_calls: 1
    <1fd>   DW_AT_sibling     : <0x257>
 <2><201>: Abbrev Number: 9 (DW_TAG_formal_parameter)
    <202>   DW_AT_name        : a
    <204>   DW_AT_decl_file   : 1
    <204>   DW_AT_decl_line   : 6
    <204>   DW_AT_decl_column : 26
    <205>   DW_AT_type        : <0x257>
    <209>   DW_AT_location    : 1 byte block: 5a 	(DW_OP_reg10 (a0))
 <2><20b>: Abbrev Number: 9 (DW_TAG_formal_parameter)
    <20c>   DW_AT_name        : n
    <20e>   DW_AT_decl_file   : 1
    <20e>   DW_AT_decl_line   : 6
    <20e>   DW_AT_decl_column : 42
    <20f>   DW_AT_type        : <0x3a>
    <213>   DW_AT_location    : 1 byte block: 5b 	(DW_OP_reg11 (a1))
 <2><215>: Abbrev Number: 24 (DW_TAG_lexical_block)
    <216>   DW_AT_low_pc      : 0x668
    <21e>   DW_AT_high_pc     : 0x44
 <3><226>: Abbrev Number: 3 (DW_TAG_variable)
    <227>   DW_AT_name        : i
    <229>   DW_AT_decl_file   : 1
    <229>   DW_AT_decl_line   : 7
    <22a>   DW_AT_decl_column : 13
    <22b>   DW_AT_type        : <0x2e>
    <22f>   DW_AT_location    : 0x8a (location list)
 <3><233>: Abbrev Number: 25 (DW_TAG_lexical_block)
    <234>   DW_AT_ranges      : 0xc
 <4><238>: Abbrev Number: 3 (DW_TAG_variable)
    <239>   DW_AT_name        : key
    <23d>   DW_AT_decl_file   : 1
    <23d>   DW_AT_decl_line   : 8
    <23e>   DW_AT_decl_column : 7
    <23f>   DW_AT_type        : <0x69>
    <243>   DW_AT_location    : 0xff (location list)
 <4><247>: Abbrev Number: 3 (DW_TAG_variable)
    <248>   DW_AT_name        : j
    <24a>   DW_AT_decl_file   : 1
    <24a>   DW_AT_decl_line   : 9
    <24b>   DW_AT_decl_column : 10
    <24c>   DW_AT_type        : <0x2e>
    <250>   DW_AT_location    : 0x126 (location list)
 <4><254>: Abbrev Number: 0
 <3><255>: Abbrev Number: 0
 <2><256>: Abbrev Number: 0
 <1><257>: Abbrev Number: 4 (DW_TAG_pointer_type)
    <258>   DW_AT_byte_size   : 8
    <258>   DW_AT_type        : <0x69>
 <1><25c>: Abbrev Number: 0

Contents of the .debug_abbrev section (loaded from a.out):

  Number TAG (0)
   1      DW_TAG_call_site_parameter    [no children]
    DW_AT_location     DW_FORM_exprloc
    DW_AT_call_value   DW_FORM_exprloc
    DW_AT value: 0     DW_FORM value: 0
   2      DW_TAG_base_type    [no children]
    DW_AT_byte_size    DW_FORM_data1
    DW_AT_encoding     DW_FORM_data1
    DW_AT_name         DW_FORM_strp
    DW_AT value: 0     DW_FORM value: 0
   3      DW_TAG_variable    [no children]
    DW_AT_name         DW_FORM_string
    DW_AT_decl_file    DW_FORM_implicit_const: 1
    DW_AT_decl_line    DW_FORM_data1
    DW_AT_decl_column  DW_FORM_data1
    DW_AT_type         DW_FORM_ref4
    DW_AT_location     DW_FORM_sec_offset
    DW_AT value: 0     DW_FORM value: 0
   4      DW_TAG_pointer_type    [no children]
    DW_AT_byte_size    DW_FORM_implicit_const: 8
    DW_AT_type         DW_FORM_ref4
    DW_AT value: 0     DW_FORM value: 0
   5      DW_TAG_call_site    [has children]
    DW_AT_call_return_pc DW_FORM_addr
    DW_AT_call_origin  DW_FORM_ref4
    DW_AT value: 0     DW_FORM value: 0
   6      DW_TAG_const_type    [no children]
    DW_AT_type         DW_FORM_ref4
    DW_AT value: 0     DW_FORM value: 0
   7      DW_TAG_formal_parameter    [no children]
    DW_AT_name         DW_FORM_strp
    DW_AT_decl_file    DW_FORM_implicit_const: 1
    DW_AT_decl_line    DW_FORM_implicit_const: 18
    DW_AT_decl_column  DW_FORM_data1
    DW_AT_type         DW_FORM_ref4
    DW_AT_location     DW_FORM_sec_offset
    DW_AT value: 0     DW_FORM value: 0
   8      DW_TAG_call_site    [has children]
    DW_AT_call_return_pc DW_FORM_addr
    DW_AT_call_origin  DW_FORM_ref4
    DW_AT_sibling      DW_FORM_ref4
    DW_AT value: 0     DW_FORM value: 0
   9      DW_TAG_formal_parameter    [no children]
    DW_AT_name         DW_FORM_string
    DW_AT_decl_file    DW_FORM_implicit_const: 1
    DW_AT_decl_line    DW_FORM_implicit_const: 6
    DW_AT_decl_column  DW_FORM_data1
    DW_AT_type         DW_FORM_ref4
    DW_AT_location     DW_FORM_exprloc
    DW_AT value: 0     DW_FORM value: 0
   10      DW_TAG_compile_unit    [has children]
    DW_AT_producer     DW_FORM_strp
    DW_AT_language     DW_FORM_data1
    DW_AT_name         DW_FORM_line_strp
    DW_AT_comp_dir     DW_FORM_line_strp
    DW_AT_low_pc       DW_FORM_addr
    DW_AT_high_pc      DW_FORM_data8
    DW_AT_stmt_list    DW_FORM_sec_offset
    DW_AT value: 0     DW_FORM value: 0
   11      DW_TAG_typedef    [no children]
    DW_AT_name         DW_FORM_strp
    DW_AT_decl_file    DW_FORM_data1
    DW_AT_decl_line    DW_FORM_data1
    DW_AT_decl_column  DW_FORM_data1
    DW_AT_type         DW_FORM_ref4
    DW_AT value: 0     DW_FORM value: 0
   12      DW_TAG_base_type    [no children]
    DW_AT_byte_size    DW_FORM_data1
    DW_AT_encoding     DW_FORM_data1
    DW_AT_name         DW_FORM_string
    DW_AT value: 0     DW_FORM value: 0
   13      DW_TAG_subprogram    [has children]
    DW_AT_external     DW_FORM_flag_present
    DW_AT_name         DW_FORM_strp
    DW_AT_decl_file    DW_FORM_data1
    DW_AT_decl_line    DW_FORM_data2
    DW_AT_decl_column  DW_FORM_data1
    DW_AT_prototyped   DW_FORM_flag_present
    DW_AT_type         DW_FORM_ref4
    DW_AT_declaration  DW_FORM_flag_present
    DW_AT_sibling      DW_FORM_ref4
    DW_AT value: 0     DW_FORM value: 0
   14      DW_TAG_formal_parameter    [no children]
    DW_AT_type         DW_FORM_ref4
    DW_AT value: 0     DW_FORM value: 0
   15      DW_TAG_unspecified_parameters    [no children]
    DW_AT value: 0     DW_FORM value: 0
   16      DW_TAG_subprogram    [has children]
    DW_AT_external     DW_FORM_flag_present
    DW_AT_name         DW_FORM_strp
    DW_AT_decl_file    DW_FORM_data1
    DW_AT_decl_line    DW_FORM_data1
    DW_AT_decl_column  DW_FORM_data1
    DW_AT_prototyped   DW_FORM_flag_present
    DW_AT_type         DW_FORM_ref4
    DW_AT_low_pc       DW_FORM_addr
    DW_AT_high_pc      DW_FORM_data8
    DW_AT_frame_base   DW_FORM_exprloc
    DW_AT_call_all_calls DW_FORM_flag_present
    DW_AT_sibling      DW_FORM_ref4
    DW_AT value: 0     DW_FORM value: 0
   17      DW_TAG_variable    [no children]
    DW_AT_name         DW_FORM_string
    DW_AT_decl_file    DW_FORM_data1
    DW_AT_decl_line    DW_FORM_data1
    DW_AT_decl_column  DW_FORM_data1
    DW_AT_type         DW_FORM_ref4
    DW_AT_location     DW_FORM_exprloc
    DW_AT value: 0     DW_FORM value: 0
   18      DW_TAG_variable    [no children]
    DW_AT_name         DW_FORM_string
    DW_AT_decl_file    DW_FORM_data1
    DW_AT_decl_line    DW_FORM_data1
    DW_AT_decl_column  DW_FORM_data1
    DW_AT_type         DW_FORM_ref4
    DW_AT_const_value  DW_FORM_data1
    DW_AT value: 0     DW_FORM value: 0
   19      DW_TAG_lexical_block    [has children]
    DW_AT_ranges       DW_FORM_sec_offset
    DW_AT_sibling      DW_FORM_ref4
    DW_AT value: 0     DW_FORM value: 0
   20      DW_TAG_lexical_block    [has children]
    DW_AT_low_pc       DW_FORM_addr
    DW_AT_high_pc      DW_FORM_data8
    DW_AT_sibling      DW_FORM_ref4
    DW_AT value: 0     DW_FORM value: 0
   21      DW_TAG_array_type    [has children]
    DW_AT_type         DW_FORM_ref4
    DW_AT_sibling      DW_FORM_ref4
    DW_AT value: 0     DW_FORM value: 0
   22      DW_TAG_subrange_type    [no children]
    DW_AT_type         DW_FORM_ref4
    DW_AT_upper_bound  DW_FORM_data1
    DW_AT value: 0     DW_FORM value: 0
   23      DW_TAG_subprogram    [has children]
    DW_AT_external     DW_FORM_flag_present
    DW_AT_name         DW_FORM_strp
    DW_AT_decl_file    DW_FORM_data1
    DW_AT_decl_line    DW_FORM_data1
    DW_AT_decl_column  DW_FORM_data1
    DW_AT_prototyped   DW_FORM_flag_present
    DW_AT_low_pc       DW_FORM_addr
    DW_AT_high_pc      DW_FORM_data8
    DW_AT_frame_base   DW_FORM_exprloc
    DW_AT_call_all_calls DW_FORM_flag_present
    DW_AT_sibling      DW_FORM_ref4
    DW_AT value: 0     DW_FORM value: 0
   24      DW_TAG_lexical_block    [has children]
    DW_AT_low_pc       DW_FORM_addr
    DW_AT_high_pc      DW_FORM_data8
    DW_AT value: 0     DW_FORM value: 0
   25      DW_TAG_lexical_block    [has children]
    DW_AT_ranges       DW_FORM_sec_offset
    DW_AT value: 0     DW_FORM value: 0

Raw dump of debug contents of section .debug_line (loaded from a.out):

  Offset:                      0
  Length:                      565
  DWARF Version:               5
  Address size (bytes):        8
  Segment selector (bytes):    0
  Prologue Length:             64
  Minimum Instruction Length:  1
  Maximum Ops per Instruction: 1
  Initial value of 'is_stmt':  1
  Line Base:                   -5
  Line Range:                  14
  Opcode Base:                 13

 Opcodes:
  Opcode 1 has 0 args
  Opcode 2 has 1 arg
  Opcode 3 has 1 arg
  Opcode 4 has 1 arg
  Opcode 5 has 1 arg
  Opcode 6 has 0 args
  Opcode 7 has 0 args
  Opcode 8 has 0 args
  Opcode 9 has 1 arg
  Opcode 10 has 0 args
  Opcode 11 has 0 args
  Opcode 12 has 1 arg

 The Directory Table (offset 0x22, lines 4, columns 1):
  Entry	Name
  0	(indirect line string, offset: 0): /root/hello-world/riscv64-linux-gnu
  1	(indirect line string, offset: 0x2e): ..
  2	(indirect line string, offset: 0x31): /usr/lib/gcc-cross/riscv64-linux-gnu/12/include
  3	(indirect line string, offset: 0x61): /usr/riscv64-linux-gnu/include

 The File Name Table (offset 0x38, lines 4, columns 2):
  Entry	Dir	Name
  0	1	(indirect line string, offset: 0x27): sort.c
  1	1	(indirect line string, offset: 0x27): sort.c
  2	2	(indirect line string, offset: 0x80): stddef.h
  3	3	(indirect line string, offset: 0x89): stdio.h

 Line Number Statements:
  [0x0000004c]  Set column to 45
  [0x0000004e]  Extended opcode 2: set Address to 0x668
  [0x00000059]  Special opcode 10: advance Address by 0 to 0x668 and Line by 5 to 6
  [0x0000005a]  Set column to 2
  [0x0000005c]  Advance Line by 1 to 7
  [0x0000005e]  Advance PC by fixed size amount 0 to 0x668
  [0x00000061]  Copy (view 1)
  [0x00000062]  Set column to 6
  [0x00000064]  Advance Line by 0 to 7
  [0x00000066]  Advance PC by fixed size amount 0 to 0x668
  [0x00000069]  Copy (view 2)
  [0x0000006a]  Set column to 22
  [0x0000006c]  Advance Line by 0 to 7
  [0x0000006e]  Advance PC by fixed size amount 0 to 0x668
  [0x00000071]  Copy (view 3)
  [0x00000072]  Set column to 13
  [0x00000074]  Set is_stmt to 0
  [0x00000075]  Advance Line by 0 to 7
  [0x00000077]  Advance PC by fixed size amount 10 to 0x672
  [0x0000007a]  Copy (view 4)
  [0x0000007b]  Set column to 3
  [0x0000007d]  Extended opcode 4: set Discriminator to 2
  [0x00000081]  Set is_stmt to 1
  [0x00000082]  Advance Line by 7 to 14
  [0x00000084]  Advance PC by fixed size amount 4 to 0x676
  [0x00000087]  Copy (view 5)
  [0x00000088]  Set column to 8
  [0x0000008a]  Extended opcode 4: set Discriminator to 2
  [0x0000008e]  Set is_stmt to 0
  [0x0000008f]  Advance Line by 0 to 14
  [0x00000091]  Advance PC by fixed size amount 0 to 0x676
  [0x00000094]  Copy (view 6)
  [0x00000095]  Set column to 27
  [0x00000097]  Extended opcode 4: set Discriminator to 2
  [0x0000009b]  Set is_stmt to 1
  [0x0000009c]  Advance Line by -7 to 7
  [0x0000009e]  Advance PC by fixed size amount 6 to 0x67c
  [0x000000a1]  Copy (view 7)
  [0x000000a2]  Set column to 22
  [0x000000a4]  Extended opcode 4: set Discriminator to 2
  [0x000000a8]  Advance Line by 0 to 7
  [0x000000aa]  Advance PC by fixed size amount 2 to 0x67e
  [0x000000ad]  Copy (view 8)
  [0x000000ae]  Set column to 3
  [0x000000b0]  Advance Line by 1 to 8
  [0x000000b2]  Advance PC by fixed size amount 6 to 0x684
  [0x000000b5]  Copy (view 9)
  [0x000000b6]  Set column to 7
  [0x000000b8]  Set is_stmt to 0
  [0x000000b9]  Advance Line by 0 to 8
  [0x000000bb]  Advance PC by fixed size amount 0 to 0x684
  [0x000000be]  Copy (view 10)
  [0x000000bf]  Set column to 3
  [0x000000c1]  Set is_stmt to 1
  [0x000000c2]  Advance Line by 1 to 9
  [0x000000c4]  Advance PC by fixed size amount 4 to 0x688
  [0x000000c7]  Copy (view 11)
  [0x000000c8]  Advance Line by 1 to 10
  [0x000000ca]  Advance PC by fixed size amount 0 to 0x688
  [0x000000cd]  Copy (view 12)
  [0x000000ce]  Set column to 18
  [0x000000d0]  Advance Line by 0 to 10
  [0x000000d2]  Advance PC by fixed size amount 0 to 0x688
  [0x000000d5]  Copy (view 13)
  [0x000000d6]  Set column to 29
  [0x000000d8]  Extended opcode 4: set Discriminator to 1
  [0x000000dc]  Set is_stmt to 0
  [0x000000dd]  Advance Line by 0 to 10
  [0x000000df]  Advance PC by fixed size amount 8 to 0x690
  [0x000000e2]  Copy (view 14)
  [0x000000e3]  Set column to 18
  [0x000000e5]  Extended opcode 4: set Discriminator to 1
  [0x000000e9]  Advance Line by 0 to 10
  [0x000000eb]  Advance PC by fixed size amount 4 to 0x694
  [0x000000ee]  Copy (view 15)
  [0x000000ef]  Set column to 4
  [0x000000f1]  Set is_stmt to 1
  [0x000000f2]  Advance Line by 1 to 11
  [0x000000f4]  Advance PC by fixed size amount 4 to 0x698
  [0x000000f7]  Copy (view 16)
  [0x000000f8]  Set column to 9
  [0x000000fa]  Set is_stmt to 0
  [0x000000fb]  Advance Line by 0 to 11
  [0x000000fd]  Advance PC by fixed size amount 0 to 0x698
  [0x00000100]  Copy (view 17)
  [0x00000101]  Set column to 4
  [0x00000103]  Set is_stmt to 1
  [0x00000104]  Advance Line by 1 to 12
  [0x00000106]  Advance PC by fixed size amount 2 to 0x69a
  [0x00000109]  Copy (view 18)
  [0x0000010a]  Set column to 18
  [0x0000010c]  Advance Line by -2 to 10
  [0x0000010e]  Advance PC by fixed size amount 2 to 0x69c
  [0x00000111]  Copy (view 19)
  [0x00000112]  Set column to 3
  [0x00000114]  Advance Line by 4 to 14
  [0x00000116]  Advance PC by fixed size amount 8 to 0x6a4
  [0x00000119]  Copy (view 20)
  [0x0000011a]  Set column to 8
  [0x0000011c]  Set is_stmt to 0
  [0x0000011d]  Advance Line by 0 to 14
  [0x0000011f]  Advance PC by fixed size amount 0 to 0x6a4
  [0x00000122]  Copy (view 21)
  [0x00000123]  Set column to 27
  [0x00000125]  Set is_stmt to 1
  [0x00000126]  Advance Line by -7 to 7
  [0x00000128]  Advance PC by fixed size amount 2 to 0x6a6
  [0x0000012b]  Copy (view 22)
  [0x0000012c]  Set column to 22
  [0x0000012e]  Advance Line by 0 to 7
  [0x00000130]  Advance PC by fixed size amount 2 to 0x6a8
  [0x00000133]  Copy (view 23)
  [0x00000134]  Set column to 1
  [0x00000136]  Set is_stmt to 0
  [0x00000137]  Advance Line by 9 to 16
  [0x00000139]  Advance PC by fixed size amount 4 to 0x6ac
  [0x0000013c]  Copy (view 24)
  [0x0000013d]  Set column to 34
  [0x0000013f]  Set is_stmt to 1
  [0x00000140]  Advance Line by 2 to 18
  [0x00000142]  Advance PC by fixed size amount 2 to 0x6ae
  [0x00000145]  Copy (view 25)
  [0x00000146]  Set column to 5
  [0x00000148]  Advance Line by 2 to 20
  [0x0000014a]  Advance PC by fixed size amount 16 to 0x6be
  [0x0000014d]  Copy (view 26)
  [0x0000014e]  Set column to 9
  [0x00000150]  Set is_stmt to 0
  [0x00000151]  Advance Line by 0 to 20
  [0x00000153]  Advance PC by fixed size amount 0 to 0x6be
  [0x00000156]  Copy (view 27)
  [0x00000157]  Set column to 5
  [0x00000159]  Set is_stmt to 1
  [0x0000015a]  Advance Line by 2 to 22
  [0x0000015c]  Advance PC by fixed size amount 28 to 0x6da
  [0x0000015f]  Copy (view 28)
  [0x00000160]  Advance Line by 2 to 24
  [0x00000162]  Advance PC by fixed size amount 0 to 0x6da
  [0x00000165]  Copy (view 29)
  [0x00000166]  Set column to 10
  [0x00000168]  Advance Line by 0 to 24
  [0x0000016a]  Advance PC by fixed size amount 0 to 0x6da
  [0x0000016d]  Copy (view 30)
  [0x0000016e]  Set column to 26
  [0x00000170]  Advance Line by 0 to 24
  [0x00000172]  Advance PC by fixed size amount 0 to 0x6da
  [0x00000175]  Copy (view 31)
  [0x00000176]  Set column to 9
  [0x00000178]  Set is_stmt to 0
  [0x00000179]  Advance Line by -4 to 20
  [0x0000017b]  Advance PC by fixed size amount 10 to 0x6e4
  [0x0000017e]  Copy (view 32)
  [0x0000017f]  Advance Line by 5 to 25
  [0x00000181]  Advance PC by fixed size amount 2 to 0x6e6
  [0x00000184]  Copy (view 33)
  [0x00000185]  Extended opcode 4: set Discriminator to 4
  [0x00000189]  Advance Line by 0 to 25
  [0x0000018b]  Advance PC by fixed size amount 18 to 0x6f8
  [0x0000018e]  Copy (view 34)
  [0x0000018f]  Set column to 32
  [0x00000191]  Extended opcode 4: set Discriminator to 4
  [0x00000195]  Set is_stmt to 1
  [0x00000196]  Advance Line by -1 to 24
  [0x00000198]  Advance PC by fixed size amount 8 to 0x700
  [0x0000019b]  Copy (view 35)
  [0x0000019c]  Set column to 26
  [0x0000019e]  Extended opcode 4: set Discriminator to 4
  [0x000001a2]  Advance Line by 0 to 24
  [0x000001a4]  Advance PC by fixed size amount 0 to 0x700
  [0x000001a7]  Copy (view 36)
  [0x000001a8]  Set column to 9
  [0x000001aa]  Advance Line by 1 to 25
  [0x000001ac]  Advance PC by fixed size amount 6 to 0x706
  [0x000001af]  Copy (view 37)
  [0x000001b0]  Set column to 32
  [0x000001b2]  Advance Line by -1 to 24
  [0x000001b4]  Advance PC by fixed size amount 26 to 0x720
  [0x000001b7]  Copy (view 38)
  [0x000001b8]  Set column to 26
  [0x000001ba]  Advance Line by 0 to 24
  [0x000001bc]  Advance PC by fixed size amount 0 to 0x720
  [0x000001bf]  Copy (view 39)
  [0x000001c0]  Set column to 5
  [0x000001c2]  Advance Line by 3 to 27
  [0x000001c4]  Advance PC by fixed size amount 0 to 0x720
  [0x000001c7]  Copy (view 40)
  [0x000001c8]  Advance Line by 2 to 29
  [0x000001ca]  Advance PC by fixed size amount 8 to 0x728
  [0x000001cd]  Copy (view 41)
  [0x000001ce]  Set column to 10
  [0x000001d0]  Advance Line by 0 to 29
  [0x000001d2]  Advance PC by fixed size amount 0 to 0x728
  [0x000001d5]  Copy (view 42)
  [0x000001d6]  Set column to 26
  [0x000001d8]  Advance Line by 0 to 29
  [0x000001da]  Advance PC by fixed size amount 0 to 0x728
  [0x000001dd]  Copy (view 43)
  [0x000001de]  Set column to 9
  [0x000001e0]  Set is_stmt to 0
  [0x000001e1]  Advance Line by 1 to 30
  [0x000001e3]  Advance PC by fixed size amount 0 to 0x728
  [0x000001e6]  Copy (view 44)
  [0x000001e7]  Extended opcode 4: set Discriminator to 4
  [0x000001eb]  Advance Line by 0 to 30
  [0x000001ed]  Advance PC by fixed size amount 18 to 0x73a
  [0x000001f0]  Copy (view 45)
  [0x000001f1]  Set column to 32
  [0x000001f3]  Extended opcode 4: set Discriminator to 4
  [0x000001f7]  Set is_stmt to 1
  [0x000001f8]  Advance Line by -1 to 29
  [0x000001fa]  Advance PC by fixed size amount 8 to 0x742
  [0x000001fd]  Copy (view 46)
  [0x000001fe]  Set column to 26
  [0x00000200]  Extended opcode 4: set Discriminator to 4
  [0x00000204]  Advance Line by 0 to 29
  [0x00000206]  Advance PC by fixed size amount 0 to 0x742
  [0x00000209]  Copy (view 47)
  [0x0000020a]  Set column to 9
  [0x0000020c]  Advance Line by 1 to 30
  [0x0000020e]  Advance PC by fixed size amount 6 to 0x748
  [0x00000211]  Copy (view 48)
  [0x00000212]  Set column to 32
  [0x00000214]  Advance Line by -1 to 29
  [0x00000216]  Advance PC by fixed size amount 26 to 0x762
  [0x00000219]  Copy (view 49)
  [0x0000021a]  Set column to 26
  [0x0000021c]  Advance Line by 0 to 29
  [0x0000021e]  Advance PC by fixed size amount 0 to 0x762
  [0x00000221]  Copy (view 50)
  [0x00000222]  Set column to 5
  [0x00000224]  Advance Line by 3 to 32
  [0x00000226]  Advance PC by fixed size amount 0 to 0x762
  [0x00000229]  Copy (view 51)
  [0x0000022a]  Set column to 1
  [0x0000022c]  Set is_stmt to 0
  [0x0000022d]  Advance Line by 1 to 33
  [0x0000022f]  Advance PC by fixed size amount 0 to 0x762
  [0x00000232]  Copy (view 52)
  [0x00000233]  Advance PC by fixed size amount 20 to 0x776
  [0x00000236]  Extended opcode 1: End of Sequence


Contents of the .debug_frame section (loaded from a.out):


00000000 000000000000000c ffffffff CIE
  Version:               3
  Augmentation:          ""
  Code alignment factor: 1
  Data alignment factor: -4
  Return address column: 1

  DW_CFA_def_cfa_register: r2 (sp)
  DW_CFA_nop

00000010 0000000000000014 00000000 FDE cie=00000000 pc=0000000000000668..00000000000006ae

00000028 000000000000003c 00000000 FDE cie=00000000 pc=00000000000006ae..0000000000000776
  DW_CFA_advance_loc: 2 to 00000000000006b0
  DW_CFA_def_cfa_offset: 112
  DW_CFA_advance_loc: 14 to 00000000000006be
  DW_CFA_offset: r1 (ra) at cfa-8
  DW_CFA_offset: r8 (s0) at cfa-16
  DW_CFA_offset: r9 (s1) at cfa-24
  DW_CFA_offset: r18 (s2) at cfa-32
  DW_CFA_offset: r19 (s3) at cfa-40
  DW_CFA_offset: r20 (s4) at cfa-48
  DW_CFA_offset: r21 (s5) at cfa-56
  DW_CFA_advance_loc1: 168 to 0000000000000766
  DW_CFA_restore: r1 (ra)
  DW_CFA_advance_loc: 2 to 0000000000000768
  DW_CFA_restore: r8 (s0)
  DW_CFA_advance_loc: 2 to 000000000000076a
  DW_CFA_restore: r9 (s1)
  DW_CFA_advance_loc: 2 to 000000000000076c
  DW_CFA_restore: r18 (s2)
  DW_CFA_advance_loc: 2 to 000000000000076e
  DW_CFA_restore: r19 (s3)
  DW_CFA_advance_loc: 2 to 0000000000000770
  DW_CFA_restore: r20 (s4)
  DW_CFA_advance_loc: 2 to 0000000000000772
  DW_CFA_restore: r21 (s5)
  DW_CFA_advance_loc: 2 to 0000000000000774
  DW_CFA_def_cfa_offset: 0
  DW_CFA_nop
  DW_CFA_nop
  DW_CFA_nop
  DW_CFA_nop

Contents of the .debug_str section (loaded from a.out):

  0x00000000 73697a65 5f740069 6e736572 74696f6e size_t.insertion
  0x00000010 5f736f72 74006c6f 6e672075 6e736967 _sort.long unsig
  0x00000020 6e656420 696e7400 474e5520 43393920 ned int.GNU C99 
  0x00000030 31322e32 2e30202d 6d616269 3d6c7036 12.2.0 -mabi=lp6
  0x00000040 3464202d 6d697361 2d737065 633d3230 4d -misa-spec=20
  0x00000050 31393132 3133202d 6d617263 683d7276 191213 -march=rv
  0x00000060 3634696d 61666463 5f7a6963 73725f7a 64imafdc_zicsr_z
  0x00000070 6966656e 63656920 2d67202d 4f31202d ifencei -g -O1 -
  0x00000080 7374643d 676e7539 3900756e 7369676e std=gnu99.unsign
  0x00000090 65642063 68617200 6d61696e 006c6f6e ed char.main.lon
  0x000000a0 6720696e 74006172 67630073 686f7274 g int.argc.short
  0x000000b0 20756e73 69676e65 6420696e 74007072  unsigned int.pr
  0x000000c0 696e7466 0073686f 72742069 6e740061 intf.short int.a
  0x000000d0 72677600                            rgv.

Contents of the .debug_line_str section (loaded from a.out):

  0x00000000 2f726f6f 742f6865 6c6c6f2d 776f726c /root/hello-worl
  0x00000010 642f7269 73637636 342d6c69 6e75782d d/riscv64-linux-
  0x00000020 676e7500 2e2e2f73 6f72742e 63002e2e gnu.../sort.c...
  0x00000030 002f7573 722f6c69 622f6763 632d6372 ./usr/lib/gcc-cr
  0x00000040 6f73732f 72697363 7636342d 6c696e75 oss/riscv64-linu
  0x00000050 782d676e 752f3132 2f696e63 6c756465 x-gnu/12/include
  0x00000060 002f7573 722f7269 73637636 342d6c69 ./usr/riscv64-li
  0x00000070 6e75782d 676e752f 696e636c 75646500 nux-gnu/include.
  0x00000080 73746464 65662e68 00737464 696f2e68 stddef.h.stdio.h
  0x00000090 00                                  .

Contents of the .debug_loclists section (loaded from a.out):

    Offset   Begin            End              Expression
    0000000c 00000000000006ae 00000000000006f8 (DW_OP_reg10 (a0))
    0000001f 00000000000006f8 0000000000000776 (DW_OP_entry_value: (DW_OP_reg10 (a0)); DW_OP_stack_value)
    00000035 <End of list>
    00000036 00000000000006ae 00000000000006c8 (DW_OP_reg11 (a1))
    00000049 00000000000006c8 0000000000000776 (DW_OP_entry_value: (DW_OP_reg11 (a1)); DW_OP_stack_value)
    0000005f <End of list>
    00000060 00000000000006da 00000000000006f8 (DW_OP_lit0; DW_OP_stack_value)
    00000074 <End of list>
    00000075 0000000000000728 000000000000073a (DW_OP_lit0; DW_OP_stack_value)
    00000089 <End of list>
    0000008a 0000000000000668 0000000000000676 (DW_OP_lit1; DW_OP_stack_value)
    0000009e 000000000000067e 0000000000000690 (DW_OP_reg16 (a6))
    000000b1 00000000000006a2 00000000000006a4 (DW_OP_reg16 (a6))
    000000c4 00000000000006a4 00000000000006a8 (DW_OP_reg14 (a4))
    000000d7 00000000000006a8 00000000000006ac (DW_OP_reg16 (a6))
    000000ea 00000000000006ac 00000000000006ae (DW_OP_lit1; DW_OP_stack_value)
    000000fe <End of list>
    000000ff 0000000000000688 0000000000000690 (DW_OP_reg12 (a2))
    00000112 00000000000006a4 00000000000006ac (DW_OP_reg12 (a2))
    00000125 <End of list>
    00000126 0000000000000676 0000000000000678 (DW_OP_reg14 (a4))
    00000139 0000000000000688 0000000000000690 (DW_OP_reg16 (a6))
    0000014c 0000000000000690 00000000000006a2 (DW_OP_reg14 (a4))
    0000015f 00000000000006a4 00000000000006ac (DW_OP_reg14 (a4))
    00000172 <End of list>

Contents of the .debug_rnglists section (loaded from a.out):

 Table at Offset: 0:
  Length:          0x5f
  DWARF version:   5
  Address size:    8
  Segment size:    0
  Offset entries:  0

  Offset: 0xc, Index: 0
    Offset   Begin    End
    0000000c 0000000000000676 000000000000067c 
    0000001d 0000000000000684 00000000000006a2 
    0000002e 00000000000006a4 00000000000006a6 
    0000003f <End of list>

