
a.out:     file format elf64-tradbigmips

SYMBOL TABLE:
0000000000000238 l    d  .MIPS.abiflags	0000000000000000              .MIPS.abiflags
0000000000000250 l    d  .MIPS.options	0000000000000000              .MIPS.options
0000000000000390 l    d  .note.gnu.build-id	0000000000000000              .note.gnu.build-id
00000000000003b4 l    d  .note.ABI-tag	0000000000000000              .note.ABI-tag
00000000000003d8 l    d  .dynamic	0000000000000000              .dynamic
0000000000000608 l    d  .hash	0000000000000000              .hash
0000000000000650 l    d  .dynsym	0000000000000000              .dynsym
0000000000000770 l    d  .dynstr	0000000000000000              .dynstr
0000000000000830 l    d  .gnu.version	0000000000000000              .gnu.version
0000000000000848 l    d  .gnu.version_r	0000000000000000              .gnu.version_r
0000000000000888 l    d  .rel.dyn	0000000000000000              .rel.dyn
00000000000008c8 l    d  .init	0000000000000000              .init
0000000000000910 l    d  .text	0000000000000000              .text
0000000000000ad0 l    d  .MIPS.stubs	0000000000000000              .MIPS.stubs
0000000000000b00 l    d  .fini	0000000000000000              .fini
0000000000000b28 l    d  .rodata	0000000000000000              .rodata
0000000000000b48 l    d  .interp	0000000000000000              .interp
0000000000000b58 l    d  .eh_frame	0000000000000000              .eh_frame
0000000000010b60 l    d  .init_array	0000000000000000              .init_array
0000000000010b68 l    d  .fini_array	0000000000000000              .fini_array
0000000000010b70 l    d  .data	0000000000000000              .data
0000000000010b80 l    d  .rld_map	0000000000000000              .rld_map
0000000000010b90 l    d  .got	0000000000000000              .got
0000000000010c10 l    d  .sdata	0000000000000000              .sdata
0000000000010c20 l    d  .bss	0000000000000000              .bss
0000000000000000 l    d  .comment	0000000000000000              .comment
0000000000000000 l    d  .pdr	0000000000000000              .pdr
0000000000000000 l    d  .debug_aranges	0000000000000000              .debug_aranges
0000000000000000 l    d  .debug_info	0000000000000000              .debug_info
0000000000000000 l    d  .debug_abbrev	0000000000000000              .debug_abbrev
0000000000000000 l    d  .debug_line	0000000000000000              .debug_line
0000000000000000 l    d  .debug_frame	0000000000000000              .debug_frame
0000000000000000 l    d  .debug_str	0000000000000000              .debug_str
0000000000000000 l    d  .debug_loclists	0000000000000000              .debug_loclists
0000000000000000 l    d  .gnu.attributes	0000000000000000              .gnu.attributes
0000000000000000 l    df *ABS*	0000000000000000              Scrt1.o
0000000000000960 l       .text	0000000000000000              hlt
00000000000003b4 l     O .note.ABI-tag	0000000000000020              __abi_tag
0000000000000000 l    df *ABS*	0000000000000000              crtstuff.c
0000000000000970 l     F .text	0000000000000000              deregister_tm_clones
00000000000009a8 l     F .text	0000000000000000              register_tm_clones
00000000000009f8 l     F .text	0000000000000000              __do_global_dtors_aux
0000000000010c20 l     O .bss	0000000000000001              completed.0
0000000000010b68 l     O .fini_array	0000000000000000              __do_global_dtors_aux_fini_array_entry
0000000000000a68 l     F .text	0000000000000000              frame_dummy
0000000000010b60 l     O .init_array	0000000000000000              __frame_dummy_init_array_entry
0000000000000000 l    df *ABS*	0000000000000000              crtstuff.c
0000000000000b58 l     O .eh_frame	0000000000000000              __FRAME_END__
0000000000000000 l    df *ABS*	0000000000000000              
0000000000000ad0 l     F .MIPS.stubs	0000000000000000              _MIPS_STUBS_
0000000000010c10 l     O .sdata	0000000000000000              __dso_handle
00000000000003d8 l     O *ABS*	0000000000000000              _DYNAMIC
0000000000010b88 l     O .rld_map	0000000000000000              __TMC_END__
0000000000010b90 l     O *ABS*	0000000000000000              _GLOBAL_OFFSET_TABLE_
0000000000018b80 l       .got	0000000000000000              _gp
0000000000000000  w    F *UND*	0000000000000000              __cxa_finalize@GLIBC_2.2
0000000000000ad0       F *UND*	0000000000000000              __libc_start_main@GLIBC_2.34
0000000000000001 g    d  *ABS*	0000000000000000              _DYNAMIC_LINKING
0000000000000000  w      *UND*	0000000000000000              _ITM_deregisterTMCloneTable
0000000000010b70  w      .data	0000000000000000              data_start
0000000000010c18 g       .sdata	0000000000000000              _edata
0000000000000b00 g     F .fini	0000000000000000              .hidden _fini
0000000000010b70 g       .data	0000000000000000              __data_start
0000000000000ae0       F *UND*	0000000000000000              puts@GLIBC_2.0
0000000000000000  w    F *UND*	0000000000000000              __gmon_start__
0000000000000b28 g     O .rodata	0000000000000004              _IO_stdin_used
0000000000010b70 g       .data	0000000000000000              _fdata
0000000000010b80 g     O .rld_map	0000000000000000              __RLD_MAP
0000000000010c30 g       .bss	0000000000000000              _end
0000000000010c18 g       .bss	0000000000000000              __bss_start
0000000000000a90 g     F .text	000000000000003c              main
0000000000000910 g     F .text	0000000000000000              __start
0000000000000910 g       .text	0000000000000000              _ftext
0000000000010c18 g       .bss	0000000000000000              _fbss
0000000000000000  w      *UND*	0000000000000000              _ITM_registerTMCloneTable
00000000000008c8 g     F .init	0000000000000000              .hidden _init



Disassembly of section .init:

00000000000008c8 <_init>:
 8c8:	    67bdfff0 	daddiu	sp,sp,-16
 8cc:	    ffbc0000 	sd	gp,0(sp)
 8d0:	    3c1c0002 	lui	gp,0x2
 8d4:	    0399e02d 	daddu	gp,gp,t9
 8d8:	    ffbf0008 	sd	ra,8(sp)
 8dc:	    679c82b8 	daddiu	gp,gp,-32072
 8e0:	    df828068 	ld	v0,-32664(gp)
 8e4:	/-- 10400004 	beqz	v0,8f8 <_init+0x30>
 8e8:	|   00000000 	nop
 8ec:	|   df998068 	ld	t9,-32664(gp)
 8f0:	|   0320f809 	jalr	t9
 8f4:	|   00000000 	nop
 8f8:	\-> dfbf0008 	ld	ra,8(sp)
 8fc:	    dfbc0000 	ld	gp,0(sp)
 900:	    03e00008 	jr	ra
 904:	    67bd0010 	daddiu	sp,sp,16

Disassembly of section .text:

0000000000000910 <__start>:
 910:	    03e00025 	move	zero,ra
 914:	/-- 04110001 	bal	91c <__start+0xc>
 918:	|   00000000 	nop
 91c:	\-> 0380c825 	move	t9,gp
 920:	    3c1c0002 	lui	gp,0x2
 924:	    279c8264 	addiu	gp,gp,-32156
 928:	    039fe02d 	daddu	gp,gp,ra
 92c:	    0000f825 	move	ra,zero
 930:	    df848020 	ld	a0,-32736(gp)
 934:	    dfa50000 	ld	a1,0(sp)
 938:	    67a60008 	daddiu	a2,sp,8
 93c:	    2401fff0 	li	at,-16
 940:	    03a1e824 	and	sp,sp,at
 944:	    00003825 	move	a3,zero
 948:	    00004025 	move	a4,zero
 94c:	    00404825 	move	a5,v0
 950:	    03a05025 	move	a6,sp
 954:	    df998080 	ld	t9,-32640(gp)
 958:	    0320f809 	jalr	t9
 95c:	    00000000 	nop

0000000000000960 <hlt>:
 960:	/-- 1000ffff 	b	960 <hlt>
 964:	    00000000 	nop
	...

0000000000000970 <deregister_tm_clones>:
 970:	    3c030002 	lui	v1,0x2
 974:	    0079182d 	daddu	v1,v1,t9
 978:	    64638210 	daddiu	v1,v1,-32240
 97c:	    dc648028 	ld	a0,-32728(v1)
 980:	    dc628030 	ld	v0,-32720(v1)
 984:	    64840b88 	daddiu	a0,a0,2952
 988:	/-- 10440005 	beq	v0,a0,9a0 <deregister_tm_clones+0x30>
 98c:	|   dc798078 	ld	t9,-32648(v1)
 990:	+-- 13200003 	beqz	t9,9a0 <deregister_tm_clones+0x30>
 994:	|   00000000 	nop
 998:	|   03200008 	jr	t9
 99c:	|   00000000 	nop
 9a0:	\-> 03e00008 	jr	ra
 9a4:	    00000000 	nop

00000000000009a8 <register_tm_clones>:
 9a8:	    3c030002 	lui	v1,0x2
 9ac:	    0079182d 	daddu	v1,v1,t9
 9b0:	    646381d8 	daddiu	v1,v1,-32296
 9b4:	    dc648028 	ld	a0,-32728(v1)
 9b8:	    dc658030 	ld	a1,-32720(v1)
 9bc:	    64840b88 	daddiu	a0,a0,2952
 9c0:	    00a4282f 	dsubu	a1,a1,a0
 9c4:	    000510fb 	dsra	v0,a1,0x3
 9c8:	    00052ffe 	dsrl32	a1,a1,0x1f
 9cc:	    00a2282d 	daddu	a1,a1,v0
 9d0:	    0005287b 	dsra	a1,a1,0x1
 9d4:	/-- 10a00005 	beqz	a1,9ec <register_tm_clones+0x44>
 9d8:	|   dc798060 	ld	t9,-32672(v1)
 9dc:	+-- 13200003 	beqz	t9,9ec <register_tm_clones+0x44>
 9e0:	|   00000000 	nop
 9e4:	|   03200008 	jr	t9
 9e8:	|   00000000 	nop
 9ec:	\-> 03e00008 	jr	ra
 9f0:	    00000000 	nop
 9f4:	    00000000 	nop

00000000000009f8 <__do_global_dtors_aux>:
 9f8:	       67bdffe0 	daddiu	sp,sp,-32
 9fc:	       ffbc0010 	sd	gp,16(sp)
 a00:	       3c1c0002 	lui	gp,0x2
 a04:	       0399e02d 	daddu	gp,gp,t9
 a08:	       679c8188 	daddiu	gp,gp,-32376
 a0c:	       ffb00008 	sd	s0,8(sp)
 a10:	       df908028 	ld	s0,-32728(gp)
 a14:	       ffbf0018 	sd	ra,24(sp)
 a18:	       92020c20 	lbu	v0,3104(s0)
 a1c:	/----- 1440000c 	bnez	v0,a50 <__do_global_dtors_aux+0x58>
 a20:	|      df828088 	ld	v0,-32632(gp)
 a24:	|  /-- 10400004 	beqz	v0,a38 <__do_global_dtors_aux+0x40>
 a28:	|  |   df828038 	ld	v0,-32712(gp)
 a2c:	|  |   df998088 	ld	t9,-32632(gp)
 a30:	|  |   0320f809 	jalr	t9
 a34:	|  |   dc440000 	ld	a0,0(v0)
 a38:	|  \-> df998040 	ld	t9,-32704(gp)
 a3c:	|      67390970 	daddiu	t9,t9,2416
 a40:	|      0411ffcb 	bal	970 <deregister_tm_clones>
 a44:	|      00000000 	nop
 a48:	|      24020001 	li	v0,1
 a4c:	|      a2020c20 	sb	v0,3104(s0)
 a50:	\----> dfbf0018 	ld	ra,24(sp)
 a54:	       dfbc0010 	ld	gp,16(sp)
 a58:	       dfb00008 	ld	s0,8(sp)
 a5c:	       03e00008 	jr	ra
 a60:	       67bd0020 	daddiu	sp,sp,32
 a64:	       00000000 	nop

0000000000000a68 <frame_dummy>:
 a68:	3c020002 	lui	v0,0x2
 a6c:	0059102d 	daddu	v0,v0,t9
 a70:	64428118 	daddiu	v0,v0,-32488
 a74:	dc598040 	ld	t9,-32704(v0)
 a78:	673909a8 	daddiu	t9,t9,2472
 a7c:	1000ffca 	b	9a8 <register_tm_clones>
 a80:	00000000 	nop
	...

0000000000000a90 <main>:
# #include <stdio.h>
# 
# int main (int argc, char** argv) {
 a90:	67bdfff0 	daddiu	sp,sp,-16
 a94:	ffbf0008 	sd	ra,8(sp)
 a98:	ffbc0000 	sd	gp,0(sp)
 a9c:	3c1c0002 	lui	gp,0x2
 aa0:	0399e02d 	daddu	gp,gp,t9
 aa4:	679c80f0 	daddiu	gp,gp,-32528
# 
#     printf("Hello from RISC-V!\n");
 aa8:	df848040 	ld	a0,-32704(gp)
 aac:	df998070 	ld	t9,-32656(gp)
 ab0:	0320f809 	jalr	t9
 ab4:	64840b30 	daddiu	a0,a0,2864
#     return 0;
 ab8:	00001025 	move	v0,zero
 abc:	dfbf0008 	ld	ra,8(sp)
 ac0:	dfbc0000 	ld	gp,0(sp)
 ac4:	03e00008 	jr	ra
 ac8:	67bd0010 	daddiu	sp,sp,16
 acc:	00000000 	nop

Disassembly of section .fini:

0000000000000b00 <_fini>:
 b00:	67bdfff0 	daddiu	sp,sp,-16
 b04:	ffbc0000 	sd	gp,0(sp)
 b08:	3c1c0002 	lui	gp,0x2
 b0c:	0399e02d 	daddu	gp,gp,t9
 b10:	ffbf0008 	sd	ra,8(sp)
 b14:	679c8080 	daddiu	gp,gp,-32640
 b18:	dfbf0008 	ld	ra,8(sp)
 b1c:	dfbc0000 	ld	gp,0(sp)
 b20:	03e00008 	jr	ra
 b24:	67bd0010 	daddiu	sp,sp,16
Contents of the .eh_frame section (loaded from a.out):


00000000 ZERO terminator


Contents of the .debug_aranges section (loaded from a.out):

  Length:                   44
  Version:                  2
  Offset into .debug_info:  0
  Pointer Size:             8
  Segment Size:             0

    Address            Length
    0000000000000a90 000000000000003c
    0000000000000000 0000000000000000

Contents of the .debug_info section (loaded from a.out):

  Compilation Unit @ offset 0:
   Length:        0xe1 (32-bit)
   Version:       5
   Unit Type:     DW_UT_compile (1)
   Abbrev Offset: 0
   Pointer Size:  8
 <0><c>: Abbrev Number: 4 (DW_TAG_compile_unit)
    <d>   DW_AT_producer    : (indirect string, offset: 0x44): GNU C99 12.2.0 -meb -march=mips64r2 -mllsc -mips64r2 -mabi=64 -g -O1 -std=gnu99
    <11>   DW_AT_language    : 12	(ANSI C99)
    <12>   DW_AT_name        : (indirect string, offset: 0x94): ../hello.c
    <16>   DW_AT_comp_dir    : (indirect string, offset: 0): /root/hello-world/mips64-linux-gnu
    <1a>   DW_AT_low_pc      : 0xa90
    <22>   DW_AT_high_pc     : 0x3c
    <2a>   DW_AT_stmt_list   : 0
 <1><2e>: Abbrev Number: 1 (DW_TAG_base_type)
    <2f>   DW_AT_byte_size   : 8
    <30>   DW_AT_encoding    : 7	(unsigned)
    <31>   DW_AT_name        : (indirect string, offset: 0x32): long unsigned int
 <1><35>: Abbrev Number: 1 (DW_TAG_base_type)
    <36>   DW_AT_byte_size   : 1
    <37>   DW_AT_encoding    : 8	(unsigned char)
    <38>   DW_AT_name        : (indirect string, offset: 0x9f): unsigned char
 <1><3c>: Abbrev Number: 1 (DW_TAG_base_type)
    <3d>   DW_AT_byte_size   : 2
    <3e>   DW_AT_encoding    : 7	(unsigned)
    <3f>   DW_AT_name        : (indirect string, offset: 0xc0): short unsigned int
 <1><43>: Abbrev Number: 1 (DW_TAG_base_type)
    <44>   DW_AT_byte_size   : 4
    <45>   DW_AT_encoding    : 7	(unsigned)
    <46>   DW_AT_name        : (indirect string, offset: 0x37): unsigned int
 <1><4a>: Abbrev Number: 1 (DW_TAG_base_type)
    <4b>   DW_AT_byte_size   : 1
    <4c>   DW_AT_encoding    : 6	(signed char)
    <4d>   DW_AT_name        : (indirect string, offset: 0xa1): signed char
 <1><51>: Abbrev Number: 1 (DW_TAG_base_type)
    <52>   DW_AT_byte_size   : 2
    <53>   DW_AT_encoding    : 5	(signed)
    <54>   DW_AT_name        : (indirect string, offset: 0xd3): short int
 <1><58>: Abbrev Number: 5 (DW_TAG_base_type)
    <59>   DW_AT_byte_size   : 4
    <5a>   DW_AT_encoding    : 5	(signed)
    <5b>   DW_AT_name        : int
 <1><5f>: Abbrev Number: 1 (DW_TAG_base_type)
    <60>   DW_AT_byte_size   : 8
    <61>   DW_AT_encoding    : 5	(signed)
    <62>   DW_AT_name        : (indirect string, offset: 0xb2): long int
 <1><66>: Abbrev Number: 2 (DW_TAG_pointer_type)
    <67>   DW_AT_byte_size   : 8
    <67>   DW_AT_type        : <0x6b>
 <1><6b>: Abbrev Number: 1 (DW_TAG_base_type)
    <6c>   DW_AT_byte_size   : 1
    <6d>   DW_AT_encoding    : 6	(signed char)
    <6e>   DW_AT_name        : (indirect string, offset: 0xa8): char
 <1><72>: Abbrev Number: 6 (DW_TAG_subprogram)
    <73>   DW_AT_external    : 1
    <73>   DW_AT_name        : (indirect string, offset: 0xad): main
    <77>   DW_AT_decl_file   : 1
    <78>   DW_AT_decl_line   : 3
    <79>   DW_AT_decl_column : 5
    <7a>   DW_AT_prototyped  : 1
    <7a>   DW_AT_type        : <0x58>
    <7e>   DW_AT_low_pc      : 0xa90
    <86>   DW_AT_high_pc     : 0x3c
    <8e>   DW_AT_frame_base  : 1 byte block: 9c 	(DW_OP_call_frame_cfa)
    <90>   DW_AT_call_all_calls: 1
    <90>   DW_AT_sibling     : <0xd4>
 <2><94>: Abbrev Number: 3 (DW_TAG_formal_parameter)
    <95>   DW_AT_name        : (indirect string, offset: 0xbb): argc
    <99>   DW_AT_decl_file   : 1
    <99>   DW_AT_decl_line   : 3
    <99>   DW_AT_decl_column : 15
    <9a>   DW_AT_type        : <0x58>
    <9e>   DW_AT_location    : 0x10 (location list)
    <a2>   DW_AT_GNU_locviews: 0xc
 <2><a6>: Abbrev Number: 3 (DW_TAG_formal_parameter)
    <a7>   DW_AT_name        : (indirect string, offset: 0xdd): argv
    <ab>   DW_AT_decl_file   : 1
    <ab>   DW_AT_decl_line   : 3
    <ab>   DW_AT_decl_column : 28
    <ac>   DW_AT_type        : <0xd4>
    <b0>   DW_AT_location    : 0x22 (location list)
    <b4>   DW_AT_GNU_locviews: 0x1e
 <2><b8>: Abbrev Number: 7 (DW_TAG_call_site)
    <b9>   DW_AT_call_return_pc: 0xab4
    <c1>   DW_AT_call_origin : <0xd9>
 <3><c5>: Abbrev Number: 8 (DW_TAG_call_site_parameter)
    <c6>   DW_AT_location    : 1 byte block: 54 	(DW_OP_reg4 (r4))
    <c8>   DW_AT_call_value  : 9 byte block: 3 0 0 0 0 0 0 b 30 	(DW_OP_addr: b30)
 <3><d2>: Abbrev Number: 0
 <2><d3>: Abbrev Number: 0
 <1><d4>: Abbrev Number: 2 (DW_TAG_pointer_type)
    <d5>   DW_AT_byte_size   : 8
    <d5>   DW_AT_type        : <0x66>
 <1><d9>: Abbrev Number: 9 (DW_TAG_subprogram)
    <da>   DW_AT_external    : 1
    <da>   DW_AT_declaration : 1
    <da>   DW_AT_linkage_name: (indirect string, offset: 0x2d): puts
    <de>   DW_AT_name        : (indirect string, offset: 0x23): __builtin_puts
    <e2>   DW_AT_decl_file   : 2
    <e3>   DW_AT_decl_line   : 0
 <1><e4>: Abbrev Number: 0

Contents of the .debug_abbrev section (loaded from a.out):

  Number TAG (0)
   1      DW_TAG_base_type    [no children]
    DW_AT_byte_size    DW_FORM_data1
    DW_AT_encoding     DW_FORM_data1
    DW_AT_name         DW_FORM_strp
    DW_AT value: 0     DW_FORM value: 0
   2      DW_TAG_pointer_type    [no children]
    DW_AT_byte_size    DW_FORM_implicit_const: 8
    DW_AT_type         DW_FORM_ref4
    DW_AT value: 0     DW_FORM value: 0
   3      DW_TAG_formal_parameter    [no children]
    DW_AT_name         DW_FORM_strp
    DW_AT_decl_file    DW_FORM_implicit_const: 1
    DW_AT_decl_line    DW_FORM_implicit_const: 3
    DW_AT_decl_column  DW_FORM_data1
    DW_AT_type         DW_FORM_ref4
    DW_AT_location     DW_FORM_sec_offset
    DW_AT_GNU_locviews DW_FORM_sec_offset
    DW_AT value: 0     DW_FORM value: 0
   4      DW_TAG_compile_unit    [has children]
    DW_AT_producer     DW_FORM_strp
    DW_AT_language     DW_FORM_data1
    DW_AT_name         DW_FORM_strp
    DW_AT_comp_dir     DW_FORM_strp
    DW_AT_low_pc       DW_FORM_addr
    DW_AT_high_pc      DW_FORM_data8
    DW_AT_stmt_list    DW_FORM_sec_offset
    DW_AT value: 0     DW_FORM value: 0
   5      DW_TAG_base_type    [no children]
    DW_AT_byte_size    DW_FORM_data1
    DW_AT_encoding     DW_FORM_data1
    DW_AT_name         DW_FORM_string
    DW_AT value: 0     DW_FORM value: 0
   6      DW_TAG_subprogram    [has children]
    DW_AT_external     DW_FORM_flag_present
    DW_AT_name         DW_FORM_strp
    DW_AT_decl_file    DW_FORM_data1
    DW_AT_decl_line    DW_FORM_data1
    DW_AT_decl_column  DW_FORM_data1
    DW_AT_prototyped   DW_FORM_flag_present
    DW_AT_type         DW_FORM_ref4
    DW_AT_low_pc       DW_FORM_addr
    DW_AT_high_pc      DW_FORM_data8
    DW_AT_frame_base   DW_FORM_exprloc
    DW_AT_call_all_calls DW_FORM_flag_present
    DW_AT_sibling      DW_FORM_ref4
    DW_AT value: 0     DW_FORM value: 0
   7      DW_TAG_call_site    [has children]
    DW_AT_call_return_pc DW_FORM_addr
    DW_AT_call_origin  DW_FORM_ref4
    DW_AT value: 0     DW_FORM value: 0
   8      DW_TAG_call_site_parameter    [no children]
    DW_AT_location     DW_FORM_exprloc
    DW_AT_call_value   DW_FORM_exprloc
    DW_AT value: 0     DW_FORM value: 0
   9      DW_TAG_subprogram    [no children]
    DW_AT_external     DW_FORM_flag_present
    DW_AT_declaration  DW_FORM_flag_present
    DW_AT_linkage_name DW_FORM_strp
    DW_AT_name         DW_FORM_strp
    DW_AT_decl_file    DW_FORM_data1
    DW_AT_decl_line    DW_FORM_data1
    DW_AT value: 0     DW_FORM value: 0

Raw dump of debug contents of section .debug_line (loaded from a.out):

  Offset:                      0
  Length:                      88
  DWARF Version:               3
  Prologue Length:             47
  Minimum Instruction Length:  1
  Initial value of 'is_stmt':  1
  Line Base:                   -5
  Line Range:                  14
  Opcode Base:                 13

 Opcodes:
  Opcode 1 has 0 args
  Opcode 2 has 1 arg
  Opcode 3 has 1 arg
  Opcode 4 has 1 arg
  Opcode 5 has 1 arg
  Opcode 6 has 0 args
  Opcode 7 has 0 args
  Opcode 8 has 0 args
  Opcode 9 has 1 arg
  Opcode 10 has 0 args
  Opcode 11 has 0 args
  Opcode 12 has 1 arg

 The Directory Table (offset 0x1b):
  1	..

 The File Name Table (offset 0x1f):
  Entry	Dir	Time	Size	Name
  1	1	0	0	hello.c
  2	0	0	0	<built-in>

 Line Number Statements:
  [0x00000039]  Set column to 34
  [0x0000003b]  Extended opcode 2: set Address to 0xa90
  [0x00000046]  Special opcode 7: advance Address by 0 to 0xa90 and Line by 2 to 3
  [0x00000047]  Set is_stmt to 0
  [0x00000048]  Copy (view 1)
  [0x00000049]  Set column to 5
  [0x0000004b]  Set is_stmt to 1
  [0x0000004c]  Advance PC by constant 17 to 0xaa1
  [0x0000004d]  Special opcode 105: advance Address by 7 to 0xaa8 and Line by 2 to 5
  [0x0000004e]  Set is_stmt to 0
  [0x0000004f]  Special opcode 61: advance Address by 4 to 0xaac and Line by 0 to 5
  [0x00000050]  Special opcode 173: advance Address by 12 to 0xab8 and Line by 0 to 5
  [0x00000051]  Set is_stmt to 1
  [0x00000052]  Special opcode 6: advance Address by 0 to 0xab8 and Line by 1 to 6 (view 1)
  [0x00000053]  Set column to 1
  [0x00000055]  Set is_stmt to 0
  [0x00000056]  Special opcode 6: advance Address by 0 to 0xab8 and Line by 1 to 7 (view 2)
  [0x00000057]  Advance PC by 20 to 0xacc
  [0x00000059]  Extended opcode 1: End of Sequence


Contents of the .debug_frame section (loaded from a.out):


00000000 000000000000000c ffffffff CIE
  Version:               1
  Augmentation:          ""
  Code alignment factor: 1
  Data alignment factor: -4
  Return address column: 31

  DW_CFA_def_cfa_register: r29
  DW_CFA_nop

00000010 0000000000000024 00000000 FDE cie=00000000 pc=0000000000000a90..0000000000000acc
  DW_CFA_advance_loc: 4 to 0000000000000a94
  DW_CFA_def_cfa_offset: 16
  DW_CFA_advance_loc: 8 to 0000000000000a9c
  DW_CFA_offset: r31 at cfa-8
  DW_CFA_offset: r28 at cfa-16
  DW_CFA_advance_loc: 48 to 0000000000000acc
  DW_CFA_def_cfa_offset: 0
  DW_CFA_restore: r28
  DW_CFA_restore: r31
  DW_CFA_nop
  DW_CFA_nop
  DW_CFA_nop

Contents of the .debug_str section (loaded from a.out):

  0x00000000 2f726f6f 742f6865 6c6c6f2d 776f726c /root/hello-worl
  0x00000010 642f6d69 70733634 2d6c696e 75782d67 d/mips64-linux-g
  0x00000020 6e75005f 5f627569 6c74696e 5f707574 nu.__builtin_put
  0x00000030 73006c6f 6e672075 6e736967 6e656420 s.long unsigned 
  0x00000040 696e7400 474e5520 43393920 31322e32 int.GNU C99 12.2
  0x00000050 2e30202d 6d656220 2d6d6172 63683d6d .0 -meb -march=m
  0x00000060 69707336 34723220 2d6d6c6c 7363202d ips64r2 -mllsc -
  0x00000070 6d697073 36347232 202d6d61 62693d36 mips64r2 -mabi=6
  0x00000080 34202d67 202d4f31 202d7374 643d676e 4 -g -O1 -std=gn
  0x00000090 75393900 2e2e2f68 656c6c6f 2e630075 u99.../hello.c.u
  0x000000a0 6e736967 6e656420 63686172 006d6169 nsigned char.mai
  0x000000b0 6e006c6f 6e672069 6e740061 72676300 n.long int.argc.
  0x000000c0 73686f72 7420756e 7369676e 65642069 short unsigned i
  0x000000d0 6e740073 686f7274 20696e74 00617267 nt.short int.arg
  0x000000e0 7600                                v.

Contents of the .debug_loclists section (loaded from a.out):

    Offset   Begin            End              Expression

    0000000c v000000000000000 v000000000000000 location view pair
    0000000e v000000000000000 v000000000000000 location view pair

    00000010 v000000000000000 v000000000000000 views at 0000000c for:
             0000000000000a90 0000000000000aac (DW_OP_reg4 (r4))
    00000015 v000000000000000 v000000000000000 views at 0000000e for:
             0000000000000aac 0000000000000acc (DW_OP_entry_value: (DW_OP_reg4 (r4)); DW_OP_stack_value)
    0000001d <End of list>

    0000001e v000000000000000 v000000000000000 location view pair
    00000020 v000000000000000 v000000000000000 location view pair

    00000022 v000000000000000 v000000000000000 views at 0000001e for:
             0000000000000a90 0000000000000ab7 (DW_OP_reg5 (r5))
    00000027 v000000000000000 v000000000000000 views at 00000020 for:
             0000000000000ab7 0000000000000acc (DW_OP_entry_value: (DW_OP_reg5 (r5)); DW_OP_stack_value)
    0000002f <End of list>

