
a.out:     file format elf64-tradbigmips

SYMBOL TABLE:
0000000000000238 l    d  .MIPS.abiflags	0000000000000000              .MIPS.abiflags
0000000000000250 l    d  .MIPS.options	0000000000000000              .MIPS.options
0000000000000390 l    d  .note.gnu.build-id	0000000000000000              .note.gnu.build-id
00000000000003b4 l    d  .note.ABI-tag	0000000000000000              .note.ABI-tag
00000000000003d8 l    d  .dynamic	0000000000000000              .dynamic
0000000000000608 l    d  .hash	0000000000000000              .hash
00000000000006c0 l    d  .dynsym	0000000000000000              .dynsym
0000000000000948 l    d  .dynstr	0000000000000000              .dynstr
0000000000000a72 l    d  .gnu.version	0000000000000000              .gnu.version
0000000000000aa8 l    d  .gnu.version_r	0000000000000000              .gnu.version_r
0000000000000ae8 l    d  .rel.dyn	0000000000000000              .rel.dyn
0000000000000d68 l    d  .init	0000000000000000              .init
0000000000000db0 l    d  .text	0000000000000000              .text
0000000000001420 l    d  .MIPS.stubs	0000000000000000              .MIPS.stubs
00000000000014f0 l    d  .fini	0000000000000000              .fini
0000000000001518 l    d  .rodata	0000000000000000              .rodata
0000000000001810 l    d  .interp	0000000000000000              .interp
0000000000001820 l    d  .eh_frame	0000000000000000              .eh_frame
0000000000011828 l    d  .init_array	0000000000000000              .init_array
0000000000011830 l    d  .fini_array	0000000000000000              .fini_array
0000000000011838 l    d  .data.rel.ro	0000000000000000              .data.rel.ro
0000000000011960 l    d  .data	0000000000000000              .data
0000000000011970 l    d  .rld_map	0000000000000000              .rld_map
0000000000011980 l    d  .got	0000000000000000              .got
0000000000011a78 l    d  .sdata	0000000000000000              .sdata
0000000000011a80 l    d  .bss	0000000000000000              .bss
0000000000000000 l    d  .comment	0000000000000000              .comment
0000000000000000 l    d  .pdr	0000000000000000              .pdr
0000000000000000 l    d  .debug_aranges	0000000000000000              .debug_aranges
0000000000000000 l    d  .debug_info	0000000000000000              .debug_info
0000000000000000 l    d  .debug_abbrev	0000000000000000              .debug_abbrev
0000000000000000 l    d  .debug_line	0000000000000000              .debug_line
0000000000000000 l    d  .debug_frame	0000000000000000              .debug_frame
0000000000000000 l    d  .debug_str	0000000000000000              .debug_str
0000000000000000 l    d  .debug_loclists	0000000000000000              .debug_loclists
0000000000000000 l    d  .gnu.attributes	0000000000000000              .gnu.attributes
0000000000000000 l    df *ABS*	0000000000000000              Scrt1.o
0000000000000e00 l       .text	0000000000000000              hlt
00000000000003b4 l     O .note.ABI-tag	0000000000000020              __abi_tag
0000000000000000 l    df *ABS*	0000000000000000              crtstuff.c
0000000000000e10 l     F .text	0000000000000000              deregister_tm_clones
0000000000000e48 l     F .text	0000000000000000              register_tm_clones
0000000000000e98 l     F .text	0000000000000000              __do_global_dtors_aux
0000000000011a80 l     O .bss	0000000000000001              completed.0
0000000000011830 l     O .fini_array	0000000000000000              __do_global_dtors_aux_fini_array_entry
0000000000000f08 l     F .text	0000000000000000              frame_dummy
0000000000011828 l     O .init_array	0000000000000000              __frame_dummy_init_array_entry
0000000000011a90 l     O .bss	0000000000000008              fp
0000000000011838 l     O .data.rel.ro	0000000000000120              morse_tbl
0000000000000000 l    df *ABS*	0000000000000000              crtstuff.c
0000000000001820 l     O .eh_frame	0000000000000000              __FRAME_END__
0000000000000000 l    df *ABS*	0000000000000000              
0000000000001420 l     F .MIPS.stubs	0000000000000000              _MIPS_STUBS_
0000000000011a78 l     O .sdata	0000000000000000              __dso_handle
00000000000003d8 l     O *ABS*	0000000000000000              _DYNAMIC
0000000000011978 l     O .rld_map	0000000000000000              __TMC_END__
0000000000011980 l     O *ABS*	0000000000000000              _GLOBAL_OFFSET_TABLE_
0000000000019970 l       .got	0000000000000000              _gp
0000000000000000  w    F *UND*	0000000000000000              __cxa_finalize@GLIBC_2.2
0000000000001420       F *UND*	0000000000000000              __libc_start_main@GLIBC_2.34
0000000000000001 g    d  *ABS*	0000000000000000              _DYNAMIC_LINKING
0000000000000000  w      *UND*	0000000000000000              _ITM_deregisterTMCloneTable
0000000000011960  w      .data	0000000000000000              data_start
0000000000001430       F *UND*	0000000000000000              printf@GLIBC_2.0
0000000000001440       F *UND*	0000000000000000              fflush@GLIBC_2.0
0000000000001450       F *UND*	0000000000000000              fopen@GLIBC_2.2
000000000000112c g     F .text	0000000000000064              io_write
0000000000001364 g     F .text	0000000000000060              morse
0000000000011a80 g       .sdata	0000000000000000              _edata
00000000000011e0 g     F .text	0000000000000184              morse_letter
00000000000014f0 g     F .fini	0000000000000000              .hidden _fini
0000000000000f30 g     F .text	00000000000001fc              io_init
0000000000001460       F *UND*	0000000000000000              fwrite@GLIBC_2.0
0000000000011960 g       .data	0000000000000000              __data_start
0000000000001470       F *UND*	0000000000000000              puts@GLIBC_2.0
0000000000000000  w    F *UND*	0000000000000000              __gmon_start__
0000000000001480       F *UND*	0000000000000000              exit@GLIBC_2.0
0000000000001518 g     O .rodata	0000000000000004              _IO_stdin_used
0000000000011960 g       .data	0000000000000000              _fdata
0000000000001490       F *UND*	0000000000000000              fprintf@GLIBC_2.0
0000000000011970 g     O .rld_map	0000000000000000              __RLD_MAP
0000000000001190 g     F .text	0000000000000050              fsleep
0000000000011aa0 g       .bss	0000000000000000              _end
0000000000011a80 g       .bss	0000000000000000              __bss_start
00000000000013c4 g     F .text	0000000000000058              main
0000000000000db0 g     F .text	0000000000000000              __start
00000000000014a0       F *UND*	0000000000000000              fputc@GLIBC_2.0
0000000000000db0 g       .text	0000000000000000              _ftext
00000000000014b0       F *UND*	0000000000000000              fclose@GLIBC_2.2
00000000000014c0       F *UND*	0000000000000000              sprintf@GLIBC_2.0
00000000000014d0       F *UND*	0000000000000000              nanosleep@GLIBC_2.0
0000000000011a80 g       .bss	0000000000000000              _fbss
0000000000000000  w      *UND*	0000000000000000              _ITM_registerTMCloneTable
0000000000000d68 g     F .init	0000000000000000              .hidden _init



Disassembly of section .init:

0000000000000d68 <_init>:
 d68:	    67bdfff0 	daddiu	sp,sp,-16
 d6c:	    ffbc0000 	sd	gp,0(sp)
 d70:	    3c1c0002 	lui	gp,0x2
 d74:	    0399e02d 	daddu	gp,gp,t9
 d78:	    ffbf0008 	sd	ra,8(sp)
 d7c:	    679c8c08 	daddiu	gp,gp,-29688
 d80:	    df8280c0 	ld	v0,-32576(gp)
 d84:	/-- 10400004 	beqz	v0,d98 <_init+0x30>
 d88:	|   00000000 	nop
 d8c:	|   df9980c0 	ld	t9,-32576(gp)
 d90:	|   0320f809 	jalr	t9
 d94:	|   00000000 	nop
 d98:	\-> dfbf0008 	ld	ra,8(sp)
 d9c:	    dfbc0000 	ld	gp,0(sp)
 da0:	    03e00008 	jr	ra
 da4:	    67bd0010 	daddiu	sp,sp,16

Disassembly of section .text:

0000000000000db0 <__start>:
     db0:	    03e00025 	move	zero,ra
     db4:	/-- 04110001 	bal	dbc <__start+0xc>
     db8:	|   00000000 	nop
     dbc:	\-> 0380c825 	move	t9,gp
     dc0:	    3c1c0002 	lui	gp,0x2
     dc4:	    279c8bb4 	addiu	gp,gp,-29772
     dc8:	    039fe02d 	daddu	gp,gp,ra
     dcc:	    0000f825 	move	ra,zero
     dd0:	    df848020 	ld	a0,-32736(gp)
     dd4:	    dfa50000 	ld	a1,0(sp)
     dd8:	    67a60008 	daddiu	a2,sp,8
     ddc:	    2401fff0 	li	at,-16
     de0:	    03a1e824 	and	sp,sp,at
     de4:	    00003825 	move	a3,zero
     de8:	    00004025 	move	a4,zero
     dec:	    00404825 	move	a5,v0
     df0:	    03a05025 	move	a6,sp
     df4:	    df9980f8 	ld	t9,-32520(gp)
     df8:	    0320f809 	jalr	t9
     dfc:	    00000000 	nop

0000000000000e00 <hlt>:
     e00:	/-- 1000ffff 	b	e00 <hlt>
     e04:	    00000000 	nop
	...

0000000000000e10 <deregister_tm_clones>:
     e10:	    3c030002 	lui	v1,0x2
     e14:	    0079182d 	daddu	v1,v1,t9
     e18:	    64638b60 	daddiu	v1,v1,-29856
     e1c:	    dc648028 	ld	a0,-32728(v1)
     e20:	    dc628030 	ld	v0,-32720(v1)
     e24:	    64841978 	daddiu	a0,a0,6520
     e28:	/-- 10440005 	beq	v0,a0,e40 <deregister_tm_clones+0x30>
     e2c:	|   dc7980f0 	ld	t9,-32528(v1)
     e30:	+-- 13200003 	beqz	t9,e40 <deregister_tm_clones+0x30>
     e34:	|   00000000 	nop
     e38:	|   03200008 	jr	t9
     e3c:	|   00000000 	nop
     e40:	\-> 03e00008 	jr	ra
     e44:	    00000000 	nop

0000000000000e48 <register_tm_clones>:
     e48:	    3c030002 	lui	v1,0x2
     e4c:	    0079182d 	daddu	v1,v1,t9
     e50:	    64638b28 	daddiu	v1,v1,-29912
     e54:	    dc648028 	ld	a0,-32728(v1)
     e58:	    dc658030 	ld	a1,-32720(v1)
     e5c:	    64841978 	daddiu	a0,a0,6520
     e60:	    00a4282f 	dsubu	a1,a1,a0
     e64:	    000510fb 	dsra	v0,a1,0x3
     e68:	    00052ffe 	dsrl32	a1,a1,0x1f
     e6c:	    00a2282d 	daddu	a1,a1,v0
     e70:	    0005287b 	dsra	a1,a1,0x1
     e74:	/-- 10a00005 	beqz	a1,e8c <register_tm_clones+0x44>
     e78:	|   dc798088 	ld	t9,-32632(v1)
     e7c:	+-- 13200003 	beqz	t9,e8c <register_tm_clones+0x44>
     e80:	|   00000000 	nop
     e84:	|   03200008 	jr	t9
     e88:	|   00000000 	nop
     e8c:	\-> 03e00008 	jr	ra
     e90:	    00000000 	nop
     e94:	    00000000 	nop

0000000000000e98 <__do_global_dtors_aux>:
     e98:	       67bdffe0 	daddiu	sp,sp,-32
     e9c:	       ffbc0010 	sd	gp,16(sp)
     ea0:	       3c1c0002 	lui	gp,0x2
     ea4:	       0399e02d 	daddu	gp,gp,t9
     ea8:	       679c8ad8 	daddiu	gp,gp,-29992
     eac:	       ffb00008 	sd	s0,8(sp)
     eb0:	       df908028 	ld	s0,-32728(gp)
     eb4:	       ffbf0018 	sd	ra,24(sp)
     eb8:	       92021a80 	lbu	v0,6784(s0)
     ebc:	/----- 1440000c 	bnez	v0,ef0 <__do_global_dtors_aux+0x58>
     ec0:	|      df828100 	ld	v0,-32512(gp)
     ec4:	|  /-- 10400004 	beqz	v0,ed8 <__do_global_dtors_aux+0x40>
     ec8:	|  |   df828038 	ld	v0,-32712(gp)
     ecc:	|  |   df998100 	ld	t9,-32512(gp)
     ed0:	|  |   0320f809 	jalr	t9
     ed4:	|  |   dc440000 	ld	a0,0(v0)
     ed8:	|  \-> df998040 	ld	t9,-32704(gp)
     edc:	|      67390e10 	daddiu	t9,t9,3600
     ee0:	|      0411ffcb 	bal	e10 <deregister_tm_clones>
     ee4:	|      00000000 	nop
     ee8:	|      24020001 	li	v0,1
     eec:	|      a2021a80 	sb	v0,6784(s0)
     ef0:	\----> dfbf0018 	ld	ra,24(sp)
     ef4:	       dfbc0010 	ld	gp,16(sp)
     ef8:	       dfb00008 	ld	s0,8(sp)
     efc:	       03e00008 	jr	ra
     f00:	       67bd0020 	daddiu	sp,sp,32
     f04:	       00000000 	nop

0000000000000f08 <frame_dummy>:
     f08:	3c020002 	lui	v0,0x2
     f0c:	0059102d 	daddu	v0,v0,t9
     f10:	64428a68 	daddiu	v0,v0,-30104
     f14:	dc598040 	ld	t9,-32704(v0)
     f18:	67390e48 	daddiu	t9,t9,3656
     f1c:	1000ffca 	b	e48 <register_tm_clones>
     f20:	00000000 	nop
	...

0000000000000f30 <io_init>:
# /* 
#  * IO Functions
#  */
# static FILE* fp = NULL;
# void io_init(const int pin)
# {	
     f30:	          67bdffa0 	daddiu	sp,sp,-96
     f34:	          ffbf0058 	sd	ra,88(sp)
     f38:	          ffbc0050 	sd	gp,80(sp)
     f3c:	          ffb10048 	sd	s1,72(sp)
     f40:	          ffb00040 	sd	s0,64(sp)
     f44:	          3c1c0002 	lui	gp,0x2
     f48:	          0399e02d 	daddu	gp,gp,t9
     f4c:	          679c8a40 	daddiu	gp,gp,-30144
     f50:	          00808025 	move	s0,a0
# 	char path[64];
# 	/* Open GPIO direction for writing */
# 	sprintf(path,"/sys/class/gpio/gpio%d/direction",pin);
     f54:	          00803025 	move	a2,a0
     f58:	          df858040 	ld	a1,-32704(gp)
     f5c:	          64a51520 	daddiu	a1,a1,5408
     f60:	          df998098 	ld	t9,-32616(gp)
     f64:	          0320f809 	jalr	t9
     f68:	          03a02025 	move	a0,sp
# 	printf("Opening Direction file %s\n",path);
     f6c:	          03a02825 	move	a1,sp
     f70:	          df848040 	ld	a0,-32704(gp)
     f74:	          df9980e8 	ld	t9,-32536(gp)
     f78:	          0320f809 	jalr	t9
     f7c:	          64841548 	daddiu	a0,a0,5448
# 	fp = fopen(path,"w");
     f80:	          df858040 	ld	a1,-32704(gp)
     f84:	          64a51568 	daddiu	a1,a1,5480
     f88:	          df9980d8 	ld	t9,-32552(gp)
     f8c:	          0320f809 	jalr	t9
     f90:	          03a02025 	move	a0,sp
     f94:	          df838028 	ld	v1,-32728(gp)
# 	if(!fp)
     f98:	      /-- 1040002c 	beqz	v0,104c <io_init+0x11c>
     f9c:	      |   fc621a90 	sd	v0,6800(v1)
# 			printf("ERROR: Failed to open GPIO direction\n");
# 			exit(-1);
# 		}
# 	}
# 	/* Write direction */
# 	fprintf(fp,"out");
     fa0:	/-----|-> df918028 	ld	s1,-32728(gp)
     fa4:	|     |   de271a90 	ld	a3,6800(s1)
     fa8:	|     |   24060003 	li	a2,3
     fac:	|     |   24050001 	li	a1,1
     fb0:	|     |   df848040 	ld	a0,-32704(gp)
     fb4:	|     |   df9980d0 	ld	t9,-32560(gp)
     fb8:	|     |   0320f809 	jalr	t9
     fbc:	|     |   64841600 	daddiu	a0,a0,5632
# 	fclose(fp);
     fc0:	|     |   df9980a0 	ld	t9,-32608(gp)
     fc4:	|     |   0320f809 	jalr	t9
     fc8:	|     |   de241a90 	ld	a0,6800(s1)
# 	/* Open 'value' file */
# 	sprintf(path,"/sys/class/gpio/gpio%d/value",pin);
     fcc:	|     |   02003025 	move	a2,s0
     fd0:	|     |   df858040 	ld	a1,-32704(gp)
     fd4:	|     |   64a51608 	daddiu	a1,a1,5640
     fd8:	|     |   df998098 	ld	t9,-32616(gp)
     fdc:	|     |   0320f809 	jalr	t9
     fe0:	|     |   03a02025 	move	a0,sp
# 	printf("Opening Value file %s\n",path);
     fe4:	|     |   03a02825 	move	a1,sp
     fe8:	|     |   df848040 	ld	a0,-32704(gp)
     fec:	|     |   df9980e8 	ld	t9,-32536(gp)
     ff0:	|     |   0320f809 	jalr	t9
     ff4:	|     |   64841628 	daddiu	a0,a0,5672
# 	fp = fopen(path,"w");
     ff8:	|     |   df858040 	ld	a1,-32704(gp)
     ffc:	|     |   64a51568 	daddiu	a1,a1,5480
    1000:	|     |   df9980d8 	ld	t9,-32552(gp)
    1004:	|     |   0320f809 	jalr	t9
    1008:	|     |   03a02025 	move	a0,sp
    100c:	|     |   00402825 	move	a1,v0
# 	if(!fp)
    1010:	|  /--|-- 1040003f 	beqz	v0,1110 <io_init+0x1e0>
    1014:	|  |  |   fe221a90 	sd	v0,6800(s1)
# 	{
# 		printf("ERROR: Failed to open GPIO value\n");
# 		exit(-1);
# 	}
# 	/* Initialize LED to off */
# 	fprintf(fp,"0");
    1018:	|  |  |   df9980a8 	ld	t9,-32600(gp)
    101c:	|  |  |   0320f809 	jalr	t9
    1020:	|  |  |   24040030 	li	a0,48
# 	fflush(fp);
    1024:	|  |  |   df828028 	ld	v0,-32728(gp)
    1028:	|  |  |   df9980e0 	ld	t9,-32544(gp)
    102c:	|  |  |   0320f809 	jalr	t9
    1030:	|  |  |   dc441a90 	ld	a0,6800(v0)
# }
    1034:	|  |  |   dfbf0058 	ld	ra,88(sp)
    1038:	|  |  |   dfbc0050 	ld	gp,80(sp)
    103c:	|  |  |   dfb10048 	ld	s1,72(sp)
    1040:	|  |  |   dfb00040 	ld	s0,64(sp)
    1044:	|  |  |   03e00008 	jr	ra
    1048:	|  |  |   67bd0060 	daddiu	sp,sp,96
# 		printf("GPIO not exported yet... doing that\n");
    104c:	|  |  \-> df848040 	ld	a0,-32704(gp)
    1050:	|  |      df9980c8 	ld	t9,-32568(gp)
    1054:	|  |      0320f809 	jalr	t9
    1058:	|  |      64841570 	daddiu	a0,a0,5488
# 		fp = fopen("/sys/class/gpio/export", "w");
    105c:	|  |      df858040 	ld	a1,-32704(gp)
    1060:	|  |      64a51568 	daddiu	a1,a1,5480
    1064:	|  |      df848040 	ld	a0,-32704(gp)
    1068:	|  |      df9980d8 	ld	t9,-32552(gp)
    106c:	|  |      0320f809 	jalr	t9
    1070:	|  |      64841598 	daddiu	a0,a0,5528
    1074:	|  |      00402025 	move	a0,v0
    1078:	|  |      df828028 	ld	v0,-32728(gp)
# 		if(!fp)
    107c:	|  |  /-- 1080001d 	beqz	a0,10f4 <io_init+0x1c4>
    1080:	|  |  |   fc441a90 	sd	a0,6800(v0)
# 		fprintf(fp, "%d", pin);
    1084:	|  |  |   02003025 	move	a2,s0
    1088:	|  |  |   df858040 	ld	a1,-32704(gp)
    108c:	|  |  |   df9980b0 	ld	t9,-32592(gp)
    1090:	|  |  |   0320f809 	jalr	t9
    1094:	|  |  |   64a515d0 	daddiu	a1,a1,5584
# 		fclose(fp);
    1098:	|  |  |   df918028 	ld	s1,-32728(gp)
    109c:	|  |  |   df9980a0 	ld	t9,-32608(gp)
    10a0:	|  |  |   0320f809 	jalr	t9
    10a4:	|  |  |   de241a90 	ld	a0,6800(s1)
# 		printf("Opening Direction file %s\n",path);
    10a8:	|  |  |   03a02825 	move	a1,sp
    10ac:	|  |  |   df848040 	ld	a0,-32704(gp)
    10b0:	|  |  |   df9980e8 	ld	t9,-32536(gp)
    10b4:	|  |  |   0320f809 	jalr	t9
    10b8:	|  |  |   64841548 	daddiu	a0,a0,5448
# 		fp = fopen(path,"w");
    10bc:	|  |  |   df858040 	ld	a1,-32704(gp)
    10c0:	|  |  |   64a51568 	daddiu	a1,a1,5480
    10c4:	|  |  |   df9980d8 	ld	t9,-32552(gp)
    10c8:	|  |  |   0320f809 	jalr	t9
    10cc:	|  |  |   03a02025 	move	a0,sp
# 		if(!fp)
    10d0:	\--|--|-- 1440ffb3 	bnez	v0,fa0 <io_init+0x70>
    10d4:	   |  |   fe221a90 	sd	v0,6800(s1)
# 			printf("ERROR: Failed to open GPIO direction\n");
    10d8:	   |  |   df848040 	ld	a0,-32704(gp)
    10dc:	   |  |   df9980c8 	ld	t9,-32568(gp)
    10e0:	   |  |   0320f809 	jalr	t9
    10e4:	   |  |   648415d8 	daddiu	a0,a0,5592
# 			exit(-1);
    10e8:	   |  |   df9980b8 	ld	t9,-32584(gp)
    10ec:	   |  |   0320f809 	jalr	t9
    10f0:	   |  |   2404ffff 	li	a0,-1
# 			printf("ERROR: Failed to export IO\n");
    10f4:	   |  \-> df848040 	ld	a0,-32704(gp)
    10f8:	   |      df9980c8 	ld	t9,-32568(gp)
    10fc:	   |      0320f809 	jalr	t9
    1100:	   |      648415b0 	daddiu	a0,a0,5552
# 			exit(-1);
    1104:	   |      df9980b8 	ld	t9,-32584(gp)
    1108:	   |      0320f809 	jalr	t9
    110c:	   |      2404ffff 	li	a0,-1
# 		printf("ERROR: Failed to open GPIO value\n");
    1110:	   \----> df848040 	ld	a0,-32704(gp)
    1114:	          df9980c8 	ld	t9,-32568(gp)
    1118:	          0320f809 	jalr	t9
    111c:	          64841640 	daddiu	a0,a0,5696
# 		exit(-1);
    1120:	          df9980b8 	ld	t9,-32584(gp)
    1124:	          0320f809 	jalr	t9
    1128:	          2404ffff 	li	a0,-1

000000000000112c <io_write>:
# 
# void io_write(bool status)
# {
    112c:	       67bdfff0 	daddiu	sp,sp,-16
    1130:	       ffbf0008 	sd	ra,8(sp)
    1134:	       ffbc0000 	sd	gp,0(sp)
    1138:	       3c1c0002 	lui	gp,0x2
    113c:	       0399e02d 	daddu	gp,gp,t9
    1140:	       679c8844 	daddiu	gp,gp,-30652
# 	fprintf(fp,(status) ? "1" : "0");
    1144:	       df828028 	ld	v0,-32728(gp)
    1148:	/----- 1080000e 	beqz	a0,1184 <io_write+0x58>
    114c:	|      dc421a90 	ld	v0,6800(v0)
    1150:	|      df858040 	ld	a1,-32704(gp)
    1154:	|      64a51668 	daddiu	a1,a1,5736
    1158:	|  /-> df9980b0 	ld	t9,-32592(gp)
    115c:	|  |   0320f809 	jalr	t9
    1160:	|  |   00402025 	move	a0,v0
# 	fflush(fp);
    1164:	|  |   df828028 	ld	v0,-32728(gp)
    1168:	|  |   df9980e0 	ld	t9,-32544(gp)
    116c:	|  |   0320f809 	jalr	t9
    1170:	|  |   dc441a90 	ld	a0,6800(v0)
# }
    1174:	|  |   dfbf0008 	ld	ra,8(sp)
    1178:	|  |   dfbc0000 	ld	gp,0(sp)
    117c:	|  |   03e00008 	jr	ra
    1180:	|  |   67bd0010 	daddiu	sp,sp,16
# 	fprintf(fp,(status) ? "1" : "0");
    1184:	\--|-> df858040 	ld	a1,-32704(gp)
    1188:	   \-- 1000fff3 	b	1158 <io_write+0x2c>
    118c:	       64a51670 	daddiu	a1,a1,5744

0000000000001190 <fsleep>:
# 
# /* Float sleep function */
# void fsleep(double dur)
# {
    1190:	67bdffe0 	daddiu	sp,sp,-32
    1194:	ffbf0018 	sd	ra,24(sp)
    1198:	ffbc0010 	sd	gp,16(sp)
    119c:	3c1c0002 	lui	gp,0x2
    11a0:	0399e02d 	daddu	gp,gp,t9
    11a4:	679c87e0 	daddiu	gp,gp,-30752
# 	struct timespec tim;
#    	tim.tv_sec = 0;
    11a8:	ffa00000 	sd	zero,0(sp)
#    	tim.tv_nsec = dur * 1000000000.0;
    11ac:	df828040 	ld	v0,-32704(gp)
    11b0:	d44017e8 	ldc1	$f0,6120(v0)
    11b4:	46206302 	mul.d	$f12,$f12,$f0
    11b8:	46206009 	trunc.l.d	$f0,$f12
    11bc:	f7a00008 	sdc1	$f0,8(sp)
# 	nanosleep(&tim , NULL);
    11c0:	00002825 	move	a1,zero
    11c4:	df998090 	ld	t9,-32624(gp)
    11c8:	0320f809 	jalr	t9
    11cc:	03a02025 	move	a0,sp
# }
    11d0:	dfbf0018 	ld	ra,24(sp)
    11d4:	dfbc0010 	ld	gp,16(sp)
    11d8:	03e00008 	jr	ra
    11dc:	67bd0020 	daddiu	sp,sp,32

00000000000011e0 <morse_letter>:
#     "----.", //9
# };
# 
# /* Function is only correct for letters and numbers, nothing else */
# void morse_letter(const char let)
# {
    11e0:	                   67bdffb0 	daddiu	sp,sp,-80
    11e4:	                   ffbf0028 	sd	ra,40(sp)
    11e8:	                   ffbc0020 	sd	gp,32(sp)
    11ec:	                   ffb30018 	sd	s3,24(sp)
    11f0:	                   ffb20010 	sd	s2,16(sp)
    11f4:	                   ffb10008 	sd	s1,8(sp)
    11f8:	                   ffb00000 	sd	s0,0(sp)
    11fc:	                   f7ba0048 	sdc1	$f26,72(sp)
    1200:	                   f7b90040 	sdc1	$f25,64(sp)
    1204:	                   f7b80038 	sdc1	$f24,56(sp)
    1208:	                   3c1c0002 	lui	gp,0x2
    120c:	                   0399e02d 	daddu	gp,gp,t9
# 	/* If it's a space, wait the space time and exit */
# 	if(let == ' ')
    1210:	                   24020020 	li	v0,32
    1214:	               /-- 1082001c 	beq	a0,v0,1288 <morse_letter+0xa8>
    1218:	               |   679c8790 	daddiu	gp,gp,-30832
# 		return;
# 	}
# 
# 	/* Find the string from the table */
# 	const char * pattern = ".";//Initialize to ensure it's always valid
# 	if(let >= '0' && let <= '9')
    121c:	               |   2482ffd0 	addiu	v0,a0,-48
    1220:	               |   304200ff 	andi	v0,v0,0xff
    1224:	               |   2c42000a 	sltiu	v0,v0,10
    1228:	         /-----|-- 10400021 	beqz	v0,12b0 <morse_letter+0xd0>
    122c:	         |     |   00802825 	move	a1,a0
# 	{
# 		pattern = morse_tbl[let - '0' + 26]; //For numbers
    1230:	         |     |   2482ffea 	addiu	v0,a0,-22
    1234:	         |     |   000210f8 	dsll	v0,v0,0x3
    1238:	         |     |   df838028 	ld	v1,-32728(gp)
    123c:	         |     |   64631838 	daddiu	v1,v1,6200
    1240:	         |     |   0043102d 	daddu	v0,v0,v1
    1244:	         |     |   dc500000 	ld	s0,0(v0)
# 	else 
# 	{
# 		printf("Invalid Letter %c\n",let);
# 		return;
# 	}
# 	printf("Letter %c to morse %s\n",let,pattern);
    1248:	         |  /--|-> 02003025 	move	a2,s0
    124c:	         |  |  |   df848040 	ld	a0,-32704(gp)
    1250:	         |  |  |   df9980e8 	ld	t9,-32536(gp)
    1254:	         |  |  |   0320f809 	jalr	t9
    1258:	         |  |  |   64841680 	daddiu	a0,a0,5760
# 
# 	/* Loop through remaining symbols and output them */
# 	while(pattern[0])
    125c:	         |  |  |   82020000 	lb	v0,0(s0)
    1260:	/--------|--|--|-- 10400031 	beqz	v0,1328 <morse_letter+0x148>
    1264:	|        |  |  |   df918048 	ld	s1,-32696(gp)
# 	{
# 		/* Turn on output */
# 		io_write(1);
# 		/* Output on-time */
# 		if(pattern[0] == '.')
    1268:	|        |  |  |   2413002e 	li	s3,46
# 		{
# 			fsleep(time_dit);
# 		}
# 		else
# 		{
# 			fsleep(time_dah);
    126c:	|        |  |  |   df828040 	ld	v0,-32704(gp)
    1270:	|        |  |  |   d4591800 	ldc1	$f25,6144(v0)
    1274:	|        |  |  |   df928050 	ld	s2,-32688(gp)
# 			fsleep(time_dit);
    1278:	|        |  |  |   df828040 	ld	v0,-32704(gp)
    127c:	|        |  |  |   d45a17f8 	ldc1	$f26,6136(v0)
# 		}
# 		/* Turn off output and wait off-time */
# 		io_write(0);
# 		fsleep(time_space);
    1280:	|     /--|--|--|-- 1000001f 	b	1300 <morse_letter+0x120>
    1284:	|     |  |  |  |   4620d606 	mov.d	$f24,$f26
# 		printf("Space\n");
    1288:	|     |  |  |  \-> df848040 	ld	a0,-32704(gp)
    128c:	|     |  |  |      df9980c8 	ld	t9,-32568(gp)
    1290:	|     |  |  |      0320f809 	jalr	t9
    1294:	|     |  |  |      64841678 	daddiu	a0,a0,5752
# 		fsleep(time_word);
    1298:	|     |  |  |      df828040 	ld	v0,-32704(gp)
    129c:	|     |  |  |      df998050 	ld	t9,-32688(gp)
    12a0:	|     |  |  |      0411ffbb 	bal	1190 <fsleep>
    12a4:	|     |  |  |      d44c17f0 	ldc1	$f12,6128(v0)
# 		return;
    12a8:	|  /--|--|--|----- 10000024 	b	133c <morse_letter+0x15c>
    12ac:	|  |  |  |  |      dfbf0028 	ld	ra,40(sp)
# 		pattern = morse_tbl[(let & 0x1F) - 1]; //For letters
    12b0:	|  |  |  \--|----> 3082001f 	andi	v0,a0,0x1f
    12b4:	|  |  |     |      2442ffff 	addiu	v0,v0,-1
    12b8:	|  |  |     |      000210f8 	dsll	v0,v0,0x3
    12bc:	|  |  |     |      df838028 	ld	v1,-32728(gp)
    12c0:	|  |  |     |      64631838 	daddiu	v1,v1,6200
    12c4:	|  |  |     |      0043102d 	daddu	v0,v0,v1
    12c8:	|  |  |     \----- 1000ffdf 	b	1248 <morse_letter+0x68>
    12cc:	|  |  |            dc500000 	ld	s0,0(v0)
# 			fsleep(time_dit);
    12d0:	|  |  |     /----> 0411ffaf 	bal	1190 <fsleep>
    12d4:	|  |  |     |      4620d306 	mov.d	$f12,$f26
# 		io_write(0);
    12d8:	|  |  |     |      0220c825 	move	t9,s1
    12dc:	|  |  |  /--|----> 0411ff93 	bal	112c <io_write>
    12e0:	|  |  |  |  |      00002025 	move	a0,zero
# 		fsleep(time_space);
    12e4:	|  |  |  |  |      0240c825 	move	t9,s2
    12e8:	|  |  |  |  |      0411ffa9 	bal	1190 <fsleep>
    12ec:	|  |  |  |  |      4620c306 	mov.d	$f12,$f24
# 		/* Increment pointer */
# 		pattern++;
    12f0:	|  |  |  |  |      66100001 	daddiu	s0,s0,1
# 	while(pattern[0])
    12f4:	|  |  |  |  |      82020000 	lb	v0,0(s0)
    12f8:	|  |  |  |  |  /-- 1040000c 	beqz	v0,132c <morse_letter+0x14c>
    12fc:	|  |  |  |  |  |   df828040 	ld	v0,-32704(gp)
# 		io_write(1);
    1300:	|  |  \--|--|--|-> 0220c825 	move	t9,s1
    1304:	|  |     |  |  |   0411ff89 	bal	112c <io_write>
    1308:	|  |     |  |  |   24040001 	li	a0,1
# 		if(pattern[0] == '.')
    130c:	|  |     |  |  |   82020000 	lb	v0,0(s0)
    1310:	|  |     |  \--|-- 1053ffef 	beq	v0,s3,12d0 <morse_letter+0xf0>
    1314:	|  |     |     |   0240c825 	move	t9,s2
# 			fsleep(time_dah);
    1318:	|  |     |     |   0411ff9d 	bal	1190 <fsleep>
    131c:	|  |     |     |   4620cb06 	mov.d	$f12,$f25
# 		io_write(0);
    1320:	|  |     \-----|-- 1000ffee 	b	12dc <morse_letter+0xfc>
    1324:	|  |           |   0220c825 	move	t9,s1
# 	};
# 	/* Wait additional character delay */
# 	fsleep(time_letter);
    1328:	\--|-----------|-> df828040 	ld	v0,-32704(gp)
    132c:	   |           \-> df998050 	ld	t9,-32688(gp)
    1330:	   |               0411ff97 	bal	1190 <fsleep>
    1334:	   |               d44c1808 	ldc1	$f12,6152(v0)
# }
    1338:	   |               dfbf0028 	ld	ra,40(sp)
    133c:	   \-------------> dfbc0020 	ld	gp,32(sp)
    1340:	                   dfb30018 	ld	s3,24(sp)
    1344:	                   dfb20010 	ld	s2,16(sp)
    1348:	                   dfb10008 	ld	s1,8(sp)
    134c:	                   dfb00000 	ld	s0,0(sp)
    1350:	                   d7ba0048 	ldc1	$f26,72(sp)
    1354:	                   d7b90040 	ldc1	$f25,64(sp)
    1358:	                   d7b80038 	ldc1	$f24,56(sp)
    135c:	                   03e00008 	jr	ra
    1360:	                   67bd0050 	daddiu	sp,sp,80

0000000000001364 <morse>:
# 
# /* Output a string in morse code */
# void morse(const char * string)
# {
    1364:	       67bdffe0 	daddiu	sp,sp,-32
    1368:	       ffbf0018 	sd	ra,24(sp)
    136c:	       ffbc0010 	sd	gp,16(sp)
    1370:	       ffb10008 	sd	s1,8(sp)
    1374:	       ffb00000 	sd	s0,0(sp)
    1378:	       3c1c0002 	lui	gp,0x2
    137c:	       0399e02d 	daddu	gp,gp,t9
    1380:	       00808025 	move	s0,a0
# 	/* Output all letters in the string */
# 	while(string[0])
    1384:	       80840000 	lb	a0,0(a0)
    1388:	/----- 10800008 	beqz	a0,13ac <morse+0x48>
    138c:	|      679c860c 	daddiu	gp,gp,-31220
# 	{
# 		morse_letter(string[0]);
    1390:	|      df918058 	ld	s1,-32680(gp)
    1394:	|      0220c825 	move	t9,s1
    1398:	|  /-> 0411ff91 	bal	11e0 <morse_letter>
    139c:	|  |   66100001 	daddiu	s0,s0,1
# 	while(string[0])
    13a0:	|  |   82040000 	lb	a0,0(s0)
    13a4:	|  \-- 1480fffc 	bnez	a0,1398 <morse+0x34>
    13a8:	|      0220c825 	move	t9,s1
# 		string++;
# 	}
# }
    13ac:	\----> dfbf0018 	ld	ra,24(sp)
    13b0:	       dfbc0010 	ld	gp,16(sp)
    13b4:	       dfb10008 	ld	s1,8(sp)
    13b8:	       dfb00000 	ld	s0,0(sp)
    13bc:	       03e00008 	jr	ra
    13c0:	       67bd0020 	daddiu	sp,sp,32

00000000000013c4 <main>:
# int main (int argc, char** argv) {
    13c4:	67bdfff0 	daddiu	sp,sp,-16
    13c8:	ffbf0008 	sd	ra,8(sp)
    13cc:	ffbc0000 	sd	gp,0(sp)
    13d0:	3c1c0002 	lui	gp,0x2
    13d4:	0399e02d 	daddu	gp,gp,t9
    13d8:	679c85ac 	daddiu	gp,gp,-31316
# 
#     printf("Hello from RISC-V!\n");
    13dc:	df848040 	ld	a0,-32704(gp)
    13e0:	df9980c8 	ld	t9,-32568(gp)
    13e4:	0320f809 	jalr	t9
    13e8:	64841698 	daddiu	a0,a0,5784
# 	io_init(blinky);
    13ec:	df998060 	ld	t9,-32672(gp)
    13f0:	0411fecf 	bal	f30 <io_init>
    13f4:	240401b8 	li	a0,440
# 	morse("Hello World from RISC V");
    13f8:	df848040 	ld	a0,-32704(gp)
    13fc:	df998068 	ld	t9,-32664(gp)
    1400:	0411ffd8 	bal	1364 <morse>
    1404:	648416b0 	daddiu	a0,a0,5808
#     return 0;
    1408:	00001025 	move	v0,zero
    140c:	dfbf0008 	ld	ra,8(sp)
    1410:	dfbc0000 	ld	gp,0(sp)
    1414:	03e00008 	jr	ra
    1418:	67bd0010 	daddiu	sp,sp,16
    141c:	00000000 	nop

Disassembly of section .fini:

00000000000014f0 <_fini>:
    14f0:	67bdfff0 	daddiu	sp,sp,-16
    14f4:	ffbc0000 	sd	gp,0(sp)
    14f8:	3c1c0002 	lui	gp,0x2
    14fc:	0399e02d 	daddu	gp,gp,t9
    1500:	ffbf0008 	sd	ra,8(sp)
    1504:	679c8480 	daddiu	gp,gp,-31616
    1508:	dfbf0008 	ld	ra,8(sp)
    150c:	dfbc0000 	ld	gp,0(sp)
    1510:	03e00008 	jr	ra
    1514:	67bd0010 	daddiu	sp,sp,16
Contents of the .eh_frame section (loaded from a.out):


00000000 ZERO terminator


Contents of the .debug_aranges section (loaded from a.out):

  Length:                   44
  Version:                  2
  Offset into .debug_info:  0
  Pointer Size:             8
  Segment Size:             0

    Address            Length
    0000000000000f30 00000000000004ec
    0000000000000000 0000000000000000

Contents of the .debug_info section (loaded from a.out):

  Compilation Unit @ offset 0:
   Length:        0xa6d (32-bit)
   Version:       5
   Unit Type:     DW_UT_compile (1)
   Abbrev Offset: 0
   Pointer Size:  8
 <0><c>: Abbrev Number: 26 (DW_TAG_compile_unit)
    <d>   DW_AT_producer    : (indirect string, offset: 0x114): GNU C99 12.2.0 -meb -march=mips64r2 -mllsc -mips64r2 -mabi=64 -g -O1 -std=gnu99
    <11>   DW_AT_language    : 12	(ANSI C99)
    <12>   DW_AT_name        : (indirect string, offset: 0xdb): ../morse.c
    <16>   DW_AT_comp_dir    : (indirect string, offset: 0x269): /root/hello-world/mips64-linux-gnu
    <1a>   DW_AT_low_pc      : 0xf30
    <22>   DW_AT_high_pc     : 0x4ec
    <2a>   DW_AT_stmt_list   : 0
 <1><2e>: Abbrev Number: 4 (DW_TAG_base_type)
    <2f>   DW_AT_byte_size   : 8
    <30>   DW_AT_encoding    : 4	(float)
    <31>   DW_AT_name        : (indirect string, offset: 0xf2): double
 <1><35>: Abbrev Number: 8 (DW_TAG_typedef)
    <36>   DW_AT_name        : (indirect string, offset: 0x26): size_t
    <3a>   DW_AT_decl_file   : 2
    <3b>   DW_AT_decl_line   : 214
    <3c>   DW_AT_decl_column : 23
    <3d>   DW_AT_type        : <0x41>
 <1><41>: Abbrev Number: 4 (DW_TAG_base_type)
    <42>   DW_AT_byte_size   : 8
    <43>   DW_AT_encoding    : 7	(unsigned)
    <44>   DW_AT_name        : (indirect string, offset: 0x55): long unsigned int
 <1><48>: Abbrev Number: 4 (DW_TAG_base_type)
    <49>   DW_AT_byte_size   : 1
    <4a>   DW_AT_encoding    : 8	(unsigned char)
    <4b>   DW_AT_name        : (indirect string, offset: 0x2c9): unsigned char
 <1><4f>: Abbrev Number: 4 (DW_TAG_base_type)
    <50>   DW_AT_byte_size   : 2
    <51>   DW_AT_encoding    : 7	(unsigned)
    <52>   DW_AT_name        : (indirect string, offset: 0x192): short unsigned int
 <1><56>: Abbrev Number: 4 (DW_TAG_base_type)
    <57>   DW_AT_byte_size   : 4
    <58>   DW_AT_encoding    : 7	(unsigned)
    <59>   DW_AT_name        : (indirect string, offset: 0x5a): unsigned int
 <1><5d>: Abbrev Number: 4 (DW_TAG_base_type)
    <5e>   DW_AT_byte_size   : 1
    <5f>   DW_AT_encoding    : 6	(signed char)
    <60>   DW_AT_name        : (indirect string, offset: 0x2cb): signed char
 <1><64>: Abbrev Number: 4 (DW_TAG_base_type)
    <65>   DW_AT_byte_size   : 2
    <66>   DW_AT_encoding    : 5	(signed)
    <67>   DW_AT_name        : (indirect string, offset: 0x2d7): short int
 <1><6b>: Abbrev Number: 27 (DW_TAG_base_type)
    <6c>   DW_AT_byte_size   : 4
    <6d>   DW_AT_encoding    : 5	(signed)
    <6e>   DW_AT_name        : int
 <1><72>: Abbrev Number: 13 (DW_TAG_const_type)
    <73>   DW_AT_type        : <0x6b>
 <1><77>: Abbrev Number: 4 (DW_TAG_base_type)
    <78>   DW_AT_byte_size   : 8
    <79>   DW_AT_encoding    : 5	(signed)
    <7a>   DW_AT_name        : (indirect string, offset: 0x76): long int
 <1><7e>: Abbrev Number: 8 (DW_TAG_typedef)
    <7f>   DW_AT_name        : (indirect string, offset: 0): __off_t
    <83>   DW_AT_decl_file   : 3
    <84>   DW_AT_decl_line   : 152
    <85>   DW_AT_decl_column : 25
    <86>   DW_AT_type        : <0x77>
 <1><8a>: Abbrev Number: 8 (DW_TAG_typedef)
    <8b>   DW_AT_name        : (indirect string, offset: 0x329): __off64_t
    <8f>   DW_AT_decl_file   : 3
    <90>   DW_AT_decl_line   : 153
    <91>   DW_AT_decl_column : 27
    <92>   DW_AT_type        : <0x77>
 <1><96>: Abbrev Number: 8 (DW_TAG_typedef)
    <97>   DW_AT_name        : (indirect string, offset: 0x35c): __time_t
    <9b>   DW_AT_decl_file   : 3
    <9c>   DW_AT_decl_line   : 160
    <9d>   DW_AT_decl_column : 26
    <9e>   DW_AT_type        : <0x77>
 <1><a2>: Abbrev Number: 28 (DW_TAG_pointer_type)
    <a3>   DW_AT_byte_size   : 8
 <1><a4>: Abbrev Number: 8 (DW_TAG_typedef)
    <a5>   DW_AT_name        : (indirect string, offset: 0x20f): __syscall_slong_t
    <a9>   DW_AT_decl_file   : 3
    <aa>   DW_AT_decl_line   : 197
    <ab>   DW_AT_decl_column : 33
    <ac>   DW_AT_type        : <0x77>
 <1><b0>: Abbrev Number: 6 (DW_TAG_pointer_type)
    <b1>   DW_AT_byte_size   : 8
    <b1>   DW_AT_type        : <0xb5>
 <1><b5>: Abbrev Number: 4 (DW_TAG_base_type)
    <b6>   DW_AT_byte_size   : 1
    <b7>   DW_AT_encoding    : 6	(signed char)
    <b8>   DW_AT_name        : (indirect string, offset: 0x2d2): char
 <1><bc>: Abbrev Number: 13 (DW_TAG_const_type)
    <bd>   DW_AT_type        : <0xb5>
 <1><c1>: Abbrev Number: 21 (DW_TAG_structure_type)
    <c2>   DW_AT_name        : (indirect string, offset: 0x24c): _IO_FILE
    <c6>   DW_AT_byte_size   : 216
    <c7>   DW_AT_decl_file   : 4
    <c8>   DW_AT_decl_line   : 49
    <c9>   DW_AT_decl_column : 8
    <c9>   DW_AT_sibling     : <0x247>
 <2><cd>: Abbrev Number: 2 (DW_TAG_member)
    <ce>   DW_AT_name        : (indirect string, offset: 0xbc): _flags
    <d2>   DW_AT_decl_file   : 4
    <d3>   DW_AT_decl_line   : 51
    <d4>   DW_AT_decl_column : 7
    <d5>   DW_AT_type        : <0x6b>
    <d9>   DW_AT_data_member_location: 0
 <2><da>: Abbrev Number: 2 (DW_TAG_member)
    <db>   DW_AT_name        : (indirect string, offset: 0x8): _IO_read_ptr
    <df>   DW_AT_decl_file   : 4
    <e0>   DW_AT_decl_line   : 54
    <e1>   DW_AT_decl_column : 9
    <e2>   DW_AT_type        : <0xb0>
    <e6>   DW_AT_data_member_location: 8
 <2><e7>: Abbrev Number: 2 (DW_TAG_member)
    <e8>   DW_AT_name        : (indirect string, offset: 0xaf): _IO_read_end
    <ec>   DW_AT_decl_file   : 4
    <ed>   DW_AT_decl_line   : 55
    <ee>   DW_AT_decl_column : 9
    <ef>   DW_AT_type        : <0xb0>
    <f3>   DW_AT_data_member_location: 16
 <2><f4>: Abbrev Number: 2 (DW_TAG_member)
    <f5>   DW_AT_name        : (indirect string, offset: 0x333): _IO_read_base
    <f9>   DW_AT_decl_file   : 4
    <fa>   DW_AT_decl_line   : 56
    <fb>   DW_AT_decl_column : 9
    <fc>   DW_AT_type        : <0xb0>
    <100>   DW_AT_data_member_location: 24
 <2><101>: Abbrev Number: 2 (DW_TAG_member)
    <102>   DW_AT_name        : (indirect string, offset: 0x3a2): _IO_write_base
    <106>   DW_AT_decl_file   : 4
    <107>   DW_AT_decl_line   : 57
    <108>   DW_AT_decl_column : 9
    <109>   DW_AT_type        : <0xb0>
    <10d>   DW_AT_data_member_location: 32
 <2><10e>: Abbrev Number: 2 (DW_TAG_member)
    <10f>   DW_AT_name        : (indirect string, offset: 0x184): _IO_write_ptr
    <113>   DW_AT_decl_file   : 4
    <114>   DW_AT_decl_line   : 58
    <115>   DW_AT_decl_column : 9
    <116>   DW_AT_type        : <0xb0>
    <11a>   DW_AT_data_member_location: 40
 <2><11b>: Abbrev Number: 2 (DW_TAG_member)
    <11c>   DW_AT_name        : (indirect string, offset: 0x221): _IO_write_end
    <120>   DW_AT_decl_file   : 4
    <121>   DW_AT_decl_line   : 59
    <122>   DW_AT_decl_column : 9
    <123>   DW_AT_type        : <0xb0>
    <127>   DW_AT_data_member_location: 48
 <2><128>: Abbrev Number: 2 (DW_TAG_member)
    <129>   DW_AT_name        : (indirect string, offset: 0x43): _IO_buf_base
    <12d>   DW_AT_decl_file   : 4
    <12e>   DW_AT_decl_line   : 60
    <12f>   DW_AT_decl_column : 9
    <130>   DW_AT_type        : <0xb0>
    <134>   DW_AT_data_member_location: 56
 <2><135>: Abbrev Number: 2 (DW_TAG_member)
    <136>   DW_AT_name        : (indirect string, offset: 0xc3): _IO_buf_end
    <13a>   DW_AT_decl_file   : 4
    <13b>   DW_AT_decl_line   : 61
    <13c>   DW_AT_decl_column : 9
    <13d>   DW_AT_type        : <0xb0>
    <141>   DW_AT_data_member_location: 64
 <2><142>: Abbrev Number: 2 (DW_TAG_member)
    <143>   DW_AT_name        : (indirect string, offset: 0x1a5): _IO_save_base
    <147>   DW_AT_decl_file   : 4
    <148>   DW_AT_decl_line   : 64
    <149>   DW_AT_decl_column : 9
    <14a>   DW_AT_type        : <0xb0>
    <14e>   DW_AT_data_member_location: 72
 <2><14f>: Abbrev Number: 2 (DW_TAG_member)
    <150>   DW_AT_name        : (indirect string, offset: 0x37a): _IO_backup_base
    <154>   DW_AT_decl_file   : 4
    <155>   DW_AT_decl_line   : 65
    <156>   DW_AT_decl_column : 9
    <157>   DW_AT_type        : <0xb0>
    <15b>   DW_AT_data_member_location: 80
 <2><15c>: Abbrev Number: 2 (DW_TAG_member)
    <15d>   DW_AT_name        : (indirect string, offset: 0x341): _IO_save_end
    <161>   DW_AT_decl_file   : 4
    <162>   DW_AT_decl_line   : 66
    <163>   DW_AT_decl_column : 9
    <164>   DW_AT_type        : <0xb0>
    <168>   DW_AT_data_member_location: 88
 <2><169>: Abbrev Number: 2 (DW_TAG_member)
    <16a>   DW_AT_name        : (indirect string, offset: 0x299): _markers
    <16e>   DW_AT_decl_file   : 4
    <16f>   DW_AT_decl_line   : 68
    <170>   DW_AT_decl_column : 22
    <171>   DW_AT_type        : <0x260>
    <175>   DW_AT_data_member_location: 96
 <2><176>: Abbrev Number: 2 (DW_TAG_member)
    <177>   DW_AT_name        : (indirect string, offset: 0x15): _chain
    <17b>   DW_AT_decl_file   : 4
    <17c>   DW_AT_decl_line   : 70
    <17d>   DW_AT_decl_column : 20
    <17e>   DW_AT_type        : <0x265>
    <182>   DW_AT_data_member_location: 104
 <2><183>: Abbrev Number: 2 (DW_TAG_member)
    <184>   DW_AT_name        : (indirect string, offset: 0x97): _fileno
    <188>   DW_AT_decl_file   : 4
    <189>   DW_AT_decl_line   : 72
    <18a>   DW_AT_decl_column : 7
    <18b>   DW_AT_type        : <0x6b>
    <18f>   DW_AT_data_member_location: 112
 <2><190>: Abbrev Number: 2 (DW_TAG_member)
    <191>   DW_AT_name        : (indirect string, offset: 0x1b9): _flags2
    <195>   DW_AT_decl_file   : 4
    <196>   DW_AT_decl_line   : 73
    <197>   DW_AT_decl_column : 7
    <198>   DW_AT_type        : <0x6b>
    <19c>   DW_AT_data_member_location: 116
 <2><19d>: Abbrev Number: 2 (DW_TAG_member)
    <19e>   DW_AT_name        : (indirect string, offset: 0xf9): _old_offset
    <1a2>   DW_AT_decl_file   : 4
    <1a3>   DW_AT_decl_line   : 74
    <1a4>   DW_AT_decl_column : 11
    <1a5>   DW_AT_type        : <0x7e>
    <1a9>   DW_AT_data_member_location: 120
 <2><1aa>: Abbrev Number: 2 (DW_TAG_member)
    <1ab>   DW_AT_name        : (indirect string, offset: 0xcf): _cur_column
    <1af>   DW_AT_decl_file   : 4
    <1b0>   DW_AT_decl_line   : 77
    <1b1>   DW_AT_decl_column : 18
    <1b2>   DW_AT_type        : <0x4f>
    <1b6>   DW_AT_data_member_location: 128
 <2><1b7>: Abbrev Number: 2 (DW_TAG_member)
    <1b8>   DW_AT_name        : (indirect string, offset: 0x302): _vtable_offset
    <1bc>   DW_AT_decl_file   : 4
    <1bd>   DW_AT_decl_line   : 78
    <1be>   DW_AT_decl_column : 15
    <1bf>   DW_AT_type        : <0x5d>
    <1c3>   DW_AT_data_member_location: 130
 <2><1c4>: Abbrev Number: 2 (DW_TAG_member)
    <1c5>   DW_AT_name        : (indirect string, offset: 0x2d): _shortbuf
    <1c9>   DW_AT_decl_file   : 4
    <1ca>   DW_AT_decl_line   : 79
    <1cb>   DW_AT_decl_column : 8
    <1cc>   DW_AT_type        : <0x26a>
    <1d0>   DW_AT_data_member_location: 131
 <2><1d1>: Abbrev Number: 2 (DW_TAG_member)
    <1d2>   DW_AT_name        : (indirect string, offset: 0x1b3): _lock
    <1d6>   DW_AT_decl_file   : 4
    <1d7>   DW_AT_decl_line   : 81
    <1d8>   DW_AT_decl_column : 15
    <1d9>   DW_AT_type        : <0x27a>
    <1dd>   DW_AT_data_member_location: 136
 <2><1de>: Abbrev Number: 2 (DW_TAG_member)
    <1df>   DW_AT_name        : (indirect string, offset: 0xfd): _offset
    <1e3>   DW_AT_decl_file   : 4
    <1e4>   DW_AT_decl_line   : 89
    <1e5>   DW_AT_decl_column : 13
    <1e6>   DW_AT_type        : <0x8a>
    <1ea>   DW_AT_data_member_location: 144
 <2><1eb>: Abbrev Number: 2 (DW_TAG_member)
    <1ec>   DW_AT_name        : (indirect string, offset: 0xe9): _codecvt
    <1f0>   DW_AT_decl_file   : 4
    <1f1>   DW_AT_decl_line   : 91
    <1f2>   DW_AT_decl_column : 23
    <1f3>   DW_AT_type        : <0x284>
    <1f7>   DW_AT_data_member_location: 152
 <2><1f8>: Abbrev Number: 2 (DW_TAG_member)
    <1f9>   DW_AT_name        : (indirect string, offset: 0x2e4): _wide_data
    <1fd>   DW_AT_decl_file   : 4
    <1fe>   DW_AT_decl_line   : 92
    <1ff>   DW_AT_decl_column : 25
    <200>   DW_AT_type        : <0x28e>
    <204>   DW_AT_data_member_location: 160
 <2><205>: Abbrev Number: 2 (DW_TAG_member)
    <206>   DW_AT_name        : (indirect string, offset: 0x38f): _freeres_list
    <20a>   DW_AT_decl_file   : 4
    <20b>   DW_AT_decl_line   : 93
    <20c>   DW_AT_decl_column : 20
    <20d>   DW_AT_type        : <0x265>
    <211>   DW_AT_data_member_location: 168
 <2><212>: Abbrev Number: 2 (DW_TAG_member)
    <213>   DW_AT_name        : (indirect string, offset: 0x177): _freeres_buf
    <217>   DW_AT_decl_file   : 4
    <218>   DW_AT_decl_line   : 94
    <219>   DW_AT_decl_column : 9
    <21a>   DW_AT_type        : <0xa2>
    <21e>   DW_AT_data_member_location: 176
 <2><21f>: Abbrev Number: 2 (DW_TAG_member)
    <220>   DW_AT_name        : (indirect string, offset: 0x355): __pad5
    <224>   DW_AT_decl_file   : 4
    <225>   DW_AT_decl_line   : 95
    <226>   DW_AT_decl_column : 10
    <227>   DW_AT_type        : <0x35>
    <22b>   DW_AT_data_member_location: 184
 <2><22c>: Abbrev Number: 2 (DW_TAG_member)
    <22d>   DW_AT_name        : (indirect string, offset: 0x1c1): _mode
    <231>   DW_AT_decl_file   : 4
    <232>   DW_AT_decl_line   : 96
    <233>   DW_AT_decl_column : 7
    <234>   DW_AT_type        : <0x6b>
    <238>   DW_AT_data_member_location: 192
 <2><239>: Abbrev Number: 2 (DW_TAG_member)
    <23a>   DW_AT_name        : (indirect string, offset: 0x365): _unused2
    <23e>   DW_AT_decl_file   : 4
    <23f>   DW_AT_decl_line   : 98
    <240>   DW_AT_decl_column : 8
    <241>   DW_AT_type        : <0x293>
    <245>   DW_AT_data_member_location: 196
 <2><246>: Abbrev Number: 0
 <1><247>: Abbrev Number: 8 (DW_TAG_typedef)
    <248>   DW_AT_name        : (indirect string, offset: 0x250): FILE
    <24c>   DW_AT_decl_file   : 5
    <24d>   DW_AT_decl_line   : 7
    <24e>   DW_AT_decl_column : 25
    <24f>   DW_AT_type        : <0xc1>
 <1><253>: Abbrev Number: 29 (DW_TAG_typedef)
    <254>   DW_AT_name        : (indirect string, offset: 0x238): _IO_lock_t
    <258>   DW_AT_decl_file   : 4
    <259>   DW_AT_decl_line   : 43
    <25a>   DW_AT_decl_column : 14
 <1><25b>: Abbrev Number: 18 (DW_TAG_structure_type)
    <25c>   DW_AT_name        : (indirect string, offset: 0x16c): _IO_marker
    <260>   DW_AT_declaration : 1
 <1><260>: Abbrev Number: 6 (DW_TAG_pointer_type)
    <261>   DW_AT_byte_size   : 8
    <261>   DW_AT_type        : <0x25b>
 <1><265>: Abbrev Number: 6 (DW_TAG_pointer_type)
    <266>   DW_AT_byte_size   : 8
    <266>   DW_AT_type        : <0xc1>
 <1><26a>: Abbrev Number: 14 (DW_TAG_array_type)
    <26b>   DW_AT_type        : <0xb5>
    <26f>   DW_AT_sibling     : <0x27a>
 <2><273>: Abbrev Number: 15 (DW_TAG_subrange_type)
    <274>   DW_AT_type        : <0x41>
    <278>   DW_AT_upper_bound : 0
 <2><279>: Abbrev Number: 0
 <1><27a>: Abbrev Number: 6 (DW_TAG_pointer_type)
    <27b>   DW_AT_byte_size   : 8
    <27b>   DW_AT_type        : <0x253>
 <1><27f>: Abbrev Number: 18 (DW_TAG_structure_type)
    <280>   DW_AT_name        : (indirect string, offset: 0xe6): _IO_codecvt
    <284>   DW_AT_declaration : 1
 <1><284>: Abbrev Number: 6 (DW_TAG_pointer_type)
    <285>   DW_AT_byte_size   : 8
    <285>   DW_AT_type        : <0x27f>
 <1><289>: Abbrev Number: 18 (DW_TAG_structure_type)
    <28a>   DW_AT_name        : (indirect string, offset: 0x2e1): _IO_wide_data
    <28e>   DW_AT_declaration : 1
 <1><28e>: Abbrev Number: 6 (DW_TAG_pointer_type)
    <28f>   DW_AT_byte_size   : 8
    <28f>   DW_AT_type        : <0x289>
 <1><293>: Abbrev Number: 14 (DW_TAG_array_type)
    <294>   DW_AT_type        : <0xb5>
    <298>   DW_AT_sibling     : <0x2a3>
 <2><29c>: Abbrev Number: 15 (DW_TAG_subrange_type)
    <29d>   DW_AT_type        : <0x41>
    <2a1>   DW_AT_upper_bound : 19
 <2><2a2>: Abbrev Number: 0
 <1><2a3>: Abbrev Number: 6 (DW_TAG_pointer_type)
    <2a4>   DW_AT_byte_size   : 8
    <2a4>   DW_AT_type        : <0x247>
 <1><2a8>: Abbrev Number: 22 (DW_TAG_restrict_type)
    <2a9>   DW_AT_type        : <0x2a3>
 <1><2ad>: Abbrev Number: 4 (DW_TAG_base_type)
    <2ae>   DW_AT_byte_size   : 8
    <2af>   DW_AT_encoding    : 5	(signed)
    <2b0>   DW_AT_name        : (indirect string, offset: 0x71): long long int
 <1><2b4>: Abbrev Number: 21 (DW_TAG_structure_type)
    <2b5>   DW_AT_name        : (indirect string, offset: 0x2f9): timespec
    <2b9>   DW_AT_byte_size   : 16
    <2ba>   DW_AT_decl_file   : 6
    <2bb>   DW_AT_decl_line   : 11
    <2bc>   DW_AT_decl_column : 8
    <2bc>   DW_AT_sibling     : <0x2db>
 <2><2c0>: Abbrev Number: 2 (DW_TAG_member)
    <2c1>   DW_AT_name        : (indirect string, offset: 0x208): tv_sec
    <2c5>   DW_AT_decl_file   : 6
    <2c6>   DW_AT_decl_line   : 16
    <2c7>   DW_AT_decl_column : 12
    <2c8>   DW_AT_type        : <0x96>
    <2cc>   DW_AT_data_member_location: 0
 <2><2cd>: Abbrev Number: 2 (DW_TAG_member)
    <2ce>   DW_AT_name        : (indirect string, offset: 0x200): tv_nsec
    <2d2>   DW_AT_decl_file   : 6
    <2d3>   DW_AT_decl_line   : 21
    <2d4>   DW_AT_decl_column : 21
    <2d5>   DW_AT_type        : <0xa4>
    <2d9>   DW_AT_data_member_location: 8
 <2><2da>: Abbrev Number: 0
 <1><2db>: Abbrev Number: 13 (DW_TAG_const_type)
    <2dc>   DW_AT_type        : <0x2b4>
 <1><2e0>: Abbrev Number: 4 (DW_TAG_base_type)
    <2e1>   DW_AT_byte_size   : 8
    <2e2>   DW_AT_encoding    : 7	(unsigned)
    <2e3>   DW_AT_name        : (indirect string, offset: 0x50): long long unsigned int
 <1><2e7>: Abbrev Number: 6 (DW_TAG_pointer_type)
    <2e8>   DW_AT_byte_size   : 8
    <2e8>   DW_AT_type        : <0xbc>
 <1><2ec>: Abbrev Number: 22 (DW_TAG_restrict_type)
    <2ed>   DW_AT_type        : <0x2e7>
 <1><2f1>: Abbrev Number: 30 (DW_TAG_variable)
    <2f2>   DW_AT_name        : (indirect string, offset: 0x90): blinky
    <2f6>   DW_AT_decl_file   : 1
    <2f7>   DW_AT_decl_line   : 12
    <2f8>   DW_AT_decl_column : 18
    <2f9>   DW_AT_type        : <0x72>
    <2fd>   DW_AT_const_value : 440
 <1><2ff>: Abbrev Number: 23 (DW_TAG_variable)
    <300>   DW_AT_name        : fp
    <303>   DW_AT_decl_file   : 1
    <303>   DW_AT_decl_line   : 17
    <304>   DW_AT_decl_column : 14
    <305>   DW_AT_type        : <0x2a3>
    <309>   DW_AT_location    : 9 byte block: 3 0 0 0 0 0 1 1a 90 	(DW_OP_addr: 11a90)
 <1><313>: Abbrev Number: 10 (DW_TAG_variable)
    <314>   DW_AT_name        : (indirect string, offset: 0x2af): time_dit
    <318>   DW_AT_decl_file   : 1
    <318>   DW_AT_decl_line   : 85
    <319>   DW_AT_decl_column : 21
    <319>   DW_AT_type        : <0x326>
    <31d>   DW_AT_const_value : 8 byte block: 3f d5 1e b8 51 eb 85 1f 
 <1><326>: Abbrev Number: 13 (DW_TAG_const_type)
    <327>   DW_AT_type        : <0x2e>
 <1><32b>: Abbrev Number: 10 (DW_TAG_variable)
    <32c>   DW_AT_name        : (indirect string, offset: 0x22f): time_dah
    <330>   DW_AT_decl_file   : 1
    <330>   DW_AT_decl_line   : 86
    <331>   DW_AT_decl_column : 21
    <331>   DW_AT_type        : <0x326>
    <335>   DW_AT_const_value : 8 byte block: 3f ef ae 14 7a e1 47 ae 
 <1><33e>: Abbrev Number: 10 (DW_TAG_variable)
    <33f>   DW_AT_name        : (indirect string, offset: 0x2b8): time_space
    <343>   DW_AT_decl_file   : 1
    <343>   DW_AT_decl_line   : 88
    <344>   DW_AT_decl_column : 21
    <344>   DW_AT_type        : <0x326>
    <348>   DW_AT_const_value : 8 byte block: 3f d5 1e b8 51 eb 85 1f 
 <1><351>: Abbrev Number: 10 (DW_TAG_variable)
    <352>   DW_AT_name        : (indirect string, offset: 0x255): time_letter
    <356>   DW_AT_decl_file   : 1
    <356>   DW_AT_decl_line   : 90
    <357>   DW_AT_decl_column : 21
    <357>   DW_AT_type        : <0x326>
    <35b>   DW_AT_const_value : 8 byte block: 3f e5 1e b8 51 eb 85 1f 
 <1><364>: Abbrev Number: 10 (DW_TAG_variable)
    <365>   DW_AT_name        : (indirect string, offset: 0x1c): time_word
    <369>   DW_AT_decl_file   : 1
    <369>   DW_AT_decl_line   : 92
    <36a>   DW_AT_decl_column : 21
    <36a>   DW_AT_type        : <0x326>
    <36e>   DW_AT_const_value : 8 byte block: 3f f5 1e b8 51 eb 85 1f 
 <1><377>: Abbrev Number: 14 (DW_TAG_array_type)
    <378>   DW_AT_type        : <0x2e7>
    <37c>   DW_AT_sibling     : <0x387>
 <2><380>: Abbrev Number: 15 (DW_TAG_subrange_type)
    <381>   DW_AT_type        : <0x41>
    <385>   DW_AT_upper_bound : 35
 <2><386>: Abbrev Number: 0
 <1><387>: Abbrev Number: 24 (DW_TAG_variable)
    <388>   DW_AT_name        : (indirect string, offset: 0x2ef): morse_tbl
    <38c>   DW_AT_decl_file   : 1
    <38c>   DW_AT_decl_line   : 100
    <38d>   DW_AT_decl_column : 20
    <38e>   DW_AT_type        : <0x377>
    <392>   DW_AT_location    : 9 byte block: 3 0 0 0 0 0 1 18 38 	(DW_OP_addr: 11838)
 <1><39c>: Abbrev Number: 11 (DW_TAG_subprogram)
    <39d>   DW_AT_external    : 1
    <39d>   DW_AT_name        : (indirect string, offset: 0x67): nanosleep
    <3a1>   DW_AT_decl_file   : 7
    <3a2>   DW_AT_decl_line   : 281
    <3a4>   DW_AT_decl_column : 12
    <3a5>   DW_AT_prototyped  : 1
    <3a5>   DW_AT_type        : <0x6b>
    <3a9>   DW_AT_declaration : 1
    <3a9>   DW_AT_sibling     : <0x3b8>
 <2><3ad>: Abbrev Number: 5 (DW_TAG_formal_parameter)
    <3ae>   DW_AT_type        : <0x3b8>
 <2><3b2>: Abbrev Number: 5 (DW_TAG_formal_parameter)
    <3b3>   DW_AT_type        : <0x3bd>
 <2><3b7>: Abbrev Number: 0
 <1><3b8>: Abbrev Number: 6 (DW_TAG_pointer_type)
    <3b9>   DW_AT_byte_size   : 8
    <3b9>   DW_AT_type        : <0x2db>
 <1><3bd>: Abbrev Number: 6 (DW_TAG_pointer_type)
    <3be>   DW_AT_byte_size   : 8
    <3be>   DW_AT_type        : <0x2b4>
 <1><3c2>: Abbrev Number: 25 (DW_TAG_subprogram)
    <3c3>   DW_AT_external    : 1
    <3c3>   DW_AT_name        : (indirect string, offset: 0x292): fflush
    <3c7>   DW_AT_decl_file   : 8
    <3c7>   DW_AT_decl_line   : 230
    <3c8>   DW_AT_decl_column : 12
    <3c8>   DW_AT_prototyped  : 1
    <3c8>   DW_AT_type        : <0x6b>
    <3cc>   DW_AT_declaration : 1
    <3cc>   DW_AT_sibling     : <0x3d6>
 <2><3d0>: Abbrev Number: 5 (DW_TAG_formal_parameter)
    <3d1>   DW_AT_type        : <0x2a3>
 <2><3d5>: Abbrev Number: 0
 <1><3d6>: Abbrev Number: 25 (DW_TAG_subprogram)
    <3d7>   DW_AT_external    : 1
    <3d7>   DW_AT_name        : (indirect string, offset: 0x322): fclose
    <3db>   DW_AT_decl_file   : 8
    <3db>   DW_AT_decl_line   : 178
    <3dc>   DW_AT_decl_column : 12
    <3dc>   DW_AT_prototyped  : 1
    <3dc>   DW_AT_type        : <0x6b>
    <3e0>   DW_AT_declaration : 1
    <3e0>   DW_AT_sibling     : <0x3ea>
 <2><3e4>: Abbrev Number: 5 (DW_TAG_formal_parameter)
    <3e5>   DW_AT_type        : <0x2a3>
 <2><3e9>: Abbrev Number: 0
 <1><3ea>: Abbrev Number: 11 (DW_TAG_subprogram)
    <3eb>   DW_AT_external    : 1
    <3eb>   DW_AT_name        : (indirect string, offset: 0x1f8): fprintf
    <3ef>   DW_AT_decl_file   : 8
    <3f0>   DW_AT_decl_line   : 350
    <3f2>   DW_AT_decl_column : 12
    <3f3>   DW_AT_prototyped  : 1
    <3f3>   DW_AT_type        : <0x6b>
    <3f7>   DW_AT_declaration : 1
    <3f7>   DW_AT_sibling     : <0x407>
 <2><3fb>: Abbrev Number: 5 (DW_TAG_formal_parameter)
    <3fc>   DW_AT_type        : <0x2a8>
 <2><400>: Abbrev Number: 5 (DW_TAG_formal_parameter)
    <401>   DW_AT_type        : <0x2ec>
 <2><405>: Abbrev Number: 19 (DW_TAG_unspecified_parameters)
 <2><406>: Abbrev Number: 0
 <1><407>: Abbrev Number: 31 (DW_TAG_subprogram)
    <408>   DW_AT_external    : 1
    <408>   DW_AT_name        : (indirect string, offset: 0x10f): exit
    <40c>   DW_AT_decl_file   : 9
    <40d>   DW_AT_decl_line   : 637
    <40f>   DW_AT_decl_column : 13
    <410>   DW_AT_prototyped  : 1
    <410>   DW_AT_noreturn    : 1
    <410>   DW_AT_declaration : 1
    <410>   DW_AT_sibling     : <0x41a>
 <2><414>: Abbrev Number: 5 (DW_TAG_formal_parameter)
    <415>   DW_AT_type        : <0x6b>
 <2><419>: Abbrev Number: 0
 <1><41a>: Abbrev Number: 11 (DW_TAG_subprogram)
    <41b>   DW_AT_external    : 1
    <41b>   DW_AT_name        : (indirect string, offset: 0x28c): fopen
    <41f>   DW_AT_decl_file   : 8
    <420>   DW_AT_decl_line   : 258
    <422>   DW_AT_decl_column : 14
    <423>   DW_AT_prototyped  : 1
    <423>   DW_AT_type        : <0x2a3>
    <427>   DW_AT_declaration : 1
    <427>   DW_AT_sibling     : <0x436>
 <2><42b>: Abbrev Number: 5 (DW_TAG_formal_parameter)
    <42c>   DW_AT_type        : <0x2ec>
 <2><430>: Abbrev Number: 5 (DW_TAG_formal_parameter)
    <431>   DW_AT_type        : <0x2ec>
 <2><435>: Abbrev Number: 0
 <1><436>: Abbrev Number: 11 (DW_TAG_subprogram)
    <437>   DW_AT_external    : 1
    <437>   DW_AT_name        : (indirect string, offset: 0x31b): printf
    <43b>   DW_AT_decl_file   : 8
    <43c>   DW_AT_decl_line   : 356
    <43e>   DW_AT_decl_column : 12
    <43f>   DW_AT_prototyped  : 1
    <43f>   DW_AT_type        : <0x6b>
    <443>   DW_AT_declaration : 1
    <443>   DW_AT_sibling     : <0x44e>
 <2><447>: Abbrev Number: 5 (DW_TAG_formal_parameter)
    <448>   DW_AT_type        : <0x2e7>
 <2><44c>: Abbrev Number: 19 (DW_TAG_unspecified_parameters)
 <2><44d>: Abbrev Number: 0
 <1><44e>: Abbrev Number: 11 (DW_TAG_subprogram)
    <44f>   DW_AT_external    : 1
    <44f>   DW_AT_name        : (indirect string, offset: 0x1e6): sprintf
    <453>   DW_AT_decl_file   : 8
    <454>   DW_AT_decl_line   : 358
    <456>   DW_AT_decl_column : 12
    <457>   DW_AT_prototyped  : 1
    <457>   DW_AT_type        : <0x6b>
    <45b>   DW_AT_declaration : 1
    <45b>   DW_AT_sibling     : <0x46b>
 <2><45f>: Abbrev Number: 5 (DW_TAG_formal_parameter)
    <460>   DW_AT_type        : <0xb0>
 <2><464>: Abbrev Number: 5 (DW_TAG_formal_parameter)
    <465>   DW_AT_type        : <0x2e7>
 <2><469>: Abbrev Number: 19 (DW_TAG_unspecified_parameters)
 <2><46a>: Abbrev Number: 0
 <1><46b>: Abbrev Number: 32 (DW_TAG_subprogram)
    <46c>   DW_AT_external    : 1
    <46c>   DW_AT_name        : (indirect string, offset: 0x39d): main
    <470>   DW_AT_decl_file   : 1
    <471>   DW_AT_decl_line   : 201
    <472>   DW_AT_decl_column : 5
    <473>   DW_AT_prototyped  : 1
    <473>   DW_AT_type        : <0x6b>
    <477>   DW_AT_low_pc      : 0x13c4
    <47f>   DW_AT_high_pc     : 0x58
    <487>   DW_AT_frame_base  : 1 byte block: 9c 	(DW_OP_call_frame_cfa)
    <489>   DW_AT_call_all_calls: 1
    <489>   DW_AT_sibling     : <0x507>
 <2><48d>: Abbrev Number: 16 (DW_TAG_formal_parameter)
    <48e>   DW_AT_name        : (indirect string, offset: 0x38a): argc
    <492>   DW_AT_decl_file   : 1
    <492>   DW_AT_decl_line   : 201
    <493>   DW_AT_decl_column : 15
    <494>   DW_AT_type        : <0x6b>
    <498>   DW_AT_location    : 0x10 (location list)
    <49c>   DW_AT_GNU_locviews: 0xc
 <2><4a0>: Abbrev Number: 16 (DW_TAG_formal_parameter)
    <4a1>   DW_AT_name        : (indirect string, offset: 0x36e): argv
    <4a5>   DW_AT_decl_file   : 1
    <4a5>   DW_AT_decl_line   : 201
    <4a6>   DW_AT_decl_column : 28
    <4a7>   DW_AT_type        : <0x507>
    <4ab>   DW_AT_location    : 0x26 (location list)
    <4af>   DW_AT_GNU_locviews: 0x22
 <2><4b3>: Abbrev Number: 3 (DW_TAG_call_site)
    <4b4>   DW_AT_call_return_pc: 0x13e8
    <4bc>   DW_AT_call_origin : <0xa31>
    <4c0>   DW_AT_sibling     : <0x4d2>
 <3><4c4>: Abbrev Number: 1 (DW_TAG_call_site_parameter)
    <4c5>   DW_AT_location    : 1 byte block: 54 	(DW_OP_reg4 (r4))
    <4c7>   DW_AT_call_value  : 9 byte block: 3 0 0 0 0 0 0 16 98 	(DW_OP_addr: 1698)
 <3><4d1>: Abbrev Number: 0
 <2><4d2>: Abbrev Number: 3 (DW_TAG_call_site)
    <4d3>   DW_AT_call_return_pc: 0x13f4
    <4db>   DW_AT_call_origin : <0x735>
    <4df>   DW_AT_sibling     : <0x4eb>
 <3><4e3>: Abbrev Number: 1 (DW_TAG_call_site_parameter)
    <4e4>   DW_AT_location    : 1 byte block: 54 	(DW_OP_reg4 (r4))
    <4e6>   DW_AT_call_value  : 3 byte block: a 1 b8 	(DW_OP_const2u: 440)
 <3><4ea>: Abbrev Number: 0
 <2><4eb>: Abbrev Number: 17 (DW_TAG_call_site)
    <4ec>   DW_AT_call_return_pc: 0x1404
    <4f4>   DW_AT_call_origin : <0x50c>
 <3><4f8>: Abbrev Number: 1 (DW_TAG_call_site_parameter)
    <4f9>   DW_AT_location    : 1 byte block: 54 	(DW_OP_reg4 (r4))
    <4fb>   DW_AT_call_value  : 9 byte block: 3 0 0 0 0 0 0 16 b0 	(DW_OP_addr: 16b0)
 <3><505>: Abbrev Number: 0
 <2><506>: Abbrev Number: 0
 <1><507>: Abbrev Number: 6 (DW_TAG_pointer_type)
    <508>   DW_AT_byte_size   : 8
    <508>   DW_AT_type        : <0xb0>
 <1><50c>: Abbrev Number: 12 (DW_TAG_subprogram)
    <50d>   DW_AT_external    : 1
    <50d>   DW_AT_name        : (indirect string, offset: 0x1d6): morse
    <511>   DW_AT_decl_file   : 1
    <511>   DW_AT_decl_line   : 192
    <512>   DW_AT_decl_column : 6
    <512>   DW_AT_prototyped  : 1
    <512>   DW_AT_low_pc      : 0x1364
    <51a>   DW_AT_high_pc     : 0x60
    <522>   DW_AT_frame_base  : 1 byte block: 9c 	(DW_OP_call_frame_cfa)
    <524>   DW_AT_call_all_calls: 1
    <524>   DW_AT_sibling     : <0x549>
 <2><528>: Abbrev Number: 16 (DW_TAG_formal_parameter)
    <529>   DW_AT_name        : (indirect string, offset: 0x37): string
    <52d>   DW_AT_decl_file   : 1
    <52d>   DW_AT_decl_line   : 192
    <52e>   DW_AT_decl_column : 25
    <52f>   DW_AT_type        : <0x2e7>
    <533>   DW_AT_location    : 0x3c (location list)
    <537>   DW_AT_GNU_locviews: 0x38
 <2><53b>: Abbrev Number: 9 (DW_TAG_call_site)
    <53c>   DW_AT_call_return_pc: 0x139c
    <544>   DW_AT_call_origin : <0x549>
 <2><548>: Abbrev Number: 0
 <1><549>: Abbrev Number: 12 (DW_TAG_subprogram)
    <54a>   DW_AT_external    : 1
    <54a>   DW_AT_name        : (indirect string, offset: 0x2a2): morse_letter
    <54e>   DW_AT_decl_file   : 1
    <54e>   DW_AT_decl_line   : 140
    <54f>   DW_AT_decl_column : 6
    <54f>   DW_AT_prototyped  : 1
    <54f>   DW_AT_low_pc      : 0x11e0
    <557>   DW_AT_high_pc     : 0x184
    <55f>   DW_AT_frame_base  : 1 byte block: 9c 	(DW_OP_call_frame_cfa)
    <561>   DW_AT_call_all_calls: 1
    <561>   DW_AT_sibling     : <0x68d>
 <2><565>: Abbrev Number: 20 (DW_TAG_formal_parameter)
    <566>   DW_AT_name        : let
    <56a>   DW_AT_decl_file   : 1
    <56a>   DW_AT_decl_line   : 140
    <56b>   DW_AT_decl_column : 30
    <56c>   DW_AT_type        : <0xbc>
    <570>   DW_AT_location    : 0x57 (location list)
    <574>   DW_AT_GNU_locviews: 0x4b
 <2><578>: Abbrev Number: 33 (DW_TAG_variable)
    <579>   DW_AT_name        : (indirect string, offset: 0x261): pattern
    <57d>   DW_AT_decl_file   : 1
    <57e>   DW_AT_decl_line   : 151
    <57f>   DW_AT_decl_column : 15
    <580>   DW_AT_type        : <0x2e7>
    <584>   DW_AT_location    : 0x93 (location list)
    <588>   DW_AT_GNU_locviews: 0x8b
 <2><58c>: Abbrev Number: 3 (DW_TAG_call_site)
    <58d>   DW_AT_call_return_pc: 0x1258
    <595>   DW_AT_call_origin : <0xa3a>
    <599>   DW_AT_sibling     : <0x5b1>
 <3><59d>: Abbrev Number: 1 (DW_TAG_call_site_parameter)
    <59e>   DW_AT_location    : 1 byte block: 54 	(DW_OP_reg4 (r4))
    <5a0>   DW_AT_call_value  : 9 byte block: 3 0 0 0 0 0 0 16 80 	(DW_OP_addr: 1680)
 <3><5aa>: Abbrev Number: 1 (DW_TAG_call_site_parameter)
    <5ab>   DW_AT_location    : 1 byte block: 56 	(DW_OP_reg6 (r6))
    <5ad>   DW_AT_call_value  : 2 byte block: 80 0 	(DW_OP_breg16 (r16): 0)
 <3><5b0>: Abbrev Number: 0
 <2><5b1>: Abbrev Number: 3 (DW_TAG_call_site)
    <5b2>   DW_AT_call_return_pc: 0x1294
    <5ba>   DW_AT_call_origin : <0xa31>
    <5be>   DW_AT_sibling     : <0x5d0>
 <3><5c2>: Abbrev Number: 1 (DW_TAG_call_site_parameter)
    <5c3>   DW_AT_location    : 1 byte block: 54 	(DW_OP_reg4 (r4))
    <5c5>   DW_AT_call_value  : 9 byte block: 3 0 0 0 0 0 0 16 78 	(DW_OP_addr: 1678)
 <3><5cf>: Abbrev Number: 0
 <2><5d0>: Abbrev Number: 3 (DW_TAG_call_site)
    <5d1>   DW_AT_call_return_pc: 0x12a4
    <5d9>   DW_AT_call_origin : <0x68d>
    <5dd>   DW_AT_sibling     : <0x5f2>
 <3><5e1>: Abbrev Number: 1 (DW_TAG_call_site_parameter)
    <5e2>   DW_AT_location    : 2 byte block: 90 2c 	(DW_OP_regx: 44 (r44))
    <5e5>   DW_AT_call_value  : 11 byte block: a4 2e 8 3f f5 1e b8 51 eb 85 1f 	(DW_OP_const_type: <0x2e>  8 byte block: 3f f5 1e b8 51 eb 85 1f )
 <3><5f1>: Abbrev Number: 0
 <2><5f2>: Abbrev Number: 3 (DW_TAG_call_site)
    <5f3>   DW_AT_call_return_pc: 0x12d4
    <5fb>   DW_AT_call_origin : <0x68d>
    <5ff>   DW_AT_sibling     : <0x60c>
 <3><603>: Abbrev Number: 1 (DW_TAG_call_site_parameter)
    <604>   DW_AT_location    : 2 byte block: 90 2c 	(DW_OP_regx: 44 (r44))
    <607>   DW_AT_call_value  : 3 byte block: a5 38 2e 	(DW_OP_regval_type: 56 (r56) <0x2e>)
 <3><60b>: Abbrev Number: 0
 <2><60c>: Abbrev Number: 3 (DW_TAG_call_site)
    <60d>   DW_AT_call_return_pc: 0x12e0
    <615>   DW_AT_call_origin : <0x6e4>
    <619>   DW_AT_sibling     : <0x623>
 <3><61d>: Abbrev Number: 1 (DW_TAG_call_site_parameter)
    <61e>   DW_AT_location    : 1 byte block: 54 	(DW_OP_reg4 (r4))
    <620>   DW_AT_call_value  : 1 byte block: 30 	(DW_OP_lit0)
 <3><622>: Abbrev Number: 0
 <2><623>: Abbrev Number: 3 (DW_TAG_call_site)
    <624>   DW_AT_call_return_pc: 0x12ec
    <62c>   DW_AT_call_origin : <0x68d>
    <630>   DW_AT_sibling     : <0x63d>
 <3><634>: Abbrev Number: 1 (DW_TAG_call_site_parameter)
    <635>   DW_AT_location    : 2 byte block: 90 2c 	(DW_OP_regx: 44 (r44))
    <638>   DW_AT_call_value  : 3 byte block: a5 38 2e 	(DW_OP_regval_type: 56 (r56) <0x2e>)
 <3><63c>: Abbrev Number: 0
 <2><63d>: Abbrev Number: 3 (DW_TAG_call_site)
    <63e>   DW_AT_call_return_pc: 0x1308
    <646>   DW_AT_call_origin : <0x6e4>
    <64a>   DW_AT_sibling     : <0x654>
 <3><64e>: Abbrev Number: 1 (DW_TAG_call_site_parameter)
    <64f>   DW_AT_location    : 1 byte block: 54 	(DW_OP_reg4 (r4))
    <651>   DW_AT_call_value  : 1 byte block: 31 	(DW_OP_lit1)
 <3><653>: Abbrev Number: 0
 <2><654>: Abbrev Number: 3 (DW_TAG_call_site)
    <655>   DW_AT_call_return_pc: 0x131c
    <65d>   DW_AT_call_origin : <0x68d>
    <661>   DW_AT_sibling     : <0x66e>
 <3><665>: Abbrev Number: 1 (DW_TAG_call_site_parameter)
    <666>   DW_AT_location    : 2 byte block: 90 2c 	(DW_OP_regx: 44 (r44))
    <669>   DW_AT_call_value  : 3 byte block: a5 39 2e 	(DW_OP_regval_type: 57 (r57) <0x2e>)
 <3><66d>: Abbrev Number: 0
 <2><66e>: Abbrev Number: 17 (DW_TAG_call_site)
    <66f>   DW_AT_call_return_pc: 0x1334
    <677>   DW_AT_call_origin : <0x68d>
 <3><67b>: Abbrev Number: 1 (DW_TAG_call_site_parameter)
    <67c>   DW_AT_location    : 2 byte block: 90 2c 	(DW_OP_regx: 44 (r44))
    <67f>   DW_AT_call_value  : 11 byte block: a4 2e 8 3f e5 1e b8 51 eb 85 1f 	(DW_OP_const_type: <0x2e>  8 byte block: 3f e5 1e b8 51 eb 85 1f )
 <3><68b>: Abbrev Number: 0
 <2><68c>: Abbrev Number: 0
 <1><68d>: Abbrev Number: 12 (DW_TAG_subprogram)
    <68e>   DW_AT_external    : 1
    <68e>   DW_AT_name        : (indirect string, offset: 0x34e): fsleep
    <692>   DW_AT_decl_file   : 1
    <692>   DW_AT_decl_line   : 70
    <693>   DW_AT_decl_column : 6
    <693>   DW_AT_prototyped  : 1
    <693>   DW_AT_low_pc      : 0x1190
    <69b>   DW_AT_high_pc     : 0x50
    <6a3>   DW_AT_frame_base  : 1 byte block: 9c 	(DW_OP_call_frame_cfa)
    <6a5>   DW_AT_call_all_calls: 1
    <6a5>   DW_AT_sibling     : <0x6e4>
 <2><6a9>: Abbrev Number: 20 (DW_TAG_formal_parameter)
    <6aa>   DW_AT_name        : dur
    <6ae>   DW_AT_decl_file   : 1
    <6ae>   DW_AT_decl_line   : 70
    <6af>   DW_AT_decl_column : 20
    <6b0>   DW_AT_type        : <0x2e>
    <6b4>   DW_AT_location    : 0xc6 (location list)
    <6b8>   DW_AT_GNU_locviews: 0xc2
 <2><6bc>: Abbrev Number: 23 (DW_TAG_variable)
    <6bd>   DW_AT_name        : tim
    <6c1>   DW_AT_decl_file   : 1
    <6c1>   DW_AT_decl_line   : 72
    <6c2>   DW_AT_decl_column : 18
    <6c3>   DW_AT_type        : <0x2b4>
    <6c7>   DW_AT_location    : 2 byte block: 91 60 	(DW_OP_fbreg: -32)
 <2><6ca>: Abbrev Number: 17 (DW_TAG_call_site)
    <6cb>   DW_AT_call_return_pc: 0x11cc
    <6d3>   DW_AT_call_origin : <0x39c>
 <3><6d7>: Abbrev Number: 1 (DW_TAG_call_site_parameter)
    <6d8>   DW_AT_location    : 1 byte block: 54 	(DW_OP_reg4 (r4))
    <6da>   DW_AT_call_value  : 2 byte block: 8d 0 	(DW_OP_breg29 (r29): 0)
 <3><6dd>: Abbrev Number: 1 (DW_TAG_call_site_parameter)
    <6de>   DW_AT_location    : 1 byte block: 55 	(DW_OP_reg5 (r5))
    <6e0>   DW_AT_call_value  : 1 byte block: 30 	(DW_OP_lit0)
 <3><6e2>: Abbrev Number: 0
 <2><6e3>: Abbrev Number: 0
 <1><6e4>: Abbrev Number: 12 (DW_TAG_subprogram)
    <6e5>   DW_AT_external    : 1
    <6e5>   DW_AT_name        : (indirect string, offset: 0x243): io_write
    <6e9>   DW_AT_decl_file   : 1
    <6e9>   DW_AT_decl_line   : 63
    <6ea>   DW_AT_decl_column : 6
    <6ea>   DW_AT_prototyped  : 1
    <6ea>   DW_AT_low_pc      : 0x112c
    <6f2>   DW_AT_high_pc     : 0x64
    <6fa>   DW_AT_frame_base  : 1 byte block: 9c 	(DW_OP_call_frame_cfa)
    <6fc>   DW_AT_call_all_calls: 1
    <6fc>   DW_AT_sibling     : <0x72e>
 <2><700>: Abbrev Number: 16 (DW_TAG_formal_parameter)
    <701>   DW_AT_name        : (indirect string, offset: 0x373): status
    <705>   DW_AT_decl_file   : 1
    <705>   DW_AT_decl_line   : 63
    <706>   DW_AT_decl_column : 20
    <707>   DW_AT_type        : <0x72e>
    <70b>   DW_AT_location    : 0xe1 (location list)
    <70f>   DW_AT_GNU_locviews: 0xdb
 <2><713>: Abbrev Number: 9 (DW_TAG_call_site)
    <714>   DW_AT_call_return_pc: 0x1160
    <71c>   DW_AT_call_origin : <0xa43>
 <2><720>: Abbrev Number: 9 (DW_TAG_call_site)
    <721>   DW_AT_call_return_pc: 0x1170
    <729>   DW_AT_call_origin : <0x3c2>
 <2><72d>: Abbrev Number: 0
 <1><72e>: Abbrev Number: 4 (DW_TAG_base_type)
    <72f>   DW_AT_byte_size   : 1
    <730>   DW_AT_encoding    : 2	(boolean)
    <731>   DW_AT_name        : (indirect string, offset: 0x2c3): _Bool
 <1><735>: Abbrev Number: 12 (DW_TAG_subprogram)
    <736>   DW_AT_external    : 1
    <736>   DW_AT_name        : (indirect string, offset: 0x164): io_init
    <73a>   DW_AT_decl_file   : 1
    <73a>   DW_AT_decl_line   : 18
    <73b>   DW_AT_decl_column : 6
    <73b>   DW_AT_prototyped  : 1
    <73b>   DW_AT_low_pc      : 0xf30
    <743>   DW_AT_high_pc     : 0x1fc
    <74b>   DW_AT_frame_base  : 1 byte block: 9c 	(DW_OP_call_frame_cfa)
    <74d>   DW_AT_call_all_calls: 1
    <74d>   DW_AT_sibling     : <0xa21>
 <2><751>: Abbrev Number: 20 (DW_TAG_formal_parameter)
    <752>   DW_AT_name        : pin
    <756>   DW_AT_decl_file   : 1
    <756>   DW_AT_decl_line   : 18
    <757>   DW_AT_decl_column : 24
    <758>   DW_AT_type        : <0x72>
    <75c>   DW_AT_location    : 0xfe (location list)
    <760>   DW_AT_GNU_locviews: 0xfa
 <2><764>: Abbrev Number: 24 (DW_TAG_variable)
    <765>   DW_AT_name        : (indirect string, offset: 0x3e): path
    <769>   DW_AT_decl_file   : 1
    <769>   DW_AT_decl_line   : 20
    <76a>   DW_AT_decl_column : 7
    <76b>   DW_AT_type        : <0xa21>
    <76f>   DW_AT_location    : 3 byte block: 91 a0 7f 	(DW_OP_fbreg: -96)
 <2><773>: Abbrev Number: 3 (DW_TAG_call_site)
    <774>   DW_AT_call_return_pc: 0xf68
    <77c>   DW_AT_call_origin : <0xa4c>
    <780>   DW_AT_sibling     : <0x79e>
 <3><784>: Abbrev Number: 1 (DW_TAG_call_site_parameter)
    <785>   DW_AT_location    : 1 byte block: 54 	(DW_OP_reg4 (r4))
    <787>   DW_AT_call_value  : 2 byte block: 8d 0 	(DW_OP_breg29 (r29): 0)
 <3><78a>: Abbrev Number: 1 (DW_TAG_call_site_parameter)
    <78b>   DW_AT_location    : 1 byte block: 55 	(DW_OP_reg5 (r5))
    <78d>   DW_AT_call_value  : 9 byte block: 3 0 0 0 0 0 0 15 20 	(DW_OP_addr: 1520)
 <3><797>: Abbrev Number: 1 (DW_TAG_call_site_parameter)
    <798>   DW_AT_location    : 1 byte block: 56 	(DW_OP_reg6 (r6))
    <79a>   DW_AT_call_value  : 2 byte block: 80 0 	(DW_OP_breg16 (r16): 0)
 <3><79d>: Abbrev Number: 0
 <2><79e>: Abbrev Number: 3 (DW_TAG_call_site)
    <79f>   DW_AT_call_return_pc: 0xf7c
    <7a7>   DW_AT_call_origin : <0xa3a>
    <7ab>   DW_AT_sibling     : <0x7c3>
 <3><7af>: Abbrev Number: 1 (DW_TAG_call_site_parameter)
    <7b0>   DW_AT_location    : 1 byte block: 54 	(DW_OP_reg4 (r4))
    <7b2>   DW_AT_call_value  : 9 byte block: 3 0 0 0 0 0 0 15 48 	(DW_OP_addr: 1548)
 <3><7bc>: Abbrev Number: 1 (DW_TAG_call_site_parameter)
    <7bd>   DW_AT_location    : 1 byte block: 55 	(DW_OP_reg5 (r5))
    <7bf>   DW_AT_call_value  : 2 byte block: 8d 0 	(DW_OP_breg29 (r29): 0)
 <3><7c2>: Abbrev Number: 0
 <2><7c3>: Abbrev Number: 3 (DW_TAG_call_site)
    <7c4>   DW_AT_call_return_pc: 0xf90
    <7cc>   DW_AT_call_origin : <0x41a>
    <7d0>   DW_AT_sibling     : <0x7e8>
 <3><7d4>: Abbrev Number: 1 (DW_TAG_call_site_parameter)
    <7d5>   DW_AT_location    : 1 byte block: 54 	(DW_OP_reg4 (r4))
    <7d7>   DW_AT_call_value  : 2 byte block: 8d 0 	(DW_OP_breg29 (r29): 0)
 <3><7da>: Abbrev Number: 1 (DW_TAG_call_site_parameter)
    <7db>   DW_AT_location    : 1 byte block: 55 	(DW_OP_reg5 (r5))
    <7dd>   DW_AT_call_value  : 9 byte block: 3 0 0 0 0 0 0 15 68 	(DW_OP_addr: 1568)
 <3><7e7>: Abbrev Number: 0
 <2><7e8>: Abbrev Number: 3 (DW_TAG_call_site)
    <7e9>   DW_AT_call_return_pc: 0xfbc
    <7f1>   DW_AT_call_origin : <0xa55>
    <7f5>   DW_AT_sibling     : <0x811>
 <3><7f9>: Abbrev Number: 1 (DW_TAG_call_site_parameter)
    <7fa>   DW_AT_location    : 1 byte block: 54 	(DW_OP_reg4 (r4))
    <7fc>   DW_AT_call_value  : 9 byte block: 3 0 0 0 0 0 0 16 0 	(DW_OP_addr: 1600)
 <3><806>: Abbrev Number: 1 (DW_TAG_call_site_parameter)
    <807>   DW_AT_location    : 1 byte block: 55 	(DW_OP_reg5 (r5))
    <809>   DW_AT_call_value  : 1 byte block: 31 	(DW_OP_lit1)
 <3><80b>: Abbrev Number: 1 (DW_TAG_call_site_parameter)
    <80c>   DW_AT_location    : 1 byte block: 56 	(DW_OP_reg6 (r6))
    <80e>   DW_AT_call_value  : 1 byte block: 33 	(DW_OP_lit3)
 <3><810>: Abbrev Number: 0
 <2><811>: Abbrev Number: 9 (DW_TAG_call_site)
    <812>   DW_AT_call_return_pc: 0xfc8
    <81a>   DW_AT_call_origin : <0x3d6>
 <2><81e>: Abbrev Number: 3 (DW_TAG_call_site)
    <81f>   DW_AT_call_return_pc: 0xfe0
    <827>   DW_AT_call_origin : <0xa4c>
    <82b>   DW_AT_sibling     : <0x849>
 <3><82f>: Abbrev Number: 1 (DW_TAG_call_site_parameter)
    <830>   DW_AT_location    : 1 byte block: 54 	(DW_OP_reg4 (r4))
    <832>   DW_AT_call_value  : 2 byte block: 8d 0 	(DW_OP_breg29 (r29): 0)
 <3><835>: Abbrev Number: 1 (DW_TAG_call_site_parameter)
    <836>   DW_AT_location    : 1 byte block: 55 	(DW_OP_reg5 (r5))
    <838>   DW_AT_call_value  : 9 byte block: 3 0 0 0 0 0 0 16 8 	(DW_OP_addr: 1608)
 <3><842>: Abbrev Number: 1 (DW_TAG_call_site_parameter)
    <843>   DW_AT_location    : 1 byte block: 56 	(DW_OP_reg6 (r6))
    <845>   DW_AT_call_value  : 2 byte block: 80 0 	(DW_OP_breg16 (r16): 0)
 <3><848>: Abbrev Number: 0
 <2><849>: Abbrev Number: 3 (DW_TAG_call_site)
    <84a>   DW_AT_call_return_pc: 0xff4
    <852>   DW_AT_call_origin : <0xa3a>
    <856>   DW_AT_sibling     : <0x86e>
 <3><85a>: Abbrev Number: 1 (DW_TAG_call_site_parameter)
    <85b>   DW_AT_location    : 1 byte block: 54 	(DW_OP_reg4 (r4))
    <85d>   DW_AT_call_value  : 9 byte block: 3 0 0 0 0 0 0 16 28 	(DW_OP_addr: 1628)
 <3><867>: Abbrev Number: 1 (DW_TAG_call_site_parameter)
    <868>   DW_AT_location    : 1 byte block: 55 	(DW_OP_reg5 (r5))
    <86a>   DW_AT_call_value  : 2 byte block: 8d 0 	(DW_OP_breg29 (r29): 0)
 <3><86d>: Abbrev Number: 0
 <2><86e>: Abbrev Number: 3 (DW_TAG_call_site)
    <86f>   DW_AT_call_return_pc: 0x1008
    <877>   DW_AT_call_origin : <0x41a>
    <87b>   DW_AT_sibling     : <0x893>
 <3><87f>: Abbrev Number: 1 (DW_TAG_call_site_parameter)
    <880>   DW_AT_location    : 1 byte block: 54 	(DW_OP_reg4 (r4))
    <882>   DW_AT_call_value  : 2 byte block: 8d 0 	(DW_OP_breg29 (r29): 0)
 <3><885>: Abbrev Number: 1 (DW_TAG_call_site_parameter)
    <886>   DW_AT_location    : 1 byte block: 55 	(DW_OP_reg5 (r5))
    <888>   DW_AT_call_value  : 9 byte block: 3 0 0 0 0 0 0 15 68 	(DW_OP_addr: 1568)
 <3><892>: Abbrev Number: 0
 <2><893>: Abbrev Number: 3 (DW_TAG_call_site)
    <894>   DW_AT_call_return_pc: 0x1020
    <89c>   DW_AT_call_origin : <0xa5e>
    <8a0>   DW_AT_sibling     : <0x8ab>
 <3><8a4>: Abbrev Number: 1 (DW_TAG_call_site_parameter)
    <8a5>   DW_AT_location    : 1 byte block: 54 	(DW_OP_reg4 (r4))
    <8a7>   DW_AT_call_value  : 2 byte block: 8 30 	(DW_OP_const1u: 48)
 <3><8aa>: Abbrev Number: 0
 <2><8ab>: Abbrev Number: 9 (DW_TAG_call_site)
    <8ac>   DW_AT_call_return_pc: 0x1030
    <8b4>   DW_AT_call_origin : <0x3c2>
 <2><8b8>: Abbrev Number: 3 (DW_TAG_call_site)
    <8b9>   DW_AT_call_return_pc: 0x1058
    <8c1>   DW_AT_call_origin : <0xa31>
    <8c5>   DW_AT_sibling     : <0x8d7>
 <3><8c9>: Abbrev Number: 1 (DW_TAG_call_site_parameter)
    <8ca>   DW_AT_location    : 1 byte block: 54 	(DW_OP_reg4 (r4))
    <8cc>   DW_AT_call_value  : 9 byte block: 3 0 0 0 0 0 0 15 70 	(DW_OP_addr: 1570)
 <3><8d6>: Abbrev Number: 0
 <2><8d7>: Abbrev Number: 3 (DW_TAG_call_site)
    <8d8>   DW_AT_call_return_pc: 0x1070
    <8e0>   DW_AT_call_origin : <0x41a>
    <8e4>   DW_AT_sibling     : <0x903>
 <3><8e8>: Abbrev Number: 1 (DW_TAG_call_site_parameter)
    <8e9>   DW_AT_location    : 1 byte block: 54 	(DW_OP_reg4 (r4))
    <8eb>   DW_AT_call_value  : 9 byte block: 3 0 0 0 0 0 0 15 98 	(DW_OP_addr: 1598)
 <3><8f5>: Abbrev Number: 1 (DW_TAG_call_site_parameter)
    <8f6>   DW_AT_location    : 1 byte block: 55 	(DW_OP_reg5 (r5))
    <8f8>   DW_AT_call_value  : 9 byte block: 3 0 0 0 0 0 0 15 68 	(DW_OP_addr: 1568)
 <3><902>: Abbrev Number: 0
 <2><903>: Abbrev Number: 3 (DW_TAG_call_site)
    <904>   DW_AT_call_return_pc: 0x1094
    <90c>   DW_AT_call_origin : <0xa43>
    <910>   DW_AT_sibling     : <0x928>
 <3><914>: Abbrev Number: 1 (DW_TAG_call_site_parameter)
    <915>   DW_AT_location    : 1 byte block: 55 	(DW_OP_reg5 (r5))
    <917>   DW_AT_call_value  : 9 byte block: 3 0 0 0 0 0 0 15 d0 	(DW_OP_addr: 15d0)
 <3><921>: Abbrev Number: 1 (DW_TAG_call_site_parameter)
    <922>   DW_AT_location    : 1 byte block: 56 	(DW_OP_reg6 (r6))
    <924>   DW_AT_call_value  : 2 byte block: 80 0 	(DW_OP_breg16 (r16): 0)
 <3><927>: Abbrev Number: 0
 <2><928>: Abbrev Number: 9 (DW_TAG_call_site)
    <929>   DW_AT_call_return_pc: 0x10a4
    <931>   DW_AT_call_origin : <0x3d6>
 <2><935>: Abbrev Number: 3 (DW_TAG_call_site)
    <936>   DW_AT_call_return_pc: 0x10b8
    <93e>   DW_AT_call_origin : <0xa3a>
    <942>   DW_AT_sibling     : <0x95a>
 <3><946>: Abbrev Number: 1 (DW_TAG_call_site_parameter)
    <947>   DW_AT_location    : 1 byte block: 54 	(DW_OP_reg4 (r4))
    <949>   DW_AT_call_value  : 9 byte block: 3 0 0 0 0 0 0 15 48 	(DW_OP_addr: 1548)
 <3><953>: Abbrev Number: 1 (DW_TAG_call_site_parameter)
    <954>   DW_AT_location    : 1 byte block: 55 	(DW_OP_reg5 (r5))
    <956>   DW_AT_call_value  : 2 byte block: 8d 0 	(DW_OP_breg29 (r29): 0)
 <3><959>: Abbrev Number: 0
 <2><95a>: Abbrev Number: 3 (DW_TAG_call_site)
    <95b>   DW_AT_call_return_pc: 0x10cc
    <963>   DW_AT_call_origin : <0x41a>
    <967>   DW_AT_sibling     : <0x97f>
 <3><96b>: Abbrev Number: 1 (DW_TAG_call_site_parameter)
    <96c>   DW_AT_location    : 1 byte block: 54 	(DW_OP_reg4 (r4))
    <96e>   DW_AT_call_value  : 2 byte block: 8d 0 	(DW_OP_breg29 (r29): 0)
 <3><971>: Abbrev Number: 1 (DW_TAG_call_site_parameter)
    <972>   DW_AT_location    : 1 byte block: 55 	(DW_OP_reg5 (r5))
    <974>   DW_AT_call_value  : 9 byte block: 3 0 0 0 0 0 0 15 68 	(DW_OP_addr: 1568)
 <3><97e>: Abbrev Number: 0
 <2><97f>: Abbrev Number: 3 (DW_TAG_call_site)
    <980>   DW_AT_call_return_pc: 0x10e4
    <988>   DW_AT_call_origin : <0xa31>
    <98c>   DW_AT_sibling     : <0x99e>
 <3><990>: Abbrev Number: 1 (DW_TAG_call_site_parameter)
    <991>   DW_AT_location    : 1 byte block: 54 	(DW_OP_reg4 (r4))
    <993>   DW_AT_call_value  : 9 byte block: 3 0 0 0 0 0 0 15 d8 	(DW_OP_addr: 15d8)
 <3><99d>: Abbrev Number: 0
 <2><99e>: Abbrev Number: 3 (DW_TAG_call_site)
    <99f>   DW_AT_call_return_pc: 0x10f0
    <9a7>   DW_AT_call_origin : <0xa67>
    <9ab>   DW_AT_sibling     : <0x9b6>
 <3><9af>: Abbrev Number: 1 (DW_TAG_call_site_parameter)
    <9b0>   DW_AT_location    : 1 byte block: 54 	(DW_OP_reg4 (r4))
    <9b2>   DW_AT_call_value  : 2 byte block: 9 ff 	(DW_OP_const1s: -1)
 <3><9b5>: Abbrev Number: 0
 <2><9b6>: Abbrev Number: 3 (DW_TAG_call_site)
    <9b7>   DW_AT_call_return_pc: 0x1100
    <9bf>   DW_AT_call_origin : <0xa31>
    <9c3>   DW_AT_sibling     : <0x9d5>
 <3><9c7>: Abbrev Number: 1 (DW_TAG_call_site_parameter)
    <9c8>   DW_AT_location    : 1 byte block: 54 	(DW_OP_reg4 (r4))
    <9ca>   DW_AT_call_value  : 9 byte block: 3 0 0 0 0 0 0 15 b0 	(DW_OP_addr: 15b0)
 <3><9d4>: Abbrev Number: 0
 <2><9d5>: Abbrev Number: 3 (DW_TAG_call_site)
    <9d6>   DW_AT_call_return_pc: 0x110c
    <9de>   DW_AT_call_origin : <0xa67>
    <9e2>   DW_AT_sibling     : <0x9ed>
 <3><9e6>: Abbrev Number: 1 (DW_TAG_call_site_parameter)
    <9e7>   DW_AT_location    : 1 byte block: 54 	(DW_OP_reg4 (r4))
    <9e9>   DW_AT_call_value  : 2 byte block: 9 ff 	(DW_OP_const1s: -1)
 <3><9ec>: Abbrev Number: 0
 <2><9ed>: Abbrev Number: 3 (DW_TAG_call_site)
    <9ee>   DW_AT_call_return_pc: 0x111c
    <9f6>   DW_AT_call_origin : <0xa31>
    <9fa>   DW_AT_sibling     : <0xa0c>
 <3><9fe>: Abbrev Number: 1 (DW_TAG_call_site_parameter)
    <9ff>   DW_AT_location    : 1 byte block: 54 	(DW_OP_reg4 (r4))
    <a01>   DW_AT_call_value  : 9 byte block: 3 0 0 0 0 0 0 16 40 	(DW_OP_addr: 1640)
 <3><a0b>: Abbrev Number: 0
 <2><a0c>: Abbrev Number: 17 (DW_TAG_call_site)
    <a0d>   DW_AT_call_return_pc: 0x1128
    <a15>   DW_AT_call_origin : <0xa67>
 <3><a19>: Abbrev Number: 1 (DW_TAG_call_site_parameter)
    <a1a>   DW_AT_location    : 1 byte block: 54 	(DW_OP_reg4 (r4))
    <a1c>   DW_AT_call_value  : 2 byte block: 9 ff 	(DW_OP_const1s: -1)
 <3><a1f>: Abbrev Number: 0
 <2><a20>: Abbrev Number: 0
 <1><a21>: Abbrev Number: 14 (DW_TAG_array_type)
    <a22>   DW_AT_type        : <0xb5>
    <a26>   DW_AT_sibling     : <0xa31>
 <2><a2a>: Abbrev Number: 15 (DW_TAG_subrange_type)
    <a2b>   DW_AT_type        : <0x41>
    <a2f>   DW_AT_upper_bound : 63
 <2><a30>: Abbrev Number: 0
 <1><a31>: Abbrev Number: 7 (DW_TAG_subprogram)
    <a32>   DW_AT_external    : 1
    <a32>   DW_AT_declaration : 1
    <a32>   DW_AT_linkage_name: (indirect string, offset: 0x1d1): puts
    <a36>   DW_AT_name        : (indirect string, offset: 0x1c7): __builtin_puts
    <a3a>   DW_AT_decl_file   : 10
    <a3a>   DW_AT_decl_line   : 0
 <1><a3a>: Abbrev Number: 7 (DW_TAG_subprogram)
    <a3b>   DW_AT_external    : 1
    <a3b>   DW_AT_declaration : 1
    <a3b>   DW_AT_linkage_name: (indirect string, offset: 0x31b): printf
    <a3f>   DW_AT_name        : (indirect string, offset: 0x311): __builtin_printf
    <a43>   DW_AT_decl_file   : 10
    <a43>   DW_AT_decl_line   : 0
 <1><a43>: Abbrev Number: 7 (DW_TAG_subprogram)
    <a44>   DW_AT_external    : 1
    <a44>   DW_AT_declaration : 1
    <a44>   DW_AT_linkage_name: (indirect string, offset: 0x1f8): fprintf
    <a48>   DW_AT_name        : (indirect string, offset: 0x1ee): __builtin_fprintf
    <a4c>   DW_AT_decl_file   : 10
    <a4c>   DW_AT_decl_line   : 0
 <1><a4c>: Abbrev Number: 7 (DW_TAG_subprogram)
    <a4d>   DW_AT_external    : 1
    <a4d>   DW_AT_declaration : 1
    <a4d>   DW_AT_linkage_name: (indirect string, offset: 0x1e6): sprintf
    <a51>   DW_AT_name        : (indirect string, offset: 0x1dc): __builtin_sprintf
    <a55>   DW_AT_decl_file   : 10
    <a55>   DW_AT_decl_line   : 0
 <1><a55>: Abbrev Number: 7 (DW_TAG_subprogram)
    <a56>   DW_AT_external    : 1
    <a56>   DW_AT_declaration : 1
    <a56>   DW_AT_linkage_name: (indirect string, offset: 0x89): fwrite
    <a5a>   DW_AT_name        : (indirect string, offset: 0x7f): __builtin_fwrite
    <a5e>   DW_AT_decl_file   : 10
    <a5e>   DW_AT_decl_line   : 0
 <1><a5e>: Abbrev Number: 7 (DW_TAG_subprogram)
    <a5f>   DW_AT_external    : 1
    <a5f>   DW_AT_declaration : 1
    <a5f>   DW_AT_linkage_name: (indirect string, offset: 0xa9): fputc
    <a63>   DW_AT_name        : (indirect string, offset: 0x9f): __builtin_fputc
    <a67>   DW_AT_decl_file   : 10
    <a67>   DW_AT_decl_line   : 0
 <1><a67>: Abbrev Number: 7 (DW_TAG_subprogram)
    <a68>   DW_AT_external    : 1
    <a68>   DW_AT_declaration : 1
    <a68>   DW_AT_linkage_name: (indirect string, offset: 0x10f): exit
    <a6c>   DW_AT_name        : (indirect string, offset: 0x105): __builtin_exit
    <a70>   DW_AT_decl_file   : 10
    <a70>   DW_AT_decl_line   : 0
 <1><a70>: Abbrev Number: 0

Contents of the .debug_abbrev section (loaded from a.out):

  Number TAG (0)
   1      DW_TAG_call_site_parameter    [no children]
    DW_AT_location     DW_FORM_exprloc
    DW_AT_call_value   DW_FORM_exprloc
    DW_AT value: 0     DW_FORM value: 0
   2      DW_TAG_member    [no children]
    DW_AT_name         DW_FORM_strp
    DW_AT_decl_file    DW_FORM_data1
    DW_AT_decl_line    DW_FORM_data1
    DW_AT_decl_column  DW_FORM_data1
    DW_AT_type         DW_FORM_ref4
    DW_AT_data_member_location DW_FORM_data1
    DW_AT value: 0     DW_FORM value: 0
   3      DW_TAG_call_site    [has children]
    DW_AT_call_return_pc DW_FORM_addr
    DW_AT_call_origin  DW_FORM_ref4
    DW_AT_sibling      DW_FORM_ref4
    DW_AT value: 0     DW_FORM value: 0
   4      DW_TAG_base_type    [no children]
    DW_AT_byte_size    DW_FORM_data1
    DW_AT_encoding     DW_FORM_data1
    DW_AT_name         DW_FORM_strp
    DW_AT value: 0     DW_FORM value: 0
   5      DW_TAG_formal_parameter    [no children]
    DW_AT_type         DW_FORM_ref4
    DW_AT value: 0     DW_FORM value: 0
   6      DW_TAG_pointer_type    [no children]
    DW_AT_byte_size    DW_FORM_implicit_const: 8
    DW_AT_type         DW_FORM_ref4
    DW_AT value: 0     DW_FORM value: 0
   7      DW_TAG_subprogram    [no children]
    DW_AT_external     DW_FORM_flag_present
    DW_AT_declaration  DW_FORM_flag_present
    DW_AT_linkage_name DW_FORM_strp
    DW_AT_name         DW_FORM_strp
    DW_AT_decl_file    DW_FORM_implicit_const: 10
    DW_AT_decl_line    DW_FORM_implicit_const: 0
    DW_AT value: 0     DW_FORM value: 0
   8      DW_TAG_typedef    [no children]
    DW_AT_name         DW_FORM_strp
    DW_AT_decl_file    DW_FORM_data1
    DW_AT_decl_line    DW_FORM_data1
    DW_AT_decl_column  DW_FORM_data1
    DW_AT_type         DW_FORM_ref4
    DW_AT value: 0     DW_FORM value: 0
   9      DW_TAG_call_site    [no children]
    DW_AT_call_return_pc DW_FORM_addr
    DW_AT_call_origin  DW_FORM_ref4
    DW_AT value: 0     DW_FORM value: 0
   10      DW_TAG_variable    [no children]
    DW_AT_name         DW_FORM_strp
    DW_AT_decl_file    DW_FORM_implicit_const: 1
    DW_AT_decl_line    DW_FORM_data1
    DW_AT_decl_column  DW_FORM_implicit_const: 21
    DW_AT_type         DW_FORM_ref4
    DW_AT_const_value  DW_FORM_block1
    DW_AT value: 0     DW_FORM value: 0
   11      DW_TAG_subprogram    [has children]
    DW_AT_external     DW_FORM_flag_present
    DW_AT_name         DW_FORM_strp
    DW_AT_decl_file    DW_FORM_data1
    DW_AT_decl_line    DW_FORM_data2
    DW_AT_decl_column  DW_FORM_data1
    DW_AT_prototyped   DW_FORM_flag_present
    DW_AT_type         DW_FORM_ref4
    DW_AT_declaration  DW_FORM_flag_present
    DW_AT_sibling      DW_FORM_ref4
    DW_AT value: 0     DW_FORM value: 0
   12      DW_TAG_subprogram    [has children]
    DW_AT_external     DW_FORM_flag_present
    DW_AT_name         DW_FORM_strp
    DW_AT_decl_file    DW_FORM_implicit_const: 1
    DW_AT_decl_line    DW_FORM_data1
    DW_AT_decl_column  DW_FORM_implicit_const: 6
    DW_AT_prototyped   DW_FORM_flag_present
    DW_AT_low_pc       DW_FORM_addr
    DW_AT_high_pc      DW_FORM_data8
    DW_AT_frame_base   DW_FORM_exprloc
    DW_AT_call_all_calls DW_FORM_flag_present
    DW_AT_sibling      DW_FORM_ref4
    DW_AT value: 0     DW_FORM value: 0
   13      DW_TAG_const_type    [no children]
    DW_AT_type         DW_FORM_ref4
    DW_AT value: 0     DW_FORM value: 0
   14      DW_TAG_array_type    [has children]
    DW_AT_type         DW_FORM_ref4
    DW_AT_sibling      DW_FORM_ref4
    DW_AT value: 0     DW_FORM value: 0
   15      DW_TAG_subrange_type    [no children]
    DW_AT_type         DW_FORM_ref4
    DW_AT_upper_bound  DW_FORM_data1
    DW_AT value: 0     DW_FORM value: 0
   16      DW_TAG_formal_parameter    [no children]
    DW_AT_name         DW_FORM_strp
    DW_AT_decl_file    DW_FORM_implicit_const: 1
    DW_AT_decl_line    DW_FORM_data1
    DW_AT_decl_column  DW_FORM_data1
    DW_AT_type         DW_FORM_ref4
    DW_AT_location     DW_FORM_sec_offset
    DW_AT_GNU_locviews DW_FORM_sec_offset
    DW_AT value: 0     DW_FORM value: 0
   17      DW_TAG_call_site    [has children]
    DW_AT_call_return_pc DW_FORM_addr
    DW_AT_call_origin  DW_FORM_ref4
    DW_AT value: 0     DW_FORM value: 0
   18      DW_TAG_structure_type    [no children]
    DW_AT_name         DW_FORM_strp
    DW_AT_declaration  DW_FORM_flag_present
    DW_AT value: 0     DW_FORM value: 0
   19      DW_TAG_unspecified_parameters    [no children]
    DW_AT value: 0     DW_FORM value: 0
   20      DW_TAG_formal_parameter    [no children]
    DW_AT_name         DW_FORM_string
    DW_AT_decl_file    DW_FORM_implicit_const: 1
    DW_AT_decl_line    DW_FORM_data1
    DW_AT_decl_column  DW_FORM_data1
    DW_AT_type         DW_FORM_ref4
    DW_AT_location     DW_FORM_sec_offset
    DW_AT_GNU_locviews DW_FORM_sec_offset
    DW_AT value: 0     DW_FORM value: 0
   21      DW_TAG_structure_type    [has children]
    DW_AT_name         DW_FORM_strp
    DW_AT_byte_size    DW_FORM_data1
    DW_AT_decl_file    DW_FORM_data1
    DW_AT_decl_line    DW_FORM_data1
    DW_AT_decl_column  DW_FORM_implicit_const: 8
    DW_AT_sibling      DW_FORM_ref4
    DW_AT value: 0     DW_FORM value: 0
   22      DW_TAG_restrict_type    [no children]
    DW_AT_type         DW_FORM_ref4
    DW_AT value: 0     DW_FORM value: 0
   23      DW_TAG_variable    [no children]
    DW_AT_name         DW_FORM_string
    DW_AT_decl_file    DW_FORM_implicit_const: 1
    DW_AT_decl_line    DW_FORM_data1
    DW_AT_decl_column  DW_FORM_data1
    DW_AT_type         DW_FORM_ref4
    DW_AT_location     DW_FORM_exprloc
    DW_AT value: 0     DW_FORM value: 0
   24      DW_TAG_variable    [no children]
    DW_AT_name         DW_FORM_strp
    DW_AT_decl_file    DW_FORM_implicit_const: 1
    DW_AT_decl_line    DW_FORM_data1
    DW_AT_decl_column  DW_FORM_data1
    DW_AT_type         DW_FORM_ref4
    DW_AT_location     DW_FORM_exprloc
    DW_AT value: 0     DW_FORM value: 0
   25      DW_TAG_subprogram    [has children]
    DW_AT_external     DW_FORM_flag_present
    DW_AT_name         DW_FORM_strp
    DW_AT_decl_file    DW_FORM_implicit_const: 8
    DW_AT_decl_line    DW_FORM_data1
    DW_AT_decl_column  DW_FORM_implicit_const: 12
    DW_AT_prototyped   DW_FORM_flag_present
    DW_AT_type         DW_FORM_ref4
    DW_AT_declaration  DW_FORM_flag_present
    DW_AT_sibling      DW_FORM_ref4
    DW_AT value: 0     DW_FORM value: 0
   26      DW_TAG_compile_unit    [has children]
    DW_AT_producer     DW_FORM_strp
    DW_AT_language     DW_FORM_data1
    DW_AT_name         DW_FORM_strp
    DW_AT_comp_dir     DW_FORM_strp
    DW_AT_low_pc       DW_FORM_addr
    DW_AT_high_pc      DW_FORM_data8
    DW_AT_stmt_list    DW_FORM_sec_offset
    DW_AT value: 0     DW_FORM value: 0
   27      DW_TAG_base_type    [no children]
    DW_AT_byte_size    DW_FORM_data1
    DW_AT_encoding     DW_FORM_data1
    DW_AT_name         DW_FORM_string
    DW_AT value: 0     DW_FORM value: 0
   28      DW_TAG_pointer_type    [no children]
    DW_AT_byte_size    DW_FORM_data1
    DW_AT value: 0     DW_FORM value: 0
   29      DW_TAG_typedef    [no children]
    DW_AT_name         DW_FORM_strp
    DW_AT_decl_file    DW_FORM_data1
    DW_AT_decl_line    DW_FORM_data1
    DW_AT_decl_column  DW_FORM_data1
    DW_AT value: 0     DW_FORM value: 0
   30      DW_TAG_variable    [no children]
    DW_AT_name         DW_FORM_strp
    DW_AT_decl_file    DW_FORM_data1
    DW_AT_decl_line    DW_FORM_data1
    DW_AT_decl_column  DW_FORM_data1
    DW_AT_type         DW_FORM_ref4
    DW_AT_const_value  DW_FORM_data2
    DW_AT value: 0     DW_FORM value: 0
   31      DW_TAG_subprogram    [has children]
    DW_AT_external     DW_FORM_flag_present
    DW_AT_name         DW_FORM_strp
    DW_AT_decl_file    DW_FORM_data1
    DW_AT_decl_line    DW_FORM_data2
    DW_AT_decl_column  DW_FORM_data1
    DW_AT_prototyped   DW_FORM_flag_present
    DW_AT_noreturn     DW_FORM_flag_present
    DW_AT_declaration  DW_FORM_flag_present
    DW_AT_sibling      DW_FORM_ref4
    DW_AT value: 0     DW_FORM value: 0
   32      DW_TAG_subprogram    [has children]
    DW_AT_external     DW_FORM_flag_present
    DW_AT_name         DW_FORM_strp
    DW_AT_decl_file    DW_FORM_data1
    DW_AT_decl_line    DW_FORM_data1
    DW_AT_decl_column  DW_FORM_data1
    DW_AT_prototyped   DW_FORM_flag_present
    DW_AT_type         DW_FORM_ref4
    DW_AT_low_pc       DW_FORM_addr
    DW_AT_high_pc      DW_FORM_data8
    DW_AT_frame_base   DW_FORM_exprloc
    DW_AT_call_all_calls DW_FORM_flag_present
    DW_AT_sibling      DW_FORM_ref4
    DW_AT value: 0     DW_FORM value: 0
   33      DW_TAG_variable    [no children]
    DW_AT_name         DW_FORM_strp
    DW_AT_decl_file    DW_FORM_data1
    DW_AT_decl_line    DW_FORM_data1
    DW_AT_decl_column  DW_FORM_data1
    DW_AT_type         DW_FORM_ref4
    DW_AT_location     DW_FORM_sec_offset
    DW_AT_GNU_locviews DW_FORM_sec_offset
    DW_AT value: 0     DW_FORM value: 0

Raw dump of debug contents of section .debug_line (loaded from a.out):

  Offset:                      0
  Length:                      750
  DWARF Version:               3
  Prologue Length:             324
  Minimum Instruction Length:  1
  Initial value of 'is_stmt':  1
  Line Base:                   -5
  Line Range:                  14
  Opcode Base:                 13

 Opcodes:
  Opcode 1 has 0 args
  Opcode 2 has 1 arg
  Opcode 3 has 1 arg
  Opcode 4 has 1 arg
  Opcode 5 has 1 arg
  Opcode 6 has 0 args
  Opcode 7 has 0 args
  Opcode 8 has 0 args
  Opcode 9 has 1 arg
  Opcode 10 has 0 args
  Opcode 11 has 0 args
  Opcode 12 has 1 arg

 The Directory Table (offset 0x1b):
  1	..
  2	/usr/lib/gcc-cross/mips64-linux-gnuabi64/12/include
  3	/usr/mips64-linux-gnuabi64/include/bits
  4	/usr/mips64-linux-gnuabi64/include/bits/types
  5	/usr/mips64-linux-gnuabi64/include

 The File Name Table (offset 0xcc):
  Entry	Dir	Time	Size	Name
  1	1	0	0	morse.c
  2	2	0	0	stddef.h
  3	3	0	0	types.h
  4	4	0	0	struct_FILE.h
  5	4	0	0	FILE.h
  6	4	0	0	struct_timespec.h
  7	5	0	0	time.h
  8	5	0	0	stdio.h
  9	5	0	0	stdlib.h
  10	0	0	0	<built-in>

 Line Number Statements:
  [0x0000014e]  Set column to 1
  [0x00000150]  Extended opcode 2: set Address to 0xf30
  [0x0000015b]  Advance Line by 18 to 19
  [0x0000015d]  Copy
  [0x0000015e]  Set is_stmt to 0
  [0x0000015f]  Copy (view 1)
  [0x00000160]  Set column to 2
  [0x00000162]  Set is_stmt to 1
  [0x00000163]  Advance PC by 36 to 0xf54
  [0x00000165]  Special opcode 6: advance Address by 0 to 0xf54 and Line by 1 to 20
  [0x00000166]  Special opcode 7: advance Address by 0 to 0xf54 and Line by 2 to 22 (view 1)
  [0x00000167]  Set is_stmt to 0
  [0x00000168]  Special opcode 173: advance Address by 12 to 0xf60 and Line by 0 to 22
  [0x00000169]  Set is_stmt to 1
  [0x0000016a]  Special opcode 174: advance Address by 12 to 0xf6c and Line by 1 to 23
  [0x0000016b]  Advance PC by constant 17 to 0xf7d
  [0x0000016c]  Special opcode 48: advance Address by 3 to 0xf80 and Line by 1 to 24
  [0x0000016d]  Set column to 7
  [0x0000016f]  Set is_stmt to 0
  [0x00000170]  Copy (view 1)
  [0x00000171]  Set column to 5
  [0x00000173]  Advance PC by constant 17 to 0xf91
  [0x00000174]  Special opcode 47: advance Address by 3 to 0xf94 and Line by 0 to 24
  [0x00000175]  Set column to 2
  [0x00000177]  Set is_stmt to 1
  [0x00000178]  Special opcode 62: advance Address by 4 to 0xf98 and Line by 1 to 25
  [0x00000179]  Set column to 4
  [0x0000017b]  Set is_stmt to 0
  [0x0000017c]  Copy (view 1)
  [0x0000017d]  Set column to 2
  [0x0000017f]  Set is_stmt to 1
  [0x00000180]  Advance Line by 22 to 47
  [0x00000182]  Special opcode 117: advance Address by 8 to 0xfa0 and Line by 0 to 47
  [0x00000183]  Advance PC by constant 17 to 0xfb1
  [0x00000184]  Special opcode 216: advance Address by 15 to 0xfc0 and Line by 1 to 48
  [0x00000185]  Special opcode 175: advance Address by 12 to 0xfcc and Line by 2 to 50
  [0x00000186]  Advance PC by constant 17 to 0xfdd
  [0x00000187]  Special opcode 104: advance Address by 7 to 0xfe4 and Line by 1 to 51
  [0x00000188]  Advance PC by constant 17 to 0xff5
  [0x00000189]  Special opcode 48: advance Address by 3 to 0xff8 and Line by 1 to 52
  [0x0000018a]  Set column to 7
  [0x0000018c]  Set is_stmt to 0
  [0x0000018d]  Copy (view 1)
  [0x0000018e]  Set column to 2
  [0x00000190]  Set is_stmt to 1
  [0x00000191]  Advance PC by constant 17 to 0x1009
  [0x00000192]  Special opcode 104: advance Address by 7 to 0x1010 and Line by 1 to 53
  [0x00000193]  Set column to 4
  [0x00000195]  Set is_stmt to 0
  [0x00000196]  Copy (view 1)
  [0x00000197]  Set column to 2
  [0x00000199]  Set is_stmt to 1
  [0x0000019a]  Special opcode 123: advance Address by 8 to 0x1018 and Line by 6 to 59
  [0x0000019b]  Special opcode 174: advance Address by 12 to 0x1024 and Line by 1 to 60
  [0x0000019c]  Set column to 1
  [0x0000019e]  Set is_stmt to 0
  [0x0000019f]  Special opcode 230: advance Address by 16 to 0x1034 and Line by 1 to 61
  [0x000001a0]  Set column to 3
  [0x000001a2]  Set is_stmt to 1
  [0x000001a3]  Advance Line by -33 to 28
  [0x000001a5]  Advance PC by constant 17 to 0x1045
  [0x000001a6]  Special opcode 103: advance Address by 7 to 0x104c and Line by 0 to 28
  [0x000001a7]  Special opcode 230: advance Address by 16 to 0x105c and Line by 1 to 29
  [0x000001a8]  Set column to 8
  [0x000001aa]  Set is_stmt to 0
  [0x000001ab]  Copy (view 1)
  [0x000001ac]  Set column to 6
  [0x000001ae]  Advance PC by constant 17 to 0x106d
  [0x000001af]  Special opcode 159: advance Address by 11 to 0x1078 and Line by 0 to 29
  [0x000001b0]  Set column to 3
  [0x000001b2]  Set is_stmt to 1
  [0x000001b3]  Special opcode 62: advance Address by 4 to 0x107c and Line by 1 to 30
  [0x000001b4]  Set column to 5
  [0x000001b6]  Set is_stmt to 0
  [0x000001b7]  Copy (view 1)
  [0x000001b8]  Set column to 3
  [0x000001ba]  Set is_stmt to 1
  [0x000001bb]  Special opcode 122: advance Address by 8 to 0x1084 and Line by 5 to 35
  [0x000001bc]  Advance PC by constant 17 to 0x1095
  [0x000001bd]  Special opcode 48: advance Address by 3 to 0x1098 and Line by 1 to 36
  [0x000001be]  Special opcode 231: advance Address by 16 to 0x10a8 and Line by 2 to 38
  [0x000001bf]  Advance PC by constant 17 to 0x10b9
  [0x000001c0]  Special opcode 48: advance Address by 3 to 0x10bc and Line by 1 to 39
  [0x000001c1]  Set column to 8
  [0x000001c3]  Set is_stmt to 0
  [0x000001c4]  Copy (view 1)
  [0x000001c5]  Set column to 3
  [0x000001c7]  Set is_stmt to 1
  [0x000001c8]  Advance PC by constant 17 to 0x10cd
  [0x000001c9]  Special opcode 48: advance Address by 3 to 0x10d0 and Line by 1 to 40
  [0x000001ca]  Set column to 5
  [0x000001cc]  Set is_stmt to 0
  [0x000001cd]  Copy (view 1)
  [0x000001ce]  Set column to 4
  [0x000001d0]  Set is_stmt to 1
  [0x000001d1]  Special opcode 119: advance Address by 8 to 0x10d8 and Line by 2 to 42
  [0x000001d2]  Special opcode 230: advance Address by 16 to 0x10e8 and Line by 1 to 43
  [0x000001d3]  Advance Line by -11 to 32
  [0x000001d5]  Special opcode 173: advance Address by 12 to 0x10f4 and Line by 0 to 32
  [0x000001d6]  Special opcode 230: advance Address by 16 to 0x1104 and Line by 1 to 33
  [0x000001d7]  Set column to 3
  [0x000001d9]  Advance Line by 22 to 55
  [0x000001db]  Special opcode 173: advance Address by 12 to 0x1110 and Line by 0 to 55
  [0x000001dc]  Special opcode 230: advance Address by 16 to 0x1120 and Line by 1 to 56
  [0x000001dd]  Set column to 1
  [0x000001df]  Special opcode 181: advance Address by 12 to 0x112c and Line by 8 to 64
  [0x000001e0]  Set is_stmt to 0
  [0x000001e1]  Copy (view 1)
  [0x000001e2]  Set column to 2
  [0x000001e4]  Set is_stmt to 1
  [0x000001e5]  Advance PC by constant 17 to 0x113d
  [0x000001e6]  Special opcode 104: advance Address by 7 to 0x1144 and Line by 1 to 65
  [0x000001e7]  Extended opcode 4: set Discriminator to 4
  [0x000001eb]  Set is_stmt to 0
  [0x000001ec]  Advance PC by constant 17 to 0x1155
  [0x000001ed]  Special opcode 47: advance Address by 3 to 0x1158 and Line by 0 to 65
  [0x000001ee]  Extended opcode 4: set Discriminator to 4
  [0x000001f2]  Set is_stmt to 1
  [0x000001f3]  Special opcode 174: advance Address by 12 to 0x1164 and Line by 1 to 66
  [0x000001f4]  Set column to 1
  [0x000001f6]  Extended opcode 4: set Discriminator to 4
  [0x000001fa]  Set is_stmt to 0
  [0x000001fb]  Special opcode 230: advance Address by 16 to 0x1174 and Line by 1 to 67
  [0x000001fc]  Set column to 2
  [0x000001fe]  Special opcode 227: advance Address by 16 to 0x1184 and Line by -2 to 65
  [0x000001ff]  Set column to 1
  [0x00000201]  Set is_stmt to 1
  [0x00000202]  Special opcode 179: advance Address by 12 to 0x1190 and Line by 6 to 71
  [0x00000203]  Set is_stmt to 0
  [0x00000204]  Copy (view 1)
  [0x00000205]  Set column to 2
  [0x00000207]  Set is_stmt to 1
  [0x00000208]  Advance PC by constant 17 to 0x11a1
  [0x00000209]  Special opcode 104: advance Address by 7 to 0x11a8 and Line by 1 to 72
  [0x0000020a]  Set column to 5
  [0x0000020c]  Special opcode 6: advance Address by 0 to 0x11a8 and Line by 1 to 73 (view 1)
  [0x0000020d]  Set column to 16
  [0x0000020f]  Set is_stmt to 0
  [0x00000210]  Copy (view 2)
  [0x00000211]  Set column to 5
  [0x00000213]  Set is_stmt to 1
  [0x00000214]  Special opcode 62: advance Address by 4 to 0x11ac and Line by 1 to 74
  [0x00000215]  Set column to 23
  [0x00000217]  Set is_stmt to 0
  [0x00000218]  Copy (view 1)
  [0x00000219]  Set column to 17
  [0x0000021b]  Special opcode 173: advance Address by 12 to 0x11b8 and Line by 0 to 74
  [0x0000021c]  Set column to 2
  [0x0000021e]  Set is_stmt to 1
  [0x0000021f]  Special opcode 118: advance Address by 8 to 0x11c0 and Line by 1 to 75
  [0x00000220]  Set column to 1
  [0x00000222]  Set is_stmt to 0
  [0x00000223]  Special opcode 230: advance Address by 16 to 0x11d0 and Line by 1 to 76
  [0x00000224]  Set is_stmt to 1
  [0x00000225]  Advance Line by 65 to 141
  [0x00000228]  Special opcode 229: advance Address by 16 to 0x11e0 and Line by 0 to 141
  [0x00000229]  Set is_stmt to 0
  [0x0000022a]  Copy (view 1)
  [0x0000022b]  Set column to 2
  [0x0000022d]  Set is_stmt to 1
  [0x0000022e]  Advance PC by 48 to 0x1210
  [0x00000230]  Special opcode 7: advance Address by 0 to 0x1210 and Line by 2 to 143
  [0x00000231]  Set column to 4
  [0x00000233]  Set is_stmt to 0
  [0x00000234]  Copy (view 1)
  [0x00000235]  Set column to 2
  [0x00000237]  Set is_stmt to 1
  [0x00000238]  Special opcode 181: advance Address by 12 to 0x121c and Line by 8 to 151
  [0x00000239]  Special opcode 6: advance Address by 0 to 0x121c and Line by 1 to 152 (view 1)
  [0x0000023a]  Set column to 16
  [0x0000023c]  Set is_stmt to 0
  [0x0000023d]  Copy (view 2)
  [0x0000023e]  Set column to 4
  [0x00000240]  Special opcode 61: advance Address by 4 to 0x1220 and Line by 0 to 152
  [0x00000241]  Set column to 3
  [0x00000243]  Set is_stmt to 1
  [0x00000244]  Special opcode 231: advance Address by 16 to 0x1230 and Line by 2 to 154
  [0x00000245]  Set column to 11
  [0x00000247]  Set is_stmt to 0
  [0x00000248]  Copy (view 1)
  [0x00000249]  Set column to 2
  [0x0000024b]  Set is_stmt to 1
  [0x0000024c]  Advance Line by 11 to 165
  [0x0000024e]  Advance PC by constant 17 to 0x1241
  [0x0000024f]  Special opcode 103: advance Address by 7 to 0x1248 and Line by 0 to 165
  [0x00000250]  Set is_stmt to 0
  [0x00000251]  Special opcode 117: advance Address by 8 to 0x1250 and Line by 0 to 165
  [0x00000252]  Set is_stmt to 1
  [0x00000253]  Special opcode 176: advance Address by 12 to 0x125c and Line by 3 to 168
  [0x00000254]  Set column to 8
  [0x00000256]  Copy (view 1)
  [0x00000257]  Set column to 5
  [0x00000259]  Set is_stmt to 0
  [0x0000025a]  Special opcode 178: advance Address by 12 to 0x1268 and Line by 5 to 173
  [0x0000025b]  Set column to 4
  [0x0000025d]  Special opcode 67: advance Address by 4 to 0x126c and Line by 6 to 179
  [0x0000025e]  Special opcode 169: advance Address by 12 to 0x1278 and Line by -4 to 175
  [0x0000025f]  Set column to 3
  [0x00000261]  Special opcode 125: advance Address by 8 to 0x1280 and Line by 8 to 183
  [0x00000262]  Set is_stmt to 1
  [0x00000263]  Advance Line by -38 to 145
  [0x00000265]  Special opcode 117: advance Address by 8 to 0x1288 and Line by 0 to 145
  [0x00000266]  Set is_stmt to 0
  [0x00000267]  Special opcode 61: advance Address by 4 to 0x128c and Line by 0 to 145
  [0x00000268]  Set is_stmt to 1
  [0x00000269]  Special opcode 174: advance Address by 12 to 0x1298 and Line by 1 to 146
  [0x0000026a]  Special opcode 230: advance Address by 16 to 0x12a8 and Line by 1 to 147
  [0x0000026b]  Set column to 7
  [0x0000026d]  Advance Line by 9 to 156
  [0x0000026f]  Special opcode 117: advance Address by 8 to 0x12b0 and Line by 0 to 156
  [0x00000270]  Set column to 3
  [0x00000272]  Special opcode 7: advance Address by 0 to 0x12b0 and Line by 2 to 158 (view 1)
  [0x00000273]  Set column to 28
  [0x00000275]  Set is_stmt to 0
  [0x00000276]  Copy (view 2)
  [0x00000277]  Set column to 11
  [0x00000279]  Special opcode 61: advance Address by 4 to 0x12b4 and Line by 0 to 158
  [0x0000027a]  Advance PC by constant 17 to 0x12c5
  [0x0000027b]  Special opcode 47: advance Address by 3 to 0x12c8 and Line by 0 to 158
  [0x0000027c]  Set column to 4
  [0x0000027e]  Set is_stmt to 1
  [0x0000027f]  Advance Line by 17 to 175
  [0x00000281]  Special opcode 117: advance Address by 8 to 0x12d0 and Line by 0 to 175
  [0x00000282]  Set column to 3
  [0x00000284]  Special opcode 124: advance Address by 8 to 0x12d8 and Line by 7 to 182
  [0x00000285]  Special opcode 174: advance Address by 12 to 0x12e4 and Line by 1 to 183
  [0x00000286]  Special opcode 175: advance Address by 12 to 0x12f0 and Line by 2 to 185
  [0x00000287]  Set column to 10
  [0x00000289]  Set is_stmt to 0
  [0x0000028a]  Copy (view 1)
  [0x0000028b]  Set column to 8
  [0x0000028d]  Set is_stmt to 1
  [0x0000028e]  Advance Line by -17 to 168
  [0x00000290]  Special opcode 61: advance Address by 4 to 0x12f4 and Line by 0 to 168
  [0x00000291]  Set column to 3
  [0x00000293]  Special opcode 176: advance Address by 12 to 0x1300 and Line by 3 to 171
  [0x00000294]  Special opcode 175: advance Address by 12 to 0x130c and Line by 2 to 173
  [0x00000295]  Set column to 5
  [0x00000297]  Set is_stmt to 0
  [0x00000298]  Copy (view 1)
  [0x00000299]  Set column to 4
  [0x0000029b]  Set is_stmt to 1
  [0x0000029c]  Special opcode 179: advance Address by 12 to 0x1318 and Line by 6 to 179
  [0x0000029d]  Set column to 3
  [0x0000029f]  Set is_stmt to 0
  [0x000002a0]  Special opcode 120: advance Address by 8 to 0x1320 and Line by 3 to 182
  [0x000002a1]  Set is_stmt to 1
  [0x000002a2]  Special opcode 121: advance Address by 8 to 0x1328 and Line by 4 to 186
  [0x000002a3]  Set column to 2
  [0x000002a5]  Special opcode 7: advance Address by 0 to 0x1328 and Line by 2 to 188 (view 1)
  [0x000002a6]  Set column to 1
  [0x000002a8]  Set is_stmt to 0
  [0x000002a9]  Special opcode 230: advance Address by 16 to 0x1338 and Line by 1 to 189
  [0x000002aa]  Set is_stmt to 1
  [0x000002ab]  Advance PC by 44 to 0x1364
  [0x000002ad]  Special opcode 9: advance Address by 0 to 0x1364 and Line by 4 to 193
  [0x000002ae]  Set is_stmt to 0
  [0x000002af]  Copy (view 1)
  [0x000002b0]  Set column to 2
  [0x000002b2]  Set is_stmt to 1
  [0x000002b3]  Advance PC by constant 17 to 0x1375
  [0x000002b4]  Special opcode 217: advance Address by 15 to 0x1384 and Line by 2 to 195
  [0x000002b5]  Set column to 8
  [0x000002b7]  Copy (view 1)
  [0x000002b8]  Set column to 14
  [0x000002ba]  Set is_stmt to 0
  [0x000002bb]  Copy (view 2)
  [0x000002bc]  Set column to 8
  [0x000002be]  Special opcode 61: advance Address by 4 to 0x1388 and Line by 0 to 195
  [0x000002bf]  Set column to 3
  [0x000002c1]  Special opcode 119: advance Address by 8 to 0x1390 and Line by 2 to 197
  [0x000002c2]  Set is_stmt to 1
  [0x000002c3]  Special opcode 61: advance Address by 4 to 0x1394 and Line by 0 to 197
  [0x000002c4]  Special opcode 174: advance Address by 12 to 0x13a0 and Line by 1 to 198
  [0x000002c5]  Set column to 8
  [0x000002c7]  Special opcode 2: advance Address by 0 to 0x13a0 and Line by -3 to 195 (view 1)
  [0x000002c8]  Set column to 14
  [0x000002ca]  Set is_stmt to 0
  [0x000002cb]  Copy (view 2)
  [0x000002cc]  Set column to 8
  [0x000002ce]  Special opcode 61: advance Address by 4 to 0x13a4 and Line by 0 to 195
  [0x000002cf]  Set column to 1
  [0x000002d1]  Special opcode 122: advance Address by 8 to 0x13ac and Line by 5 to 200
  [0x000002d2]  Special opcode 229: advance Address by 16 to 0x13bc and Line by 0 to 200
  [0x000002d3]  Set column to 34
  [0x000002d5]  Set is_stmt to 1
  [0x000002d6]  Special opcode 118: advance Address by 8 to 0x13c4 and Line by 1 to 201
  [0x000002d7]  Set is_stmt to 0
  [0x000002d8]  Copy (view 1)
  [0x000002d9]  Set column to 5
  [0x000002db]  Set is_stmt to 1
  [0x000002dc]  Advance PC by constant 17 to 0x13d5
  [0x000002dd]  Special opcode 105: advance Address by 7 to 0x13dc and Line by 2 to 203
  [0x000002de]  Set is_stmt to 0
  [0x000002df]  Special opcode 61: advance Address by 4 to 0x13e0 and Line by 0 to 203
  [0x000002e0]  Special opcode 173: advance Address by 12 to 0x13ec and Line by 0 to 203
  [0x000002e1]  Set column to 2
  [0x000002e3]  Set is_stmt to 1
  [0x000002e4]  Special opcode 6: advance Address by 0 to 0x13ec and Line by 1 to 204 (view 1)
  [0x000002e5]  Special opcode 174: advance Address by 12 to 0x13f8 and Line by 1 to 205
  [0x000002e6]  Set column to 5
  [0x000002e8]  Special opcode 230: advance Address by 16 to 0x1408 and Line by 1 to 206
  [0x000002e9]  Set column to 1
  [0x000002eb]  Set is_stmt to 0
  [0x000002ec]  Special opcode 6: advance Address by 0 to 0x1408 and Line by 1 to 207 (view 1)
  [0x000002ed]  Advance PC by 20 to 0x141c
  [0x000002ef]  Extended opcode 1: End of Sequence


Contents of the .debug_frame section (loaded from a.out):


00000000 000000000000000c ffffffff CIE
  Version:               1
  Augmentation:          ""
  Code alignment factor: 1
  Data alignment factor: -4
  Return address column: 31

  DW_CFA_def_cfa_register: r29
  DW_CFA_nop

00000010 000000000000002c 00000000 FDE cie=00000000 pc=0000000000000f30..000000000000112c
  DW_CFA_advance_loc: 4 to 0000000000000f34
  DW_CFA_def_cfa_offset: 96
  DW_CFA_advance_loc: 16 to 0000000000000f44
  DW_CFA_offset: r31 at cfa-8
  DW_CFA_offset: r28 at cfa-16
  DW_CFA_offset: r17 at cfa-24
  DW_CFA_offset: r16 at cfa-32
  DW_CFA_advance_loc2: 264 to 000000000000104c
  DW_CFA_remember_state
  DW_CFA_def_cfa_offset: 0
  DW_CFA_restore: r16
  DW_CFA_restore: r17
  DW_CFA_restore: r28
  DW_CFA_restore: r31
  DW_CFA_restore_state
  DW_CFA_nop

00000040 0000000000000024 00000000 FDE cie=00000000 pc=000000000000112c..0000000000001190
  DW_CFA_advance_loc: 4 to 0000000000001130
  DW_CFA_def_cfa_offset: 16
  DW_CFA_advance_loc: 8 to 0000000000001138
  DW_CFA_offset: r31 at cfa-8
  DW_CFA_offset: r28 at cfa-16
  DW_CFA_advance_loc1: 76 to 0000000000001184
  DW_CFA_remember_state
  DW_CFA_def_cfa_offset: 0
  DW_CFA_restore: r28
  DW_CFA_restore: r31
  DW_CFA_restore_state

00000068 0000000000000024 00000000 FDE cie=00000000 pc=0000000000001190..00000000000011e0
  DW_CFA_advance_loc: 4 to 0000000000001194
  DW_CFA_def_cfa_offset: 32
  DW_CFA_advance_loc: 8 to 000000000000119c
  DW_CFA_offset: r31 at cfa-8
  DW_CFA_offset: r28 at cfa-16
  DW_CFA_advance_loc1: 68 to 00000000000011e0
  DW_CFA_def_cfa_offset: 0
  DW_CFA_restore: r28
  DW_CFA_restore: r31
  DW_CFA_nop
  DW_CFA_nop

00000090 000000000000003c 00000000 FDE cie=00000000 pc=00000000000011e0..0000000000001364
  DW_CFA_advance_loc: 4 to 00000000000011e4
  DW_CFA_def_cfa_offset: 80
  DW_CFA_advance_loc: 36 to 0000000000001208
  DW_CFA_offset: r31 at cfa-40
  DW_CFA_offset: r28 at cfa-48
  DW_CFA_offset: r19 at cfa-56
  DW_CFA_offset: r18 at cfa-64
  DW_CFA_offset: r17 at cfa-72
  DW_CFA_offset: r16 at cfa-80
  DW_CFA_offset: r58 at cfa-8
  DW_CFA_offset: r57 at cfa-16
  DW_CFA_offset: r56 at cfa-24
  DW_CFA_advance_loc2: 348 to 0000000000001364
  DW_CFA_def_cfa_offset: 0
  DW_CFA_restore: r56
  DW_CFA_restore: r57
  DW_CFA_restore: r58
  DW_CFA_restore: r16
  DW_CFA_restore: r17
  DW_CFA_restore: r18
  DW_CFA_restore: r19
  DW_CFA_restore: r28
  DW_CFA_restore: r31
  DW_CFA_nop
  DW_CFA_nop
  DW_CFA_nop
  DW_CFA_nop

000000d0 000000000000002c 00000000 FDE cie=00000000 pc=0000000000001364..00000000000013c4
  DW_CFA_advance_loc: 4 to 0000000000001368
  DW_CFA_def_cfa_offset: 32
  DW_CFA_advance_loc: 16 to 0000000000001378
  DW_CFA_offset: r31 at cfa-8
  DW_CFA_offset: r28 at cfa-16
  DW_CFA_offset: r17 at cfa-24
  DW_CFA_offset: r16 at cfa-32
  DW_CFA_advance_loc1: 76 to 00000000000013c4
  DW_CFA_def_cfa_offset: 0
  DW_CFA_restore: r16
  DW_CFA_restore: r17
  DW_CFA_restore: r28
  DW_CFA_restore: r31
  DW_CFA_nop
  DW_CFA_nop
  DW_CFA_nop
  DW_CFA_nop

00000100 0000000000000024 00000000 FDE cie=00000000 pc=00000000000013c4..000000000000141c
  DW_CFA_advance_loc: 4 to 00000000000013c8
  DW_CFA_def_cfa_offset: 16
  DW_CFA_advance_loc: 8 to 00000000000013d0
  DW_CFA_offset: r31 at cfa-8
  DW_CFA_offset: r28 at cfa-16
  DW_CFA_advance_loc1: 76 to 000000000000141c
  DW_CFA_def_cfa_offset: 0
  DW_CFA_restore: r28
  DW_CFA_restore: r31
  DW_CFA_nop
  DW_CFA_nop

Contents of the .debug_str section (loaded from a.out):

  0x00000000 5f5f6f66 665f7400 5f494f5f 72656164 __off_t._IO_read
  0x00000010 5f707472 005f6368 61696e00 74696d65 _ptr._chain.time
  0x00000020 5f776f72 64007369 7a655f74 005f7368 _word.size_t._sh
  0x00000030 6f727462 75660073 7472696e 67007061 ortbuf.string.pa
  0x00000040 7468005f 494f5f62 75665f62 61736500 th._IO_buf_base.
  0x00000050 6c6f6e67 206c6f6e 6720756e 7369676e long long unsign
  0x00000060 65642069 6e74006e 616e6f73 6c656570 ed int.nanosleep
  0x00000070 006c6f6e 67206c6f 6e672069 6e74005f .long long int._
  0x00000080 5f627569 6c74696e 5f667772 69746500 _builtin_fwrite.
  0x00000090 626c696e 6b79005f 66696c65 6e6f005f blinky._fileno._
  0x000000a0 5f627569 6c74696e 5f667075 7463005f _builtin_fputc._
  0x000000b0 494f5f72 6561645f 656e6400 5f666c61 IO_read_end._fla
  0x000000c0 6773005f 494f5f62 75665f65 6e64005f gs._IO_buf_end._
  0x000000d0 6375725f 636f6c75 6d6e002e 2e2f6d6f cur_column.../mo
  0x000000e0 7273652e 63005f49 4f5f636f 64656376 rse.c._IO_codecv
  0x000000f0 7400646f 75626c65 005f6f6c 645f6f66 t.double._old_of
  0x00000100 66736574 005f5f62 75696c74 696e5f65 fset.__builtin_e
  0x00000110 78697400 474e5520 43393920 31322e32 xit.GNU C99 12.2
  0x00000120 2e30202d 6d656220 2d6d6172 63683d6d .0 -meb -march=m
  0x00000130 69707336 34723220 2d6d6c6c 7363202d ips64r2 -mllsc -
  0x00000140 6d697073 36347232 202d6d61 62693d36 mips64r2 -mabi=6
  0x00000150 34202d67 202d4f31 202d7374 643d676e 4 -g -O1 -std=gn
  0x00000160 75393900 696f5f69 6e697400 5f494f5f u99.io_init._IO_
  0x00000170 6d61726b 6572005f 66726565 7265735f marker._freeres_
  0x00000180 62756600 5f494f5f 77726974 655f7074 buf._IO_write_pt
  0x00000190 72007368 6f727420 756e7369 676e6564 r.short unsigned
  0x000001a0 20696e74 005f494f 5f736176 655f6261  int._IO_save_ba
  0x000001b0 7365005f 6c6f636b 005f666c 61677332 se._lock._flags2
  0x000001c0 005f6d6f 6465005f 5f627569 6c74696e ._mode.__builtin
  0x000001d0 5f707574 73006d6f 72736500 5f5f6275 _puts.morse.__bu
  0x000001e0 696c7469 6e5f7370 72696e74 66005f5f iltin_sprintf.__
  0x000001f0 6275696c 74696e5f 66707269 6e746600 builtin_fprintf.
  0x00000200 74765f6e 73656300 74765f73 6563005f tv_nsec.tv_sec._
  0x00000210 5f737973 63616c6c 5f736c6f 6e675f74 _syscall_slong_t
  0x00000220 005f494f 5f777269 74655f65 6e640074 ._IO_write_end.t
  0x00000230 696d655f 64616800 5f494f5f 6c6f636b ime_dah._IO_lock
  0x00000240 5f740069 6f5f7772 69746500 5f494f5f _t.io_write._IO_
  0x00000250 46494c45 0074696d 655f6c65 74746572 FILE.time_letter
  0x00000260 00706174 7465726e 002f726f 6f742f68 .pattern./root/h
  0x00000270 656c6c6f 2d776f72 6c642f6d 69707336 ello-world/mips6
  0x00000280 342d6c69 6e75782d 676e7500 666f7065 4-linux-gnu.fope
  0x00000290 6e006666 6c757368 005f6d61 726b6572 n.fflush._marker
  0x000002a0 73006d6f 7273655f 6c657474 65720074 s.morse_letter.t
  0x000002b0 696d655f 64697400 74696d65 5f737061 ime_dit.time_spa
  0x000002c0 6365005f 426f6f6c 00756e73 69676e65 ce._Bool.unsigne
  0x000002d0 64206368 61720073 686f7274 20696e74 d char.short int
  0x000002e0 005f494f 5f776964 655f6461 7461006d ._IO_wide_data.m
  0x000002f0 6f727365 5f74626c 0074696d 65737065 orse_tbl.timespe
  0x00000300 63005f76 7461626c 655f6f66 66736574 c._vtable_offset
  0x00000310 005f5f62 75696c74 696e5f70 72696e74 .__builtin_print
  0x00000320 66006663 6c6f7365 005f5f6f 66663634 f.fclose.__off64
  0x00000330 5f74005f 494f5f72 6561645f 62617365 _t._IO_read_base
  0x00000340 005f494f 5f736176 655f656e 64006673 ._IO_save_end.fs
  0x00000350 6c656570 005f5f70 61643500 5f5f7469 leep.__pad5.__ti
  0x00000360 6d655f74 005f756e 75736564 32006172 me_t._unused2.ar
  0x00000370 67760073 74617475 73005f49 4f5f6261 gv.status._IO_ba
  0x00000380 636b7570 5f626173 65006172 6763005f ckup_base.argc._
  0x00000390 66726565 7265735f 6c697374 006d6169 freeres_list.mai
  0x000003a0 6e005f49 4f5f7772 6974655f 62617365 n._IO_write_base
  0x000003b0 00                                  .

Contents of the .debug_loclists section (loaded from a.out):

    Offset   Begin            End              Expression

    0000000c v000000000000000 v000000000000000 location view pair
    0000000e v000000000000000 v000000000000000 location view pair

    00000010 v000000000000000 v000000000000000 views at 0000000c for:
             00000000000013c4 00000000000013e0 (DW_OP_reg4 (r4))
    00000017 v000000000000000 v000000000000000 views at 0000000e for:
             00000000000013e0 000000000000141c (DW_OP_entry_value: (DW_OP_reg4 (r4)); DW_OP_stack_value)
    00000021 <End of list>

    00000022 v000000000000000 v000000000000000 location view pair
    00000024 v000000000000000 v000000000000000 location view pair

    00000026 v000000000000000 v000000000000000 views at 00000022 for:
             00000000000013c4 00000000000013eb (DW_OP_reg5 (r5))
    0000002d v000000000000000 v000000000000000 views at 00000024 for:
             00000000000013eb 000000000000141c (DW_OP_entry_value: (DW_OP_reg5 (r5)); DW_OP_stack_value)
    00000037 <End of list>

    00000038 v000000000000000 v000000000000000 location view pair
    0000003a v000000000000000 v000000000000000 location view pair

    0000003c v000000000000000 v000000000000000 views at 00000038 for:
             0000000000001364 0000000000001388 (DW_OP_reg4 (r4))
    00000043 v000000000000000 v000000000000000 views at 0000003a for:
             0000000000001388 00000000000013bc (DW_OP_reg16 (r16))
    0000004a <End of list>

    0000004b v000000000000000 v000000000000000 location view pair
    0000004d v000000000000000 v000000000000000 location view pair
    0000004f v000000000000000 v000000000000000 location view pair
    00000051 v000000000000000 v000000000000000 location view pair
    00000053 v000000000000000 v000000000000000 location view pair
    00000055 v000000000000000 v000000000000000 location view pair

    00000057 v000000000000000 v000000000000000 views at 0000004b for:
             00000000000011e0 0000000000001250 (DW_OP_reg4 (r4))
    0000005e v000000000000000 v000000000000000 views at 0000004d for:
             0000000000001250 0000000000001288 (DW_OP_entry_value: (DW_OP_reg4 (r4)); DW_OP_stack_value)
    00000068 v000000000000000 v000000000000000 views at 0000004f for:
             0000000000001288 000000000000128c (DW_OP_reg4 (r4))
    0000006f v000000000000000 v000000000000000 views at 00000051 for:
             000000000000128c 00000000000012b0 (DW_OP_entry_value: (DW_OP_reg4 (r4)); DW_OP_stack_value)
    00000079 v000000000000000 v000000000000000 views at 00000053 for:
             00000000000012b0 00000000000012d0 (DW_OP_reg4 (r4))
    00000080 v000000000000000 v000000000000000 views at 00000055 for:
             00000000000012d0 0000000000001364 (DW_OP_entry_value: (DW_OP_reg4 (r4)); DW_OP_stack_value)
    0000008a <End of list>

    0000008b v000000000000001 v000000000000000 location view pair
    0000008d v000000000000000 v000000000000000 location view pair
    0000008f v000000000000000 v000000000000000 location view pair
    00000091 v000000000000000 v000000000000000 location view pair

    00000093 v000000000000001 v000000000000000 views at 0000008b for:
             000000000000121c 0000000000001248 (DW_OP_addr: 16e8; DW_OP_stack_value)
    000000a3 v000000000000000 v000000000000000 views at 0000008d for:
             0000000000001248 0000000000001288 (DW_OP_reg16 (r16))
    000000aa v000000000000000 v000000000000000 views at 0000008f for:
             00000000000012b0 00000000000012c8 (DW_OP_addr: 16e8; DW_OP_stack_value)
    000000ba v000000000000000 v000000000000000 views at 00000091 for:
             00000000000012c8 0000000000001338 (DW_OP_reg16 (r16))
    000000c1 <End of list>

    000000c2 v000000000000000 v000000000000000 location view pair
    000000c4 v000000000000000 v000000000000000 location view pair

    000000c6 v000000000000000 v000000000000000 views at 000000c2 for:
             0000000000001190 00000000000011b8 (DW_OP_regx: 44 (r44))
    000000ce v000000000000000 v000000000000000 views at 000000c4 for:
             00000000000011b8 00000000000011e0 (DW_OP_entry_value: (DW_OP_regval_type: 44 (r44) <0x2e>); DW_OP_stack_value)
    000000da <End of list>

    000000db v000000000000000 v000000000000000 location view pair
    000000dd v000000000000000 v000000000000000 location view pair
    000000df v000000000000000 v000000000000000 location view pair

    000000e1 v000000000000000 v000000000000000 views at 000000db for:
             000000000000112c 0000000000001158 (DW_OP_reg4 (r4))
    000000e8 v000000000000000 v000000000000000 views at 000000dd for:
             0000000000001158 0000000000001184 (DW_OP_entry_value: (DW_OP_reg4 (r4)); DW_OP_stack_value)
    000000f2 v000000000000000 v000000000000000 views at 000000df for:
             0000000000001184 0000000000001190 (DW_OP_reg4 (r4))
    000000f9 <End of list>

    000000fa v000000000000000 v000000000000000 location view pair
    000000fc v000000000000000 v000000000000000 location view pair

    000000fe v000000000000000 v000000000000000 views at 000000fa for:
             0000000000000f30 0000000000000f60 (DW_OP_reg4 (r4))
    00000103 v000000000000000 v000000000000000 views at 000000fc for:
             0000000000000f60 000000000000112c (DW_OP_entry_value: (DW_OP_reg4 (r4)); DW_OP_stack_value)
    0000010c <End of list>

