
a.out:     file format elf64-littleaarch64

SYMBOL TABLE:
0000000000000238 l    d  .interp	0000000000000000              .interp
0000000000000254 l    d  .note.gnu.build-id	0000000000000000              .note.gnu.build-id
0000000000000278 l    d  .note.ABI-tag	0000000000000000              .note.ABI-tag
0000000000000298 l    d  .gnu.hash	0000000000000000              .gnu.hash
00000000000002b8 l    d  .dynsym	0000000000000000              .dynsym
0000000000000498 l    d  .dynstr	0000000000000000              .dynstr
000000000000056a l    d  .gnu.version	0000000000000000              .gnu.version
0000000000000598 l    d  .gnu.version_r	0000000000000000              .gnu.version_r
00000000000005c8 l    d  .rela.dyn	0000000000000000              .rela.dyn
00000000000009e8 l    d  .rela.plt	0000000000000000              .rela.plt
0000000000000b50 l    d  .init	0000000000000000              .init
0000000000000b70 l    d  .plt	0000000000000000              .plt
0000000000000c80 l    d  .text	0000000000000000              .text
0000000000002100 l    d  .fini	0000000000000000              .fini
0000000000002118 l    d  .rodata	0000000000000000              .rodata
0000000000002408 l    d  .eh_frame_hdr	0000000000000000              .eh_frame_hdr
0000000000002470 l    d  .eh_frame	0000000000000000              .eh_frame
000000000001fca8 l    d  .init_array	0000000000000000              .init_array
000000000001fcb0 l    d  .fini_array	0000000000000000              .fini_array
000000000001fcb8 l    d  .data.rel.ro	0000000000000000              .data.rel.ro
000000000001fdd8 l    d  .dynamic	0000000000000000              .dynamic
000000000001ffb8 l    d  .got	0000000000000000              .got
000000000001ffe8 l    d  .got.plt	0000000000000000              .got.plt
0000000000020078 l    d  .data	0000000000000000              .data
0000000000020088 l    d  .bss	0000000000000000              .bss
0000000000000000 l    d  .comment	0000000000000000              .comment
0000000000000000 l    d  .debug_aranges	0000000000000000              .debug_aranges
0000000000000000 l    d  .debug_info	0000000000000000              .debug_info
0000000000000000 l    d  .debug_abbrev	0000000000000000              .debug_abbrev
0000000000000000 l    d  .debug_line	0000000000000000              .debug_line
0000000000000000 l    d  .debug_str	0000000000000000              .debug_str
0000000000000000 l    d  .debug_line_str	0000000000000000              .debug_line_str
0000000000000000 l    d  .debug_loclists	0000000000000000              .debug_loclists
0000000000000000 l    df *ABS*	0000000000000000              Scrt1.o
0000000000000278 l     O .note.ABI-tag	0000000000000020              __abi_tag
0000000000000000 l    df *ABS*	0000000000000000              crti.o
0000000000000cb4 l     F .text	0000000000000014              call_weak_fn
0000000000000000 l    df *ABS*	0000000000000000              crtn.o
0000000000000000 l    df *ABS*	0000000000000000              crtstuff.c
0000000000000cd0 l     F .text	0000000000000000              deregister_tm_clones
0000000000000d00 l     F .text	0000000000000000              register_tm_clones
0000000000000d40 l     F .text	0000000000000000              __do_global_dtors_aux
0000000000020088 l     O .bss	0000000000000001              completed.0
000000000001fcb0 l     O .fini_array	0000000000000000              __do_global_dtors_aux_fini_array_entry
0000000000000d90 l     F .text	0000000000000000              frame_dummy
000000000001fca8 l     O .init_array	0000000000000000              __frame_dummy_init_array_entry
0000000000000000 l    df *ABS*	0000000000000000              morse.c
0000000000020090 l     O .bss	0000000000000008              fp
000000000001fcb8 l     O .data.rel.ro	0000000000000120              morse_tbl
0000000000000000 l    df *ABS*	0000000000000000              crtstuff.c
00000000000025ec l     O .eh_frame	0000000000000000              __FRAME_END__
0000000000000000 l    df *ABS*	0000000000000000              
000000000001fdd8 l     O *ABS*	0000000000000000              _DYNAMIC
0000000000002408 l       .eh_frame_hdr	0000000000000000              __GNU_EH_FRAME_HDR
000000000001ffb8 l     O *ABS*	0000000000000000              _GLOBAL_OFFSET_TABLE_
0000000000000000       F *UND*	0000000000000000              exit@GLIBC_2.17
0000000000000000       F *UND*	0000000000000000              __libc_start_main@GLIBC_2.34
0000000000000000  w      *UND*	0000000000000000              _ITM_deregisterTMCloneTable
0000000000020078  w      .data	0000000000000000              data_start
0000000000020088 g       .bss	0000000000000000              __bss_start__
0000000000000000  w    F *UND*	0000000000000000              __cxa_finalize@GLIBC_2.17
0000000000000000       F *UND*	0000000000000000              sprintf@GLIBC_2.17
0000000000000000       F *UND*	0000000000000000              fputc@GLIBC_2.17
0000000000000f28 g     F .text	0000000000000040              io_write
0000000000020098 g       .bss	0000000000000000              _bss_end__
000000000000109c g     F .text	0000000000000030              morse
0000000000020088 g       .data	0000000000000000              _edata
0000000000000fa0 g     F .text	00000000000000fc              morse_letter
0000000000002100 g     F .fini	0000000000000000              .hidden _fini
0000000000020098 g       .bss	0000000000000000              __bss_end__
0000000000000000       F *UND*	0000000000000000              fclose@GLIBC_2.17
0000000000000000       F *UND*	0000000000000000              fopen@GLIBC_2.17
0000000000000d94 g     F .text	0000000000000194              io_init
0000000000020078 g       .data	0000000000000000              __data_start
0000000000000000  w      *UND*	0000000000000000              __gmon_start__
0000000000020080 g     O .data	0000000000000000              .hidden __dso_handle
0000000000000000       F *UND*	0000000000000000              abort@GLIBC_2.17
0000000000002118 g     O .rodata	0000000000000004              _IO_stdin_used
0000000000000000       F *UND*	0000000000000000              puts@GLIBC_2.17
0000000000000f68 g     F .text	0000000000000038              fsleep
0000000000020098 g       .bss	0000000000000000              _end
0000000000000c80 g     F .text	0000000000000034              _start
0000000000020098 g       .bss	0000000000000000              __end__
0000000000000000       F *UND*	0000000000000000              nanosleep@GLIBC_2.17
0000000000020088 g       .bss	0000000000000000              __bss_start
00000000000010cc g     F .text	0000000000000034              main
0000000000000000       F *UND*	0000000000000000              fwrite@GLIBC_2.17
0000000000000000       F *UND*	0000000000000000              fflush@GLIBC_2.17
0000000000020088 g     O .data	0000000000000000              .hidden __TMC_END__
0000000000000000  w      *UND*	0000000000000000              _ITM_registerTMCloneTable
0000000000000000       F *UND*	0000000000000000              printf@GLIBC_2.17
0000000000000b50 g     F .init	0000000000000000              .hidden _init
0000000000000000       F *UND*	0000000000000000              fprintf@GLIBC_2.17



Disassembly of section .init:

0000000000000b50 <_init>:
 b50:	d503201f 	nop
 b54:	a9bf7bfd 	stp	x29, x30, [sp, #-16]!
 b58:	910003fd 	mov	x29, sp
 b5c:	94000056 	bl	cb4 <call_weak_fn>
 b60:	a8c17bfd 	ldp	x29, x30, [sp], #16
 b64:	d65f03c0 	ret

Disassembly of section .plt:

0000000000000b70 <.plt>:
 b70:	a9bf7bf0 	stp	x16, x30, [sp, #-16]!
 b74:	f00000f0 	adrp	x16, 1f000 <__FRAME_END__+0x1ca14>
 b78:	f947fe11 	ldr	x17, [x16, #4088]
 b7c:	913fe210 	add	x16, x16, #0xff8
 b80:	d61f0220 	br	x17
 b84:	d503201f 	nop
 b88:	d503201f 	nop
 b8c:	d503201f 	nop

0000000000000b90 <exit@plt>:
 b90:	90000110 	adrp	x16, 20000 <exit@GLIBC_2.17>
 b94:	f9400211 	ldr	x17, [x16]
 b98:	91000210 	add	x16, x16, #0x0
 b9c:	d61f0220 	br	x17

0000000000000ba0 <__libc_start_main@plt>:
 ba0:	90000110 	adrp	x16, 20000 <exit@GLIBC_2.17>
 ba4:	f9400611 	ldr	x17, [x16, #8]
 ba8:	91002210 	add	x16, x16, #0x8
 bac:	d61f0220 	br	x17

0000000000000bb0 <__cxa_finalize@plt>:
 bb0:	90000110 	adrp	x16, 20000 <exit@GLIBC_2.17>
 bb4:	f9400a11 	ldr	x17, [x16, #16]
 bb8:	91004210 	add	x16, x16, #0x10
 bbc:	d61f0220 	br	x17

0000000000000bc0 <sprintf@plt>:
 bc0:	90000110 	adrp	x16, 20000 <exit@GLIBC_2.17>
 bc4:	f9400e11 	ldr	x17, [x16, #24]
 bc8:	91006210 	add	x16, x16, #0x18
 bcc:	d61f0220 	br	x17

0000000000000bd0 <fputc@plt>:
 bd0:	90000110 	adrp	x16, 20000 <exit@GLIBC_2.17>
 bd4:	f9401211 	ldr	x17, [x16, #32]
 bd8:	91008210 	add	x16, x16, #0x20
 bdc:	d61f0220 	br	x17

0000000000000be0 <fclose@plt>:
 be0:	90000110 	adrp	x16, 20000 <exit@GLIBC_2.17>
 be4:	f9401611 	ldr	x17, [x16, #40]
 be8:	9100a210 	add	x16, x16, #0x28
 bec:	d61f0220 	br	x17

0000000000000bf0 <fopen@plt>:
 bf0:	90000110 	adrp	x16, 20000 <exit@GLIBC_2.17>
 bf4:	f9401a11 	ldr	x17, [x16, #48]
 bf8:	9100c210 	add	x16, x16, #0x30
 bfc:	d61f0220 	br	x17

0000000000000c00 <__gmon_start__@plt>:
 c00:	90000110 	adrp	x16, 20000 <exit@GLIBC_2.17>
 c04:	f9401e11 	ldr	x17, [x16, #56]
 c08:	9100e210 	add	x16, x16, #0x38
 c0c:	d61f0220 	br	x17

0000000000000c10 <abort@plt>:
 c10:	90000110 	adrp	x16, 20000 <exit@GLIBC_2.17>
 c14:	f9402211 	ldr	x17, [x16, #64]
 c18:	91010210 	add	x16, x16, #0x40
 c1c:	d61f0220 	br	x17

0000000000000c20 <puts@plt>:
 c20:	90000110 	adrp	x16, 20000 <exit@GLIBC_2.17>
 c24:	f9402611 	ldr	x17, [x16, #72]
 c28:	91012210 	add	x16, x16, #0x48
 c2c:	d61f0220 	br	x17

0000000000000c30 <nanosleep@plt>:
 c30:	90000110 	adrp	x16, 20000 <exit@GLIBC_2.17>
 c34:	f9402a11 	ldr	x17, [x16, #80]
 c38:	91014210 	add	x16, x16, #0x50
 c3c:	d61f0220 	br	x17

0000000000000c40 <fwrite@plt>:
 c40:	90000110 	adrp	x16, 20000 <exit@GLIBC_2.17>
 c44:	f9402e11 	ldr	x17, [x16, #88]
 c48:	91016210 	add	x16, x16, #0x58
 c4c:	d61f0220 	br	x17

0000000000000c50 <fflush@plt>:
 c50:	90000110 	adrp	x16, 20000 <exit@GLIBC_2.17>
 c54:	f9403211 	ldr	x17, [x16, #96]
 c58:	91018210 	add	x16, x16, #0x60
 c5c:	d61f0220 	br	x17

0000000000000c60 <printf@plt>:
 c60:	90000110 	adrp	x16, 20000 <exit@GLIBC_2.17>
 c64:	f9403611 	ldr	x17, [x16, #104]
 c68:	9101a210 	add	x16, x16, #0x68
 c6c:	d61f0220 	br	x17

0000000000000c70 <fprintf@plt>:
 c70:	90000110 	adrp	x16, 20000 <exit@GLIBC_2.17>
 c74:	f9403a11 	ldr	x17, [x16, #112]
 c78:	9101c210 	add	x16, x16, #0x70
 c7c:	d61f0220 	br	x17

Disassembly of section .text:

0000000000000c80 <_start>:
     c80:	d503201f 	nop
     c84:	d280001d 	mov	x29, #0x0                   	// #0
     c88:	d280001e 	mov	x30, #0x0                   	// #0
     c8c:	aa0003e5 	mov	x5, x0
     c90:	f94003e1 	ldr	x1, [sp]
     c94:	910023e2 	add	x2, sp, #0x8
     c98:	910003e6 	mov	x6, sp
     c9c:	f00000e0 	adrp	x0, 1f000 <__FRAME_END__+0x1ca14>
     ca0:	f947ec00 	ldr	x0, [x0, #4056]
     ca4:	d2800003 	mov	x3, #0x0                   	// #0
     ca8:	d2800004 	mov	x4, #0x0                   	// #0
     cac:	97ffffbd 	bl	ba0 <__libc_start_main@plt>
     cb0:	97ffffd8 	bl	c10 <abort@plt>

0000000000000cb4 <call_weak_fn>:
     cb4:	f00000e0 	adrp	x0, 1f000 <__FRAME_END__+0x1ca14>
     cb8:	f947e800 	ldr	x0, [x0, #4048]
     cbc:	b4000040 	cbz	x0, cc4 <call_weak_fn+0x10>
     cc0:	17ffffd0 	b	c00 <__gmon_start__@plt>
     cc4:	d65f03c0 	ret
     cc8:	d503201f 	nop
     ccc:	d503201f 	nop

0000000000000cd0 <deregister_tm_clones>:
     cd0:	90000100 	adrp	x0, 20000 <exit@GLIBC_2.17>
     cd4:	91022000 	add	x0, x0, #0x88
     cd8:	90000101 	adrp	x1, 20000 <exit@GLIBC_2.17>
     cdc:	91022021 	add	x1, x1, #0x88
     ce0:	eb00003f 	cmp	x1, x0
     ce4:	540000c0 	b.eq	cfc <deregister_tm_clones+0x2c>  // b.none
     ce8:	f00000e1 	adrp	x1, 1f000 <__FRAME_END__+0x1ca14>
     cec:	f947e021 	ldr	x1, [x1, #4032]
     cf0:	b4000061 	cbz	x1, cfc <deregister_tm_clones+0x2c>
     cf4:	aa0103f0 	mov	x16, x1
     cf8:	d61f0200 	br	x16
     cfc:	d65f03c0 	ret

0000000000000d00 <register_tm_clones>:
     d00:	90000100 	adrp	x0, 20000 <exit@GLIBC_2.17>
     d04:	91022000 	add	x0, x0, #0x88
     d08:	90000101 	adrp	x1, 20000 <exit@GLIBC_2.17>
     d0c:	91022021 	add	x1, x1, #0x88
     d10:	cb000021 	sub	x1, x1, x0
     d14:	d37ffc22 	lsr	x2, x1, #63
     d18:	8b810c41 	add	x1, x2, x1, asr #3
     d1c:	9341fc21 	asr	x1, x1, #1
     d20:	b40000c1 	cbz	x1, d38 <register_tm_clones+0x38>
     d24:	f00000e2 	adrp	x2, 1f000 <__FRAME_END__+0x1ca14>
     d28:	f947f042 	ldr	x2, [x2, #4064]
     d2c:	b4000062 	cbz	x2, d38 <register_tm_clones+0x38>
     d30:	aa0203f0 	mov	x16, x2
     d34:	d61f0200 	br	x16
     d38:	d65f03c0 	ret
     d3c:	d503201f 	nop

0000000000000d40 <__do_global_dtors_aux>:
     d40:	a9be7bfd 	stp	x29, x30, [sp, #-32]!
     d44:	910003fd 	mov	x29, sp
     d48:	f9000bf3 	str	x19, [sp, #16]
     d4c:	90000113 	adrp	x19, 20000 <exit@GLIBC_2.17>
     d50:	39422260 	ldrb	w0, [x19, #136]
     d54:	35000140 	cbnz	w0, d7c <__do_global_dtors_aux+0x3c>
     d58:	f00000e0 	adrp	x0, 1f000 <__FRAME_END__+0x1ca14>
     d5c:	f947e400 	ldr	x0, [x0, #4040]
     d60:	b4000080 	cbz	x0, d70 <__do_global_dtors_aux+0x30>
     d64:	90000100 	adrp	x0, 20000 <exit@GLIBC_2.17>
     d68:	f9404000 	ldr	x0, [x0, #128]
     d6c:	97ffff91 	bl	bb0 <__cxa_finalize@plt>
     d70:	97ffffd8 	bl	cd0 <deregister_tm_clones>
     d74:	52800020 	mov	w0, #0x1                   	// #1
     d78:	39022260 	strb	w0, [x19, #136]
     d7c:	f9400bf3 	ldr	x19, [sp, #16]
     d80:	a8c27bfd 	ldp	x29, x30, [sp], #32
     d84:	d65f03c0 	ret
     d88:	d503201f 	nop
     d8c:	d503201f 	nop

0000000000000d90 <frame_dummy>:
     d90:	17ffffdc 	b	d00 <register_tm_clones>

0000000000000d94 <io_init>:
# /* 
#  * IO Functions
#  */
# static FILE* fp = NULL;
# void io_init(const int pin)
# {	
     d94:	a9b97bfd 	stp	x29, x30, [sp, #-112]!
     d98:	910003fd 	mov	x29, sp
     d9c:	a90153f3 	stp	x19, x20, [sp, #16]
     da0:	f90013f5 	str	x21, [sp, #32]
     da4:	2a0003f4 	mov	w20, w0
# 	char path[64];
# 	/* Open GPIO direction for writing */
# 	sprintf(path,"/sys/class/gpio/gpio%d/direction",pin);
     da8:	9100c3f3 	add	x19, sp, #0x30
     dac:	2a0003e2 	mov	w2, w0
     db0:	d0000001 	adrp	x1, 2000 <main+0xf34>
     db4:	91048021 	add	x1, x1, #0x120
     db8:	aa1303e0 	mov	x0, x19
     dbc:	97ffff81 	bl	bc0 <sprintf@plt>
# 	printf("Opening Direction file %s\n",path);
     dc0:	aa1303e1 	mov	x1, x19
     dc4:	d0000000 	adrp	x0, 2000 <main+0xf34>
     dc8:	91052000 	add	x0, x0, #0x148
     dcc:	97ffffa5 	bl	c60 <printf@plt>
# 	fp = fopen(path,"w");
     dd0:	d0000001 	adrp	x1, 2000 <main+0xf34>
     dd4:	9105a021 	add	x1, x1, #0x168
     dd8:	aa1303e0 	mov	x0, x19
     ddc:	97ffff85 	bl	bf0 <fopen@plt>
     de0:	90000101 	adrp	x1, 20000 <exit@GLIBC_2.17>
     de4:	f9004820 	str	x0, [x1, #144]
# 	if(!fp)
     de8:	b4000480 	cbz	x0, e78 <io_init+0xe4>
# 			printf("ERROR: Failed to open GPIO direction\n");
# 			exit(-1);
# 		}
# 	}
# 	/* Write direction */
# 	fprintf(fp,"out");
     dec:	90000115 	adrp	x21, 20000 <exit@GLIBC_2.17>
     df0:	f9404aa3 	ldr	x3, [x21, #144]
     df4:	d2800062 	mov	x2, #0x3                   	// #3
     df8:	d2800021 	mov	x1, #0x1                   	// #1
     dfc:	d0000000 	adrp	x0, 2000 <main+0xf34>
     e00:	91080000 	add	x0, x0, #0x200
     e04:	97ffff8f 	bl	c40 <fwrite@plt>
# 	fclose(fp);
     e08:	f9404aa0 	ldr	x0, [x21, #144]
     e0c:	97ffff75 	bl	be0 <fclose@plt>
# 	/* Open 'value' file */
# 	sprintf(path,"/sys/class/gpio/gpio%d/value",pin);
     e10:	9100c3f3 	add	x19, sp, #0x30
     e14:	2a1403e2 	mov	w2, w20
     e18:	d0000001 	adrp	x1, 2000 <main+0xf34>
     e1c:	91082021 	add	x1, x1, #0x208
     e20:	aa1303e0 	mov	x0, x19
     e24:	97ffff67 	bl	bc0 <sprintf@plt>
# 	printf("Opening Value file %s\n",path);
     e28:	aa1303e1 	mov	x1, x19
     e2c:	d0000000 	adrp	x0, 2000 <main+0xf34>
     e30:	9108a000 	add	x0, x0, #0x228
     e34:	97ffff8b 	bl	c60 <printf@plt>
# 	fp = fopen(path,"w");
     e38:	d0000001 	adrp	x1, 2000 <main+0xf34>
     e3c:	9105a021 	add	x1, x1, #0x168
     e40:	aa1303e0 	mov	x0, x19
     e44:	97ffff6b 	bl	bf0 <fopen@plt>
     e48:	aa0003e1 	mov	x1, x0
     e4c:	f9004aa0 	str	x0, [x21, #144]
# 	if(!fp)
     e50:	b4000620 	cbz	x0, f14 <io_init+0x180>
# 	{
# 		printf("ERROR: Failed to open GPIO value\n");
# 		exit(-1);
# 	}
# 	/* Initialize LED to off */
# 	fprintf(fp,"0");
     e54:	52800600 	mov	w0, #0x30                  	// #48
     e58:	97ffff5e 	bl	bd0 <fputc@plt>
# 	fflush(fp);
     e5c:	90000100 	adrp	x0, 20000 <exit@GLIBC_2.17>
     e60:	f9404800 	ldr	x0, [x0, #144]
     e64:	97ffff7b 	bl	c50 <fflush@plt>
# }
     e68:	a94153f3 	ldp	x19, x20, [sp, #16]
     e6c:	f94013f5 	ldr	x21, [sp, #32]
     e70:	a8c77bfd 	ldp	x29, x30, [sp], #112
     e74:	d65f03c0 	ret
# 		printf("GPIO not exported yet... doing that\n");
     e78:	d0000000 	adrp	x0, 2000 <main+0xf34>
     e7c:	9105c000 	add	x0, x0, #0x170
     e80:	97ffff68 	bl	c20 <puts@plt>
# 		fp = fopen("/sys/class/gpio/export", "w");
     e84:	d0000001 	adrp	x1, 2000 <main+0xf34>
     e88:	9105a021 	add	x1, x1, #0x168
     e8c:	d0000000 	adrp	x0, 2000 <main+0xf34>
     e90:	91066000 	add	x0, x0, #0x198
     e94:	97ffff57 	bl	bf0 <fopen@plt>
     e98:	90000101 	adrp	x1, 20000 <exit@GLIBC_2.17>
     e9c:	f9004820 	str	x0, [x1, #144]
# 		if(!fp)
     ea0:	b4000300 	cbz	x0, f00 <io_init+0x16c>
# 		fprintf(fp, "%d", pin);
     ea4:	2a1403e2 	mov	w2, w20
     ea8:	d0000001 	adrp	x1, 2000 <main+0xf34>
     eac:	91074021 	add	x1, x1, #0x1d0
     eb0:	97ffff70 	bl	c70 <fprintf@plt>
# 		fclose(fp);
     eb4:	90000113 	adrp	x19, 20000 <exit@GLIBC_2.17>
     eb8:	f9404a60 	ldr	x0, [x19, #144]
     ebc:	97ffff49 	bl	be0 <fclose@plt>
# 		printf("Opening Direction file %s\n",path);
     ec0:	9100c3f5 	add	x21, sp, #0x30
     ec4:	aa1503e1 	mov	x1, x21
     ec8:	d0000000 	adrp	x0, 2000 <main+0xf34>
     ecc:	91052000 	add	x0, x0, #0x148
     ed0:	97ffff64 	bl	c60 <printf@plt>
# 		fp = fopen(path,"w");
     ed4:	d0000001 	adrp	x1, 2000 <main+0xf34>
     ed8:	9105a021 	add	x1, x1, #0x168
     edc:	aa1503e0 	mov	x0, x21
     ee0:	97ffff44 	bl	bf0 <fopen@plt>
     ee4:	f9004a60 	str	x0, [x19, #144]
# 		if(!fp)
     ee8:	b5fff820 	cbnz	x0, dec <io_init+0x58>
# 			printf("ERROR: Failed to open GPIO direction\n");
     eec:	d0000000 	adrp	x0, 2000 <main+0xf34>
     ef0:	91076000 	add	x0, x0, #0x1d8
     ef4:	97ffff4b 	bl	c20 <puts@plt>
# 			exit(-1);
     ef8:	12800000 	mov	w0, #0xffffffff            	// #-1
     efc:	97ffff25 	bl	b90 <exit@plt>
# 			printf("ERROR: Failed to export IO\n");
     f00:	d0000000 	adrp	x0, 2000 <main+0xf34>
     f04:	9106c000 	add	x0, x0, #0x1b0
     f08:	97ffff46 	bl	c20 <puts@plt>
# 			exit(-1);
     f0c:	12800000 	mov	w0, #0xffffffff            	// #-1
     f10:	97ffff20 	bl	b90 <exit@plt>
# 		printf("ERROR: Failed to open GPIO value\n");
     f14:	d0000000 	adrp	x0, 2000 <main+0xf34>
     f18:	91090000 	add	x0, x0, #0x240
     f1c:	97ffff41 	bl	c20 <puts@plt>
# 		exit(-1);
     f20:	12800000 	mov	w0, #0xffffffff            	// #-1
     f24:	97ffff1b 	bl	b90 <exit@plt>

0000000000000f28 <io_write>:
# 
# void io_write(bool status)
# {
     f28:	a9bf7bfd 	stp	x29, x30, [sp, #-16]!
     f2c:	910003fd 	mov	x29, sp
# 	fprintf(fp,(status) ? "1" : "0");
     f30:	d0000002 	adrp	x2, 2000 <main+0xf34>
     f34:	9109a042 	add	x2, x2, #0x268
     f38:	d0000001 	adrp	x1, 2000 <main+0xf34>
     f3c:	9109c021 	add	x1, x1, #0x270
     f40:	72001c1f 	tst	w0, #0xff
     f44:	9a820021 	csel	x1, x1, x2, eq	// eq = none
     f48:	90000100 	adrp	x0, 20000 <exit@GLIBC_2.17>
     f4c:	f9404800 	ldr	x0, [x0, #144]
     f50:	97ffff48 	bl	c70 <fprintf@plt>
# 	fflush(fp);
     f54:	90000100 	adrp	x0, 20000 <exit@GLIBC_2.17>
     f58:	f9404800 	ldr	x0, [x0, #144]
     f5c:	97ffff3d 	bl	c50 <fflush@plt>
# }
     f60:	a8c17bfd 	ldp	x29, x30, [sp], #16
     f64:	d65f03c0 	ret

0000000000000f68 <fsleep>:
# 
# /* Float sleep function */
# void fsleep(double dur)
# {
     f68:	a9be7bfd 	stp	x29, x30, [sp, #-32]!
     f6c:	910003fd 	mov	x29, sp
# 	struct timespec tim;
#    	tim.tv_sec = 0;
     f70:	f9000bff 	str	xzr, [sp, #16]
#    	tim.tv_nsec = dur * 1000000000.0;
     f74:	d2d9aca0 	mov	x0, #0xcd6500000000        	// #225833675390976
     f78:	f2e839a0 	movk	x0, #0x41cd, lsl #48
     f7c:	9e670001 	fmov	d1, x0
     f80:	1e610800 	fmul	d0, d0, d1
     f84:	5ee1b800 	fcvtzs	d0, d0
     f88:	fd000fe0 	str	d0, [sp, #24]
# 	nanosleep(&tim , NULL);
     f8c:	d2800001 	mov	x1, #0x0                   	// #0
     f90:	910043e0 	add	x0, sp, #0x10
     f94:	97ffff27 	bl	c30 <nanosleep@plt>
# }
     f98:	a8c27bfd 	ldp	x29, x30, [sp], #32
     f9c:	d65f03c0 	ret

0000000000000fa0 <morse_letter>:
#     "----.", //9
# };
# 
# /* Function is only correct for letters and numbers, nothing else */
# void morse_letter(const char let)
# {
     fa0:	a9bd7bfd 	stp	x29, x30, [sp, #-48]!
     fa4:	910003fd 	mov	x29, sp
     fa8:	12001c01 	and	w1, w0, #0xff
# 	/* If it's a space, wait the space time and exit */
# 	if(let == ' ')
     fac:	7100803f 	cmp	w1, #0x20
     fb0:	540002e0 	b.eq	100c <morse_letter+0x6c>  // b.none
     fb4:	a90153f3 	stp	x19, x20, [sp, #16]
# 		return;
# 	}
# 
# 	/* Find the string from the table */
# 	const char * pattern = ".";//Initialize to ensure it's always valid
# 	if(let >= '0' && let <= '9')
     fb8:	5100c020 	sub	w0, w1, #0x30
     fbc:	12001c00 	and	w0, w0, #0xff
     fc0:	7100241f 	cmp	w0, #0x9
     fc4:	54000328 	b.hi	1028 <morse_letter+0x88>  // b.pmore
# 	{
# 		pattern = morse_tbl[let - '0' + 26]; //For numbers
     fc8:	51005822 	sub	w2, w1, #0x16
     fcc:	f00000e0 	adrp	x0, 1f000 <__FRAME_END__+0x1ca14>
     fd0:	9132e000 	add	x0, x0, #0xcb8
     fd4:	f862d813 	ldr	x19, [x0, w2, sxtw #3]
# 	else 
# 	{
# 		printf("Invalid Letter %c\n",let);
# 		return;
# 	}
# 	printf("Letter %c to morse %s\n",let,pattern);
     fd8:	aa1303e2 	mov	x2, x19
     fdc:	d0000000 	adrp	x0, 2000 <main+0xf34>
     fe0:	910a0000 	add	x0, x0, #0x280
     fe4:	97ffff1f 	bl	c60 <printf@plt>
# 
# 	/* Loop through remaining symbols and output them */
# 	while(pattern[0])
     fe8:	39400260 	ldrb	w0, [x19]
     fec:	340004c0 	cbz	w0, 1084 <morse_letter+0xe4>
     ff0:	6d0227e8 	stp	d8, d9, [sp, #32]
# 	{
# 		/* Turn on output */
# 		io_write(1);
     ff4:	52800034 	mov	w20, #0x1                   	// #1
# 		{
# 			fsleep(time_dit);
# 		}
# 		else
# 		{
# 			fsleep(time_dah);
     ff8:	10008040 	adr	x0, 2000 <main+0xf34>
     ffc:	fd41f809 	ldr	d9, [x0, #1008]
# 			fsleep(time_dit);
    1000:	b0000000 	adrp	x0, 2000 <main+0xf34>
    1004:	fd41fc08 	ldr	d8, [x0, #1016]
    1008:	14000016 	b	1060 <morse_letter+0xc0>
# 		printf("Space\n");
    100c:	b0000000 	adrp	x0, 2000 <main+0xf34>
    1010:	9109e000 	add	x0, x0, #0x278
    1014:	97ffff03 	bl	c20 <puts@plt>
# 		fsleep(time_word);
    1018:	b0000000 	adrp	x0, 2000 <main+0xf34>
    101c:	fd41f400 	ldr	d0, [x0, #1000]
    1020:	97ffffd2 	bl	f68 <fsleep>
# 		return;
    1024:	1400001c 	b	1094 <morse_letter+0xf4>
# 		pattern = morse_tbl[(let & 0x1F) - 1]; //For letters
    1028:	12001022 	and	w2, w1, #0x1f
    102c:	51000442 	sub	w2, w2, #0x1
    1030:	d00000e0 	adrp	x0, 1f000 <__FRAME_END__+0x1ca14>
    1034:	9132e000 	add	x0, x0, #0xcb8
    1038:	f862d813 	ldr	x19, [x0, w2, sxtw #3]
    103c:	17ffffe7 	b	fd8 <morse_letter+0x38>
# 			fsleep(time_dit);
    1040:	1e604100 	fmov	d0, d8
    1044:	97ffffc9 	bl	f68 <fsleep>
# 		}
# 		/* Turn off output and wait off-time */
# 		io_write(0);
    1048:	52800000 	mov	w0, #0x0                   	// #0
    104c:	97ffffb7 	bl	f28 <io_write>
# 		fsleep(time_space);
    1050:	1e604100 	fmov	d0, d8
    1054:	97ffffc5 	bl	f68 <fsleep>
# 	while(pattern[0])
    1058:	38401e60 	ldrb	w0, [x19, #1]!
    105c:	34000120 	cbz	w0, 1080 <morse_letter+0xe0>
# 		io_write(1);
    1060:	2a1403e0 	mov	w0, w20
    1064:	97ffffb1 	bl	f28 <io_write>
# 		if(pattern[0] == '.')
    1068:	39400260 	ldrb	w0, [x19]
    106c:	7100b81f 	cmp	w0, #0x2e
    1070:	54fffe80 	b.eq	1040 <morse_letter+0xa0>  // b.none
# 			fsleep(time_dah);
    1074:	1e604120 	fmov	d0, d9
    1078:	97ffffbc 	bl	f68 <fsleep>
    107c:	17fffff3 	b	1048 <morse_letter+0xa8>
    1080:	6d4227e8 	ldp	d8, d9, [sp, #32]
# 		/* Increment pointer */
# 		pattern++;
# 	};
# 	/* Wait additional character delay */
# 	fsleep(time_letter);
    1084:	b0000000 	adrp	x0, 2000 <main+0xf34>
    1088:	fd420000 	ldr	d0, [x0, #1024]
    108c:	97ffffb7 	bl	f68 <fsleep>
    1090:	a94153f3 	ldp	x19, x20, [sp, #16]
# }
    1094:	a8c37bfd 	ldp	x29, x30, [sp], #48
    1098:	d65f03c0 	ret

000000000000109c <morse>:
# 
# /* Output a string in morse code */
# void morse(const char * string)
# {
    109c:	a9be7bfd 	stp	x29, x30, [sp, #-32]!
    10a0:	910003fd 	mov	x29, sp
    10a4:	f9000bf3 	str	x19, [sp, #16]
    10a8:	aa0003f3 	mov	x19, x0
# 	/* Output all letters in the string */
# 	while(string[0])
    10ac:	39400000 	ldrb	w0, [x0]
    10b0:	34000080 	cbz	w0, 10c0 <morse+0x24>
# 	{
# 		morse_letter(string[0]);
    10b4:	97ffffbb 	bl	fa0 <morse_letter>
# 	while(string[0])
    10b8:	38401e60 	ldrb	w0, [x19, #1]!
    10bc:	35ffffc0 	cbnz	w0, 10b4 <morse+0x18>
# 		string++;
# 	}
# }
    10c0:	f9400bf3 	ldr	x19, [sp, #16]
    10c4:	a8c27bfd 	ldp	x29, x30, [sp], #32
    10c8:	d65f03c0 	ret

00000000000010cc <main>:
# int main (int argc, char** argv) {
    10cc:	a9bf7bfd 	stp	x29, x30, [sp, #-16]!
    10d0:	910003fd 	mov	x29, sp
# 
#     printf("Hello from RISC-V!\n");
    10d4:	b0000000 	adrp	x0, 2000 <main+0xf34>
    10d8:	910a6000 	add	x0, x0, #0x298
    10dc:	97fffed1 	bl	c20 <puts@plt>
# 	io_init(blinky);
    10e0:	52803700 	mov	w0, #0x1b8                 	// #440
    10e4:	97ffff2c 	bl	d94 <io_init>
# 	morse("Hello World from RISC V");
    10e8:	b0000000 	adrp	x0, 2000 <main+0xf34>
    10ec:	910ac000 	add	x0, x0, #0x2b0
    10f0:	97ffffeb 	bl	109c <morse>
#     return 0;
    10f4:	52800000 	mov	w0, #0x0                   	// #0
    10f8:	a8c17bfd 	ldp	x29, x30, [sp], #16
    10fc:	d65f03c0 	ret
    1100:	14000400 	b	2100 <_fini>
    1104:	d503201f 	nop
    1108:	fd41fc08 	ldr	d8, [x0, #1016]
    110c:	17ffffbf 	b	1008 <morse_letter+0x68>
	...

Disassembly of section .fini:

0000000000002100 <_fini>:
    2100:	d503201f 	nop
    2104:	a9bf7bfd 	stp	x29, x30, [sp, #-16]!
    2108:	910003fd 	mov	x29, sp
    210c:	a8c17bfd 	ldp	x29, x30, [sp], #16
    2110:	d65f03c0 	ret
Contents of the .eh_frame section (loaded from a.out):


00000000 0000000000000010 00000000 CIE
  Version:               1
  Augmentation:          "zR"
  Code alignment factor: 4
  Data alignment factor: -8
  Return address column: 30
  Augmentation data:     1b
  DW_CFA_def_cfa: r31 (sp) ofs 0

00000014 0000000000000010 00000018 FDE cie=00000000 pc=0000000000000c80..0000000000000cb4
  DW_CFA_advance_loc: 4 to 0000000000000c84
  DW_CFA_undefined: r30 (x30)

00000028 0000000000000010 0000002c FDE cie=00000000 pc=0000000000000cd0..0000000000000d00
  DW_CFA_nop
  DW_CFA_nop
  DW_CFA_nop

0000003c 0000000000000010 00000040 FDE cie=00000000 pc=0000000000000d00..0000000000000d3c
  DW_CFA_nop
  DW_CFA_nop
  DW_CFA_nop

00000050 0000000000000020 00000054 FDE cie=00000000 pc=0000000000000d40..0000000000000d88
  DW_CFA_advance_loc: 4 to 0000000000000d44
  DW_CFA_def_cfa_offset: 32
  DW_CFA_offset: r29 (x29) at cfa-32
  DW_CFA_offset: r30 (x30) at cfa-24
  DW_CFA_advance_loc: 8 to 0000000000000d4c
  DW_CFA_offset: r19 (x19) at cfa-16
  DW_CFA_advance_loc: 56 to 0000000000000d84
  DW_CFA_restore: r30 (x30)
  DW_CFA_restore: r29 (x29)
  DW_CFA_restore: r19 (x19)
  DW_CFA_def_cfa_offset: 0
  DW_CFA_nop
  DW_CFA_nop
  DW_CFA_nop

00000074 0000000000000010 00000078 FDE cie=00000000 pc=0000000000000d90..0000000000000d94
  DW_CFA_nop
  DW_CFA_nop
  DW_CFA_nop

00000088 0000000000000028 0000008c FDE cie=00000000 pc=0000000000000d94..0000000000000f28
  DW_CFA_advance_loc: 4 to 0000000000000d98
  DW_CFA_def_cfa_offset: 112
  DW_CFA_offset: r29 (x29) at cfa-112
  DW_CFA_offset: r30 (x30) at cfa-104
  DW_CFA_advance_loc: 12 to 0000000000000da4
  DW_CFA_offset: r19 (x19) at cfa-96
  DW_CFA_offset: r20 (x20) at cfa-88
  DW_CFA_offset: r21 (x21) at cfa-80
  DW_CFA_advance_loc: 208 to 0000000000000e74
  DW_CFA_remember_state
  DW_CFA_restore: r30 (x30)
  DW_CFA_restore: r29 (x29)
  DW_CFA_restore: r21 (x21)
  DW_CFA_restore: r19 (x19)
  DW_CFA_restore: r20 (x20)
  DW_CFA_def_cfa_offset: 0
  DW_CFA_advance_loc: 4 to 0000000000000e78
  DW_CFA_restore_state
  DW_CFA_nop
  DW_CFA_nop

000000b4 000000000000001c 000000b8 FDE cie=00000000 pc=0000000000000f28..0000000000000f68
  DW_CFA_advance_loc: 4 to 0000000000000f2c
  DW_CFA_def_cfa_offset: 16
  DW_CFA_offset: r29 (x29) at cfa-16
  DW_CFA_offset: r30 (x30) at cfa-8
  DW_CFA_advance_loc: 56 to 0000000000000f64
  DW_CFA_restore: r30 (x30)
  DW_CFA_restore: r29 (x29)
  DW_CFA_def_cfa_offset: 0
  DW_CFA_nop
  DW_CFA_nop
  DW_CFA_nop

000000d4 000000000000001c 000000d8 FDE cie=00000000 pc=0000000000000f68..0000000000000fa0
  DW_CFA_advance_loc: 4 to 0000000000000f6c
  DW_CFA_def_cfa_offset: 32
  DW_CFA_offset: r29 (x29) at cfa-32
  DW_CFA_offset: r30 (x30) at cfa-24
  DW_CFA_advance_loc: 48 to 0000000000000f9c
  DW_CFA_restore: r30 (x30)
  DW_CFA_restore: r29 (x29)
  DW_CFA_def_cfa_offset: 0
  DW_CFA_nop
  DW_CFA_nop
  DW_CFA_nop

000000f4 0000000000000040 000000f8 FDE cie=00000000 pc=0000000000000fa0..000000000000109c
  DW_CFA_advance_loc: 4 to 0000000000000fa4
  DW_CFA_def_cfa_offset: 48
  DW_CFA_offset: r29 (x29) at cfa-48
  DW_CFA_offset: r30 (x30) at cfa-40
  DW_CFA_advance_loc: 20 to 0000000000000fb8
  DW_CFA_offset: r20 (x20) at cfa-24
  DW_CFA_offset: r19 (x19) at cfa-32
  DW_CFA_advance_loc: 60 to 0000000000000ff4
  DW_CFA_offset_extended: r73 (v9) at cfa-8
  DW_CFA_offset_extended: r72 (v8) at cfa-16
  DW_CFA_advance_loc: 24 to 000000000000100c
  DW_CFA_restore: r19 (x19)
  DW_CFA_restore: r20 (x20)
  DW_CFA_restore_extended: r72 (v8)
  DW_CFA_restore_extended: r73 (v9)
  DW_CFA_advance_loc: 28 to 0000000000001028
  DW_CFA_offset: r19 (x19) at cfa-32
  DW_CFA_offset: r20 (x20) at cfa-24
  DW_CFA_advance_loc: 24 to 0000000000001040
  DW_CFA_offset_extended: r72 (v8) at cfa-16
  DW_CFA_offset_extended: r73 (v9) at cfa-8
  DW_CFA_advance_loc: 68 to 0000000000001084
  DW_CFA_restore_extended: r73 (v9)
  DW_CFA_restore_extended: r72 (v8)
  DW_CFA_advance_loc: 16 to 0000000000001094
  DW_CFA_restore: r20 (x20)
  DW_CFA_restore: r19 (x19)
  DW_CFA_advance_loc: 4 to 0000000000001098
  DW_CFA_restore: r30 (x30)
  DW_CFA_restore: r29 (x29)
  DW_CFA_def_cfa_offset: 0

00000138 0000000000000020 0000013c FDE cie=00000000 pc=000000000000109c..00000000000010cc
  DW_CFA_advance_loc: 4 to 00000000000010a0
  DW_CFA_def_cfa_offset: 32
  DW_CFA_offset: r29 (x29) at cfa-32
  DW_CFA_offset: r30 (x30) at cfa-24
  DW_CFA_advance_loc: 8 to 00000000000010a8
  DW_CFA_offset: r19 (x19) at cfa-16
  DW_CFA_advance_loc: 32 to 00000000000010c8
  DW_CFA_restore: r30 (x30)
  DW_CFA_restore: r29 (x29)
  DW_CFA_restore: r19 (x19)
  DW_CFA_def_cfa_offset: 0
  DW_CFA_nop
  DW_CFA_nop
  DW_CFA_nop

0000015c 000000000000001c 00000160 FDE cie=00000000 pc=00000000000010cc..0000000000001100
  DW_CFA_advance_loc: 4 to 00000000000010d0
  DW_CFA_def_cfa_offset: 16
  DW_CFA_offset: r29 (x29) at cfa-16
  DW_CFA_offset: r30 (x30) at cfa-8
  DW_CFA_advance_loc: 44 to 00000000000010fc
  DW_CFA_restore: r30 (x30)
  DW_CFA_restore: r29 (x29)
  DW_CFA_def_cfa_offset: 0
  DW_CFA_nop
  DW_CFA_nop
  DW_CFA_nop

0000017c ZERO terminator


Contents of the .debug_aranges section (loaded from a.out):

  Length:                   44
  Version:                  2
  Offset into .debug_info:  0
  Pointer Size:             8
  Segment Size:             0

    Address            Length
    0000000000000d94 000000000000036c
    0000000000000000 0000000000000000

Contents of the .debug_info section (loaded from a.out):

  Compilation Unit @ offset 0:
   Length:        0xa49 (32-bit)
   Version:       5
   Unit Type:     DW_UT_compile (1)
   Abbrev Offset: 0
   Pointer Size:  8
 <0><c>: Abbrev Number: 26 (DW_TAG_compile_unit)
    <d>   DW_AT_producer    : (indirect string, offset: 0x217): GNU C99 12.2.0 -mlittle-endian -mabi=lp64 -g -O1 -std=gnu99 -fasynchronous-unwind-tables
    <11>   DW_AT_language    : 12	(ANSI C99)
    <12>   DW_AT_name        : (indirect line string, offset: 0x24): ../morse.c
    <16>   DW_AT_comp_dir    : (indirect line string, offset: 0): /root/hello-world/aarch64-linux-gnu
    <1a>   DW_AT_low_pc      : 0xd94
    <22>   DW_AT_high_pc     : 0x36c
    <2a>   DW_AT_stmt_list   : 0
 <1><2e>: Abbrev Number: 4 (DW_TAG_base_type)
    <2f>   DW_AT_byte_size   : 8
    <30>   DW_AT_encoding    : 4	(float)
    <31>   DW_AT_name        : (indirect string, offset: 0xe7): double
 <1><35>: Abbrev Number: 7 (DW_TAG_typedef)
    <36>   DW_AT_name        : (indirect string, offset: 0x26): size_t
    <3a>   DW_AT_decl_file   : 2
    <3b>   DW_AT_decl_line   : 214
    <3c>   DW_AT_decl_column : 23
    <3d>   DW_AT_type        : <0x41>
 <1><41>: Abbrev Number: 4 (DW_TAG_base_type)
    <42>   DW_AT_byte_size   : 8
    <43>   DW_AT_encoding    : 7	(unsigned)
    <44>   DW_AT_name        : (indirect string, offset: 0x55): long unsigned int
 <1><48>: Abbrev Number: 27 (DW_TAG_pointer_type)
    <49>   DW_AT_byte_size   : 8
 <1><4a>: Abbrev Number: 28 (DW_TAG_base_type)
    <4b>   DW_AT_byte_size   : 4
    <4c>   DW_AT_encoding    : 5	(signed)
    <4d>   DW_AT_name        : int
 <1><51>: Abbrev Number: 12 (DW_TAG_const_type)
    <52>   DW_AT_type        : <0x4a>
 <1><56>: Abbrev Number: 4 (DW_TAG_base_type)
    <57>   DW_AT_byte_size   : 1
    <58>   DW_AT_encoding    : 8	(unsigned char)
    <59>   DW_AT_name        : (indirect string, offset: 0x281): unsigned char
 <1><5d>: Abbrev Number: 4 (DW_TAG_base_type)
    <5e>   DW_AT_byte_size   : 2
    <5f>   DW_AT_encoding    : 7	(unsigned)
    <60>   DW_AT_name        : (indirect string, offset: 0x130): short unsigned int
 <1><64>: Abbrev Number: 4 (DW_TAG_base_type)
    <65>   DW_AT_byte_size   : 4
    <66>   DW_AT_encoding    : 7	(unsigned)
    <67>   DW_AT_name        : (indirect string, offset: 0x5a): unsigned int
 <1><6b>: Abbrev Number: 4 (DW_TAG_base_type)
    <6c>   DW_AT_byte_size   : 1
    <6d>   DW_AT_encoding    : 6	(signed char)
    <6e>   DW_AT_name        : (indirect string, offset: 0x283): signed char
 <1><72>: Abbrev Number: 4 (DW_TAG_base_type)
    <73>   DW_AT_byte_size   : 2
    <74>   DW_AT_encoding    : 5	(signed)
    <75>   DW_AT_name        : (indirect string, offset: 0x28f): short int
 <1><79>: Abbrev Number: 4 (DW_TAG_base_type)
    <7a>   DW_AT_byte_size   : 8
    <7b>   DW_AT_encoding    : 5	(signed)
    <7c>   DW_AT_name        : (indirect string, offset: 0x76): long int
 <1><80>: Abbrev Number: 7 (DW_TAG_typedef)
    <81>   DW_AT_name        : (indirect string, offset: 0): __off_t
    <85>   DW_AT_decl_file   : 3
    <86>   DW_AT_decl_line   : 152
    <87>   DW_AT_decl_column : 25
    <88>   DW_AT_type        : <0x79>
 <1><8c>: Abbrev Number: 7 (DW_TAG_typedef)
    <8d>   DW_AT_name        : (indirect string, offset: 0x2d5): __off64_t
    <91>   DW_AT_decl_file   : 3
    <92>   DW_AT_decl_line   : 153
    <93>   DW_AT_decl_column : 27
    <94>   DW_AT_type        : <0x79>
 <1><98>: Abbrev Number: 7 (DW_TAG_typedef)
    <99>   DW_AT_name        : (indirect string, offset: 0x308): __time_t
    <9d>   DW_AT_decl_file   : 3
    <9e>   DW_AT_decl_line   : 160
    <9f>   DW_AT_decl_column : 26
    <a0>   DW_AT_type        : <0x79>
 <1><a4>: Abbrev Number: 7 (DW_TAG_typedef)
    <a5>   DW_AT_name        : (indirect string, offset: 0x191): __syscall_slong_t
    <a9>   DW_AT_decl_file   : 3
    <aa>   DW_AT_decl_line   : 197
    <ab>   DW_AT_decl_column : 33
    <ac>   DW_AT_type        : <0x79>
 <1><b0>: Abbrev Number: 6 (DW_TAG_pointer_type)
    <b1>   DW_AT_byte_size   : 8
    <b1>   DW_AT_type        : <0xb5>
 <1><b5>: Abbrev Number: 4 (DW_TAG_base_type)
    <b6>   DW_AT_byte_size   : 1
    <b7>   DW_AT_encoding    : 8	(unsigned char)
    <b8>   DW_AT_name        : (indirect string, offset: 0x28a): char
 <1><bc>: Abbrev Number: 12 (DW_TAG_const_type)
    <bd>   DW_AT_type        : <0xb5>
 <1><c1>: Abbrev Number: 21 (DW_TAG_structure_type)
    <c2>   DW_AT_name        : (indirect string, offset: 0x1ce): _IO_FILE
    <c6>   DW_AT_byte_size   : 216
    <c7>   DW_AT_decl_file   : 4
    <c8>   DW_AT_decl_line   : 49
    <c9>   DW_AT_decl_column : 8
    <c9>   DW_AT_sibling     : <0x247>
 <2><cd>: Abbrev Number: 2 (DW_TAG_member)
    <ce>   DW_AT_name        : (indirect string, offset: 0xbc): _flags
    <d2>   DW_AT_decl_file   : 4
    <d3>   DW_AT_decl_line   : 51
    <d4>   DW_AT_decl_column : 7
    <d5>   DW_AT_type        : <0x4a>
    <d9>   DW_AT_data_member_location: 0
 <2><da>: Abbrev Number: 2 (DW_TAG_member)
    <db>   DW_AT_name        : (indirect string, offset: 0x8): _IO_read_ptr
    <df>   DW_AT_decl_file   : 4
    <e0>   DW_AT_decl_line   : 54
    <e1>   DW_AT_decl_column : 9
    <e2>   DW_AT_type        : <0xb0>
    <e6>   DW_AT_data_member_location: 8
 <2><e7>: Abbrev Number: 2 (DW_TAG_member)
    <e8>   DW_AT_name        : (indirect string, offset: 0xaf): _IO_read_end
    <ec>   DW_AT_decl_file   : 4
    <ed>   DW_AT_decl_line   : 55
    <ee>   DW_AT_decl_column : 9
    <ef>   DW_AT_type        : <0xb0>
    <f3>   DW_AT_data_member_location: 16
 <2><f4>: Abbrev Number: 2 (DW_TAG_member)
    <f5>   DW_AT_name        : (indirect string, offset: 0x2df): _IO_read_base
    <f9>   DW_AT_decl_file   : 4
    <fa>   DW_AT_decl_line   : 56
    <fb>   DW_AT_decl_column : 9
    <fc>   DW_AT_type        : <0xb0>
    <100>   DW_AT_data_member_location: 24
 <2><101>: Abbrev Number: 2 (DW_TAG_member)
    <102>   DW_AT_name        : (indirect string, offset: 0x34e): _IO_write_base
    <106>   DW_AT_decl_file   : 4
    <107>   DW_AT_decl_line   : 57
    <108>   DW_AT_decl_column : 9
    <109>   DW_AT_type        : <0xb0>
    <10d>   DW_AT_data_member_location: 32
 <2><10e>: Abbrev Number: 2 (DW_TAG_member)
    <10f>   DW_AT_name        : (indirect string, offset: 0x122): _IO_write_ptr
    <113>   DW_AT_decl_file   : 4
    <114>   DW_AT_decl_line   : 58
    <115>   DW_AT_decl_column : 9
    <116>   DW_AT_type        : <0xb0>
    <11a>   DW_AT_data_member_location: 40
 <2><11b>: Abbrev Number: 2 (DW_TAG_member)
    <11c>   DW_AT_name        : (indirect string, offset: 0x1a3): _IO_write_end
    <120>   DW_AT_decl_file   : 4
    <121>   DW_AT_decl_line   : 59
    <122>   DW_AT_decl_column : 9
    <123>   DW_AT_type        : <0xb0>
    <127>   DW_AT_data_member_location: 48
 <2><128>: Abbrev Number: 2 (DW_TAG_member)
    <129>   DW_AT_name        : (indirect string, offset: 0x43): _IO_buf_base
    <12d>   DW_AT_decl_file   : 4
    <12e>   DW_AT_decl_line   : 60
    <12f>   DW_AT_decl_column : 9
    <130>   DW_AT_type        : <0xb0>
    <134>   DW_AT_data_member_location: 56
 <2><135>: Abbrev Number: 2 (DW_TAG_member)
    <136>   DW_AT_name        : (indirect string, offset: 0xc3): _IO_buf_end
    <13a>   DW_AT_decl_file   : 4
    <13b>   DW_AT_decl_line   : 61
    <13c>   DW_AT_decl_column : 9
    <13d>   DW_AT_type        : <0xb0>
    <141>   DW_AT_data_member_location: 64
 <2><142>: Abbrev Number: 2 (DW_TAG_member)
    <143>   DW_AT_name        : (indirect string, offset: 0x143): _IO_save_base
    <147>   DW_AT_decl_file   : 4
    <148>   DW_AT_decl_line   : 64
    <149>   DW_AT_decl_column : 9
    <14a>   DW_AT_type        : <0xb0>
    <14e>   DW_AT_data_member_location: 72
 <2><14f>: Abbrev Number: 2 (DW_TAG_member)
    <150>   DW_AT_name        : (indirect string, offset: 0x326): _IO_backup_base
    <154>   DW_AT_decl_file   : 4
    <155>   DW_AT_decl_line   : 65
    <156>   DW_AT_decl_column : 9
    <157>   DW_AT_type        : <0xb0>
    <15b>   DW_AT_data_member_location: 80
 <2><15c>: Abbrev Number: 2 (DW_TAG_member)
    <15d>   DW_AT_name        : (indirect string, offset: 0x2ed): _IO_save_end
    <161>   DW_AT_decl_file   : 4
    <162>   DW_AT_decl_line   : 66
    <163>   DW_AT_decl_column : 9
    <164>   DW_AT_type        : <0xb0>
    <168>   DW_AT_data_member_location: 88
 <2><169>: Abbrev Number: 2 (DW_TAG_member)
    <16a>   DW_AT_name        : (indirect string, offset: 0x1f8): _markers
    <16e>   DW_AT_decl_file   : 4
    <16f>   DW_AT_decl_line   : 68
    <170>   DW_AT_decl_column : 22
    <171>   DW_AT_type        : <0x260>
    <175>   DW_AT_data_member_location: 96
 <2><176>: Abbrev Number: 2 (DW_TAG_member)
    <177>   DW_AT_name        : (indirect string, offset: 0x15): _chain
    <17b>   DW_AT_decl_file   : 4
    <17c>   DW_AT_decl_line   : 70
    <17d>   DW_AT_decl_column : 20
    <17e>   DW_AT_type        : <0x265>
    <182>   DW_AT_data_member_location: 104
 <2><183>: Abbrev Number: 2 (DW_TAG_member)
    <184>   DW_AT_name        : (indirect string, offset: 0x97): _fileno
    <188>   DW_AT_decl_file   : 4
    <189>   DW_AT_decl_line   : 72
    <18a>   DW_AT_decl_column : 7
    <18b>   DW_AT_type        : <0x4a>
    <18f>   DW_AT_data_member_location: 112
 <2><190>: Abbrev Number: 2 (DW_TAG_member)
    <191>   DW_AT_name        : (indirect string, offset: 0x15f): _flags2
    <195>   DW_AT_decl_file   : 4
    <196>   DW_AT_decl_line   : 73
    <197>   DW_AT_decl_column : 7
    <198>   DW_AT_type        : <0x4a>
    <19c>   DW_AT_data_member_location: 116
 <2><19d>: Abbrev Number: 2 (DW_TAG_member)
    <19e>   DW_AT_name        : (indirect string, offset: 0xee): _old_offset
    <1a2>   DW_AT_decl_file   : 4
    <1a3>   DW_AT_decl_line   : 74
    <1a4>   DW_AT_decl_column : 11
    <1a5>   DW_AT_type        : <0x80>
    <1a9>   DW_AT_data_member_location: 120
 <2><1aa>: Abbrev Number: 2 (DW_TAG_member)
    <1ab>   DW_AT_name        : (indirect string, offset: 0xcf): _cur_column
    <1af>   DW_AT_decl_file   : 4
    <1b0>   DW_AT_decl_line   : 77
    <1b1>   DW_AT_decl_column : 18
    <1b2>   DW_AT_type        : <0x5d>
    <1b6>   DW_AT_data_member_location: 128
 <2><1b7>: Abbrev Number: 2 (DW_TAG_member)
    <1b8>   DW_AT_name        : (indirect string, offset: 0x2ba): _vtable_offset
    <1bc>   DW_AT_decl_file   : 4
    <1bd>   DW_AT_decl_line   : 78
    <1be>   DW_AT_decl_column : 15
    <1bf>   DW_AT_type        : <0x6b>
    <1c3>   DW_AT_data_member_location: 130
 <2><1c4>: Abbrev Number: 2 (DW_TAG_member)
    <1c5>   DW_AT_name        : (indirect string, offset: 0x2d): _shortbuf
    <1c9>   DW_AT_decl_file   : 4
    <1ca>   DW_AT_decl_line   : 79
    <1cb>   DW_AT_decl_column : 8
    <1cc>   DW_AT_type        : <0x26a>
    <1d0>   DW_AT_data_member_location: 131
 <2><1d1>: Abbrev Number: 2 (DW_TAG_member)
    <1d2>   DW_AT_name        : (indirect string, offset: 0x151): _lock
    <1d6>   DW_AT_decl_file   : 4
    <1d7>   DW_AT_decl_line   : 81
    <1d8>   DW_AT_decl_column : 15
    <1d9>   DW_AT_type        : <0x27a>
    <1dd>   DW_AT_data_member_location: 136
 <2><1de>: Abbrev Number: 2 (DW_TAG_member)
    <1df>   DW_AT_name        : (indirect string, offset: 0xf2): _offset
    <1e3>   DW_AT_decl_file   : 4
    <1e4>   DW_AT_decl_line   : 89
    <1e5>   DW_AT_decl_column : 13
    <1e6>   DW_AT_type        : <0x8c>
    <1ea>   DW_AT_data_member_location: 144
 <2><1eb>: Abbrev Number: 2 (DW_TAG_member)
    <1ec>   DW_AT_name        : (indirect string, offset: 0xde): _codecvt
    <1f0>   DW_AT_decl_file   : 4
    <1f1>   DW_AT_decl_line   : 91
    <1f2>   DW_AT_decl_column : 23
    <1f3>   DW_AT_type        : <0x284>
    <1f7>   DW_AT_data_member_location: 152
 <2><1f8>: Abbrev Number: 2 (DW_TAG_member)
    <1f9>   DW_AT_name        : (indirect string, offset: 0x29c): _wide_data
    <1fd>   DW_AT_decl_file   : 4
    <1fe>   DW_AT_decl_line   : 92
    <1ff>   DW_AT_decl_column : 25
    <200>   DW_AT_type        : <0x28e>
    <204>   DW_AT_data_member_location: 160
 <2><205>: Abbrev Number: 2 (DW_TAG_member)
    <206>   DW_AT_name        : (indirect string, offset: 0x33b): _freeres_list
    <20a>   DW_AT_decl_file   : 4
    <20b>   DW_AT_decl_line   : 93
    <20c>   DW_AT_decl_column : 20
    <20d>   DW_AT_type        : <0x265>
    <211>   DW_AT_data_member_location: 168
 <2><212>: Abbrev Number: 2 (DW_TAG_member)
    <213>   DW_AT_name        : (indirect string, offset: 0x10d): _freeres_buf
    <217>   DW_AT_decl_file   : 4
    <218>   DW_AT_decl_line   : 94
    <219>   DW_AT_decl_column : 9
    <21a>   DW_AT_type        : <0x48>
    <21e>   DW_AT_data_member_location: 176
 <2><21f>: Abbrev Number: 2 (DW_TAG_member)
    <220>   DW_AT_name        : (indirect string, offset: 0x301): __pad5
    <224>   DW_AT_decl_file   : 4
    <225>   DW_AT_decl_line   : 95
    <226>   DW_AT_decl_column : 10
    <227>   DW_AT_type        : <0x35>
    <22b>   DW_AT_data_member_location: 184
 <2><22c>: Abbrev Number: 2 (DW_TAG_member)
    <22d>   DW_AT_name        : (indirect string, offset: 0x167): _mode
    <231>   DW_AT_decl_file   : 4
    <232>   DW_AT_decl_line   : 96
    <233>   DW_AT_decl_column : 7
    <234>   DW_AT_type        : <0x4a>
    <238>   DW_AT_data_member_location: 192
 <2><239>: Abbrev Number: 2 (DW_TAG_member)
    <23a>   DW_AT_name        : (indirect string, offset: 0x311): _unused2
    <23e>   DW_AT_decl_file   : 4
    <23f>   DW_AT_decl_line   : 98
    <240>   DW_AT_decl_column : 8
    <241>   DW_AT_type        : <0x293>
    <245>   DW_AT_data_member_location: 196
 <2><246>: Abbrev Number: 0
 <1><247>: Abbrev Number: 7 (DW_TAG_typedef)
    <248>   DW_AT_name        : (indirect string, offset: 0x1d2): FILE
    <24c>   DW_AT_decl_file   : 5
    <24d>   DW_AT_decl_line   : 7
    <24e>   DW_AT_decl_column : 25
    <24f>   DW_AT_type        : <0xc1>
 <1><253>: Abbrev Number: 29 (DW_TAG_typedef)
    <254>   DW_AT_name        : (indirect string, offset: 0x1ba): _IO_lock_t
    <258>   DW_AT_decl_file   : 4
    <259>   DW_AT_decl_line   : 43
    <25a>   DW_AT_decl_column : 14
 <1><25b>: Abbrev Number: 17 (DW_TAG_structure_type)
    <25c>   DW_AT_name        : (indirect string, offset: 0x102): _IO_marker
    <260>   DW_AT_declaration : 1
 <1><260>: Abbrev Number: 6 (DW_TAG_pointer_type)
    <261>   DW_AT_byte_size   : 8
    <261>   DW_AT_type        : <0x25b>
 <1><265>: Abbrev Number: 6 (DW_TAG_pointer_type)
    <266>   DW_AT_byte_size   : 8
    <266>   DW_AT_type        : <0xc1>
 <1><26a>: Abbrev Number: 13 (DW_TAG_array_type)
    <26b>   DW_AT_type        : <0xb5>
    <26f>   DW_AT_sibling     : <0x27a>
 <2><273>: Abbrev Number: 14 (DW_TAG_subrange_type)
    <274>   DW_AT_type        : <0x41>
    <278>   DW_AT_upper_bound : 0
 <2><279>: Abbrev Number: 0
 <1><27a>: Abbrev Number: 6 (DW_TAG_pointer_type)
    <27b>   DW_AT_byte_size   : 8
    <27b>   DW_AT_type        : <0x253>
 <1><27f>: Abbrev Number: 17 (DW_TAG_structure_type)
    <280>   DW_AT_name        : (indirect string, offset: 0xdb): _IO_codecvt
    <284>   DW_AT_declaration : 1
 <1><284>: Abbrev Number: 6 (DW_TAG_pointer_type)
    <285>   DW_AT_byte_size   : 8
    <285>   DW_AT_type        : <0x27f>
 <1><289>: Abbrev Number: 17 (DW_TAG_structure_type)
    <28a>   DW_AT_name        : (indirect string, offset: 0x299): _IO_wide_data
    <28e>   DW_AT_declaration : 1
 <1><28e>: Abbrev Number: 6 (DW_TAG_pointer_type)
    <28f>   DW_AT_byte_size   : 8
    <28f>   DW_AT_type        : <0x289>
 <1><293>: Abbrev Number: 13 (DW_TAG_array_type)
    <294>   DW_AT_type        : <0xb5>
    <298>   DW_AT_sibling     : <0x2a3>
 <2><29c>: Abbrev Number: 14 (DW_TAG_subrange_type)
    <29d>   DW_AT_type        : <0x41>
    <2a1>   DW_AT_upper_bound : 19
 <2><2a2>: Abbrev Number: 0
 <1><2a3>: Abbrev Number: 6 (DW_TAG_pointer_type)
    <2a4>   DW_AT_byte_size   : 8
    <2a4>   DW_AT_type        : <0x247>
 <1><2a8>: Abbrev Number: 22 (DW_TAG_restrict_type)
    <2a9>   DW_AT_type        : <0x2a3>
 <1><2ad>: Abbrev Number: 4 (DW_TAG_base_type)
    <2ae>   DW_AT_byte_size   : 8
    <2af>   DW_AT_encoding    : 5	(signed)
    <2b0>   DW_AT_name        : (indirect string, offset: 0x71): long long int
 <1><2b4>: Abbrev Number: 21 (DW_TAG_structure_type)
    <2b5>   DW_AT_name        : (indirect string, offset: 0x2b1): timespec
    <2b9>   DW_AT_byte_size   : 16
    <2ba>   DW_AT_decl_file   : 6
    <2bb>   DW_AT_decl_line   : 11
    <2bc>   DW_AT_decl_column : 8
    <2bc>   DW_AT_sibling     : <0x2db>
 <2><2c0>: Abbrev Number: 2 (DW_TAG_member)
    <2c1>   DW_AT_name        : (indirect string, offset: 0x18a): tv_sec
    <2c5>   DW_AT_decl_file   : 6
    <2c6>   DW_AT_decl_line   : 16
    <2c7>   DW_AT_decl_column : 12
    <2c8>   DW_AT_type        : <0x98>
    <2cc>   DW_AT_data_member_location: 0
 <2><2cd>: Abbrev Number: 2 (DW_TAG_member)
    <2ce>   DW_AT_name        : (indirect string, offset: 0x182): tv_nsec
    <2d2>   DW_AT_decl_file   : 6
    <2d3>   DW_AT_decl_line   : 21
    <2d4>   DW_AT_decl_column : 21
    <2d5>   DW_AT_type        : <0xa4>
    <2d9>   DW_AT_data_member_location: 8
 <2><2da>: Abbrev Number: 0
 <1><2db>: Abbrev Number: 12 (DW_TAG_const_type)
    <2dc>   DW_AT_type        : <0x2b4>
 <1><2e0>: Abbrev Number: 4 (DW_TAG_base_type)
    <2e1>   DW_AT_byte_size   : 8
    <2e2>   DW_AT_encoding    : 7	(unsigned)
    <2e3>   DW_AT_name        : (indirect string, offset: 0x50): long long unsigned int
 <1><2e7>: Abbrev Number: 13 (DW_TAG_array_type)
    <2e8>   DW_AT_type        : <0xb5>
    <2ec>   DW_AT_sibling     : <0x2f7>
 <2><2f0>: Abbrev Number: 14 (DW_TAG_subrange_type)
    <2f1>   DW_AT_type        : <0x41>
    <2f5>   DW_AT_upper_bound : 63
 <2><2f6>: Abbrev Number: 0
 <1><2f7>: Abbrev Number: 6 (DW_TAG_pointer_type)
    <2f8>   DW_AT_byte_size   : 8
    <2f8>   DW_AT_type        : <0xbc>
 <1><2fc>: Abbrev Number: 22 (DW_TAG_restrict_type)
    <2fd>   DW_AT_type        : <0x2f7>
 <1><301>: Abbrev Number: 30 (DW_TAG_variable)
    <302>   DW_AT_name        : (indirect string, offset: 0x90): blinky
    <306>   DW_AT_decl_file   : 1
    <307>   DW_AT_decl_line   : 12
    <308>   DW_AT_decl_column : 18
    <309>   DW_AT_type        : <0x51>
    <30d>   DW_AT_const_value : 440
 <1><30f>: Abbrev Number: 23 (DW_TAG_variable)
    <310>   DW_AT_name        : fp
    <313>   DW_AT_decl_file   : 1
    <313>   DW_AT_decl_line   : 17
    <314>   DW_AT_decl_column : 14
    <315>   DW_AT_type        : <0x2a3>
    <319>   DW_AT_location    : 9 byte block: 3 90 0 2 0 0 0 0 0 	(DW_OP_addr: 20090)
 <1><323>: Abbrev Number: 9 (DW_TAG_variable)
    <324>   DW_AT_name        : (indirect string, offset: 0x20e): time_dit
    <328>   DW_AT_decl_file   : 1
    <328>   DW_AT_decl_line   : 85
    <329>   DW_AT_decl_column : 21
    <329>   DW_AT_type        : <0x336>
    <32d>   DW_AT_const_value : 8 byte block: 1f 85 eb 51 b8 1e d5 3f 
 <1><336>: Abbrev Number: 12 (DW_TAG_const_type)
    <337>   DW_AT_type        : <0x2e>
 <1><33b>: Abbrev Number: 9 (DW_TAG_variable)
    <33c>   DW_AT_name        : (indirect string, offset: 0x1b1): time_dah
    <340>   DW_AT_decl_file   : 1
    <340>   DW_AT_decl_line   : 86
    <341>   DW_AT_decl_column : 21
    <341>   DW_AT_type        : <0x336>
    <345>   DW_AT_const_value : 8 byte block: ae 47 e1 7a 14 ae ef 3f 
 <1><34e>: Abbrev Number: 9 (DW_TAG_variable)
    <34f>   DW_AT_name        : (indirect string, offset: 0x270): time_space
    <353>   DW_AT_decl_file   : 1
    <353>   DW_AT_decl_line   : 88
    <354>   DW_AT_decl_column : 21
    <354>   DW_AT_type        : <0x336>
    <358>   DW_AT_const_value : 8 byte block: 1f 85 eb 51 b8 1e d5 3f 
 <1><361>: Abbrev Number: 9 (DW_TAG_variable)
    <362>   DW_AT_name        : (indirect string, offset: 0x1d7): time_letter
    <366>   DW_AT_decl_file   : 1
    <366>   DW_AT_decl_line   : 90
    <367>   DW_AT_decl_column : 21
    <367>   DW_AT_type        : <0x336>
    <36b>   DW_AT_const_value : 8 byte block: 1f 85 eb 51 b8 1e e5 3f 
 <1><374>: Abbrev Number: 9 (DW_TAG_variable)
    <375>   DW_AT_name        : (indirect string, offset: 0x1c): time_word
    <379>   DW_AT_decl_file   : 1
    <379>   DW_AT_decl_line   : 92
    <37a>   DW_AT_decl_column : 21
    <37a>   DW_AT_type        : <0x336>
    <37e>   DW_AT_const_value : 8 byte block: 1f 85 eb 51 b8 1e f5 3f 
 <1><387>: Abbrev Number: 13 (DW_TAG_array_type)
    <388>   DW_AT_type        : <0x2f7>
    <38c>   DW_AT_sibling     : <0x397>
 <2><390>: Abbrev Number: 14 (DW_TAG_subrange_type)
    <391>   DW_AT_type        : <0x41>
    <395>   DW_AT_upper_bound : 35
 <2><396>: Abbrev Number: 0
 <1><397>: Abbrev Number: 24 (DW_TAG_variable)
    <398>   DW_AT_name        : (indirect string, offset: 0x2a7): morse_tbl
    <39c>   DW_AT_decl_file   : 1
    <39c>   DW_AT_decl_line   : 100
    <39d>   DW_AT_decl_column : 20
    <39e>   DW_AT_type        : <0x387>
    <3a2>   DW_AT_location    : 9 byte block: 3 b8 fc 1 0 0 0 0 0 	(DW_OP_addr: 1fcb8)
 <1><3ac>: Abbrev Number: 10 (DW_TAG_subprogram)
    <3ad>   DW_AT_external    : 1
    <3ad>   DW_AT_name        : (indirect string, offset: 0x67): nanosleep
    <3b1>   DW_AT_decl_file   : 7
    <3b2>   DW_AT_decl_line   : 281
    <3b4>   DW_AT_decl_column : 12
    <3b5>   DW_AT_prototyped  : 1
    <3b5>   DW_AT_type        : <0x4a>
    <3b9>   DW_AT_declaration : 1
    <3b9>   DW_AT_sibling     : <0x3c8>
 <2><3bd>: Abbrev Number: 5 (DW_TAG_formal_parameter)
    <3be>   DW_AT_type        : <0x3c8>
 <2><3c2>: Abbrev Number: 5 (DW_TAG_formal_parameter)
    <3c3>   DW_AT_type        : <0x3cd>
 <2><3c7>: Abbrev Number: 0
 <1><3c8>: Abbrev Number: 6 (DW_TAG_pointer_type)
    <3c9>   DW_AT_byte_size   : 8
    <3c9>   DW_AT_type        : <0x2db>
 <1><3cd>: Abbrev Number: 6 (DW_TAG_pointer_type)
    <3ce>   DW_AT_byte_size   : 8
    <3ce>   DW_AT_type        : <0x2b4>
 <1><3d2>: Abbrev Number: 25 (DW_TAG_subprogram)
    <3d3>   DW_AT_external    : 1
    <3d3>   DW_AT_name        : (indirect string, offset: 0x1f1): fflush
    <3d7>   DW_AT_decl_file   : 8
    <3d7>   DW_AT_decl_line   : 230
    <3d8>   DW_AT_decl_column : 12
    <3d8>   DW_AT_prototyped  : 1
    <3d8>   DW_AT_type        : <0x4a>
    <3dc>   DW_AT_declaration : 1
    <3dc>   DW_AT_sibling     : <0x3e6>
 <2><3e0>: Abbrev Number: 5 (DW_TAG_formal_parameter)
    <3e1>   DW_AT_type        : <0x2a3>
 <2><3e5>: Abbrev Number: 0
 <1><3e6>: Abbrev Number: 25 (DW_TAG_subprogram)
    <3e7>   DW_AT_external    : 1
    <3e7>   DW_AT_name        : (indirect string, offset: 0x2ce): fclose
    <3eb>   DW_AT_decl_file   : 8
    <3eb>   DW_AT_decl_line   : 178
    <3ec>   DW_AT_decl_column : 12
    <3ec>   DW_AT_prototyped  : 1
    <3ec>   DW_AT_type        : <0x4a>
    <3f0>   DW_AT_declaration : 1
    <3f0>   DW_AT_sibling     : <0x3fa>
 <2><3f4>: Abbrev Number: 5 (DW_TAG_formal_parameter)
    <3f5>   DW_AT_type        : <0x2a3>
 <2><3f9>: Abbrev Number: 0
 <1><3fa>: Abbrev Number: 10 (DW_TAG_subprogram)
    <3fb>   DW_AT_external    : 1
    <3fb>   DW_AT_name        : (indirect string, offset: 0x11a): fprintf
    <3ff>   DW_AT_decl_file   : 8
    <400>   DW_AT_decl_line   : 350
    <402>   DW_AT_decl_column : 12
    <403>   DW_AT_prototyped  : 1
    <403>   DW_AT_type        : <0x4a>
    <407>   DW_AT_declaration : 1
    <407>   DW_AT_sibling     : <0x417>
 <2><40b>: Abbrev Number: 5 (DW_TAG_formal_parameter)
    <40c>   DW_AT_type        : <0x2a8>
 <2><410>: Abbrev Number: 5 (DW_TAG_formal_parameter)
    <411>   DW_AT_type        : <0x2fc>
 <2><415>: Abbrev Number: 18 (DW_TAG_unspecified_parameters)
 <2><416>: Abbrev Number: 0
 <1><417>: Abbrev Number: 31 (DW_TAG_subprogram)
    <418>   DW_AT_external    : 1
    <418>   DW_AT_name        : (indirect string, offset: 0x2c9): exit
    <41c>   DW_AT_decl_file   : 9
    <41d>   DW_AT_decl_line   : 637
    <41f>   DW_AT_decl_column : 13
    <420>   DW_AT_prototyped  : 1
    <420>   DW_AT_noreturn    : 1
    <420>   DW_AT_declaration : 1
    <420>   DW_AT_sibling     : <0x42a>
 <2><424>: Abbrev Number: 5 (DW_TAG_formal_parameter)
    <425>   DW_AT_type        : <0x4a>
 <2><429>: Abbrev Number: 0
 <1><42a>: Abbrev Number: 10 (DW_TAG_subprogram)
    <42b>   DW_AT_external    : 1
    <42b>   DW_AT_name        : (indirect string, offset: 0x1eb): fopen
    <42f>   DW_AT_decl_file   : 8
    <430>   DW_AT_decl_line   : 258
    <432>   DW_AT_decl_column : 14
    <433>   DW_AT_prototyped  : 1
    <433>   DW_AT_type        : <0x2a3>
    <437>   DW_AT_declaration : 1
    <437>   DW_AT_sibling     : <0x446>
 <2><43b>: Abbrev Number: 5 (DW_TAG_formal_parameter)
    <43c>   DW_AT_type        : <0x2fc>
 <2><440>: Abbrev Number: 5 (DW_TAG_formal_parameter)
    <441>   DW_AT_type        : <0x2fc>
 <2><445>: Abbrev Number: 0
 <1><446>: Abbrev Number: 10 (DW_TAG_subprogram)
    <447>   DW_AT_external    : 1
    <447>   DW_AT_name        : (indirect string, offset: 0x11b): printf
    <44b>   DW_AT_decl_file   : 8
    <44c>   DW_AT_decl_line   : 356
    <44e>   DW_AT_decl_column : 12
    <44f>   DW_AT_prototyped  : 1
    <44f>   DW_AT_type        : <0x4a>
    <453>   DW_AT_declaration : 1
    <453>   DW_AT_sibling     : <0x45e>
 <2><457>: Abbrev Number: 5 (DW_TAG_formal_parameter)
    <458>   DW_AT_type        : <0x2f7>
 <2><45c>: Abbrev Number: 18 (DW_TAG_unspecified_parameters)
 <2><45d>: Abbrev Number: 0
 <1><45e>: Abbrev Number: 10 (DW_TAG_subprogram)
    <45f>   DW_AT_external    : 1
    <45f>   DW_AT_name        : (indirect string, offset: 0x157): sprintf
    <463>   DW_AT_decl_file   : 8
    <464>   DW_AT_decl_line   : 358
    <466>   DW_AT_decl_column : 12
    <467>   DW_AT_prototyped  : 1
    <467>   DW_AT_type        : <0x4a>
    <46b>   DW_AT_declaration : 1
    <46b>   DW_AT_sibling     : <0x47b>
 <2><46f>: Abbrev Number: 5 (DW_TAG_formal_parameter)
    <470>   DW_AT_type        : <0xb0>
 <2><474>: Abbrev Number: 5 (DW_TAG_formal_parameter)
    <475>   DW_AT_type        : <0x2f7>
 <2><479>: Abbrev Number: 18 (DW_TAG_unspecified_parameters)
 <2><47a>: Abbrev Number: 0
 <1><47b>: Abbrev Number: 32 (DW_TAG_subprogram)
    <47c>   DW_AT_external    : 1
    <47c>   DW_AT_name        : (indirect string, offset: 0x349): main
    <480>   DW_AT_decl_file   : 1
    <481>   DW_AT_decl_line   : 201
    <482>   DW_AT_decl_column : 5
    <483>   DW_AT_prototyped  : 1
    <483>   DW_AT_type        : <0x4a>
    <487>   DW_AT_low_pc      : 0x10cc
    <48f>   DW_AT_high_pc     : 0x34
    <497>   DW_AT_frame_base  : 1 byte block: 9c 	(DW_OP_call_frame_cfa)
    <499>   DW_AT_call_all_calls: 1
    <499>   DW_AT_sibling     : <0x517>
 <2><49d>: Abbrev Number: 15 (DW_TAG_formal_parameter)
    <49e>   DW_AT_name        : (indirect string, offset: 0x336): argc
    <4a2>   DW_AT_decl_file   : 1
    <4a2>   DW_AT_decl_line   : 201
    <4a3>   DW_AT_decl_column : 15
    <4a4>   DW_AT_type        : <0x4a>
    <4a8>   DW_AT_location    : 0x10 (location list)
    <4ac>   DW_AT_GNU_locviews: 0xc
 <2><4b0>: Abbrev Number: 15 (DW_TAG_formal_parameter)
    <4b1>   DW_AT_name        : (indirect string, offset: 0x31a): argv
    <4b5>   DW_AT_decl_file   : 1
    <4b5>   DW_AT_decl_line   : 201
    <4b6>   DW_AT_decl_column : 28
    <4b7>   DW_AT_type        : <0x517>
    <4bb>   DW_AT_location    : 0x26 (location list)
    <4bf>   DW_AT_GNU_locviews: 0x22
 <2><4c3>: Abbrev Number: 3 (DW_TAG_call_site)
    <4c4>   DW_AT_call_return_pc: 0x10e0
    <4cc>   DW_AT_call_origin : <0xa31>
    <4d0>   DW_AT_sibling     : <0x4e2>
 <3><4d4>: Abbrev Number: 1 (DW_TAG_call_site_parameter)
    <4d5>   DW_AT_location    : 1 byte block: 50 	(DW_OP_reg0 (x0))
    <4d7>   DW_AT_call_value  : 9 byte block: 3 98 22 0 0 0 0 0 0 	(DW_OP_addr: 2298)
 <3><4e1>: Abbrev Number: 0
 <2><4e2>: Abbrev Number: 3 (DW_TAG_call_site)
    <4e3>   DW_AT_call_return_pc: 0x10e8
    <4eb>   DW_AT_call_origin : <0x746>
    <4ef>   DW_AT_sibling     : <0x4fb>
 <3><4f3>: Abbrev Number: 1 (DW_TAG_call_site_parameter)
    <4f4>   DW_AT_location    : 1 byte block: 50 	(DW_OP_reg0 (x0))
    <4f6>   DW_AT_call_value  : 3 byte block: a b8 1 	(DW_OP_const2u: 440)
 <3><4fa>: Abbrev Number: 0
 <2><4fb>: Abbrev Number: 16 (DW_TAG_call_site)
    <4fc>   DW_AT_call_return_pc: 0x10f4
    <504>   DW_AT_call_origin : <0x51c>
 <3><508>: Abbrev Number: 1 (DW_TAG_call_site_parameter)
    <509>   DW_AT_location    : 1 byte block: 50 	(DW_OP_reg0 (x0))
    <50b>   DW_AT_call_value  : 9 byte block: 3 b0 22 0 0 0 0 0 0 	(DW_OP_addr: 22b0)
 <3><515>: Abbrev Number: 0
 <2><516>: Abbrev Number: 0
 <1><517>: Abbrev Number: 6 (DW_TAG_pointer_type)
    <518>   DW_AT_byte_size   : 8
    <518>   DW_AT_type        : <0xb0>
 <1><51c>: Abbrev Number: 11 (DW_TAG_subprogram)
    <51d>   DW_AT_external    : 1
    <51d>   DW_AT_name        : (indirect string, offset: 0x17c): morse
    <521>   DW_AT_decl_file   : 1
    <521>   DW_AT_decl_line   : 192
    <522>   DW_AT_decl_column : 6
    <522>   DW_AT_prototyped  : 1
    <522>   DW_AT_low_pc      : 0x109c
    <52a>   DW_AT_high_pc     : 0x30
    <532>   DW_AT_frame_base  : 1 byte block: 9c 	(DW_OP_call_frame_cfa)
    <534>   DW_AT_call_all_calls: 1
    <534>   DW_AT_sibling     : <0x559>
 <2><538>: Abbrev Number: 15 (DW_TAG_formal_parameter)
    <539>   DW_AT_name        : (indirect string, offset: 0x37): string
    <53d>   DW_AT_decl_file   : 1
    <53d>   DW_AT_decl_line   : 192
    <53e>   DW_AT_decl_column : 25
    <53f>   DW_AT_type        : <0x2f7>
    <543>   DW_AT_location    : 0x40 (location list)
    <547>   DW_AT_GNU_locviews: 0x38
 <2><54b>: Abbrev Number: 8 (DW_TAG_call_site)
    <54c>   DW_AT_call_return_pc: 0x10b8
    <554>   DW_AT_call_origin : <0x559>
 <2><558>: Abbrev Number: 0
 <1><559>: Abbrev Number: 11 (DW_TAG_subprogram)
    <55a>   DW_AT_external    : 1
    <55a>   DW_AT_name        : (indirect string, offset: 0x201): morse_letter
    <55e>   DW_AT_decl_file   : 1
    <55e>   DW_AT_decl_line   : 140
    <55f>   DW_AT_decl_column : 6
    <55f>   DW_AT_prototyped  : 1
    <55f>   DW_AT_low_pc      : 0xfa0
    <567>   DW_AT_high_pc     : 0xfc
    <56f>   DW_AT_frame_base  : 1 byte block: 9c 	(DW_OP_call_frame_cfa)
    <571>   DW_AT_call_all_calls: 1
    <571>   DW_AT_sibling     : <0x69e>
 <2><575>: Abbrev Number: 19 (DW_TAG_formal_parameter)
    <576>   DW_AT_name        : let
    <57a>   DW_AT_decl_file   : 1
    <57a>   DW_AT_decl_line   : 140
    <57b>   DW_AT_decl_column : 30
    <57c>   DW_AT_type        : <0xbc>
    <580>   DW_AT_location    : 0x6b (location list)
    <584>   DW_AT_GNU_locviews: 0x5f
 <2><588>: Abbrev Number: 33 (DW_TAG_variable)
    <589>   DW_AT_name        : (indirect string, offset: 0x1e3): pattern
    <58d>   DW_AT_decl_file   : 1
    <58e>   DW_AT_decl_line   : 151
    <58f>   DW_AT_decl_column : 15
    <590>   DW_AT_type        : <0x2f7>
    <594>   DW_AT_location    : 0xa8 (location list)
    <598>   DW_AT_GNU_locviews: 0x9c
 <2><59c>: Abbrev Number: 3 (DW_TAG_call_site)
    <59d>   DW_AT_call_return_pc: 0xfe8
    <5a5>   DW_AT_call_origin : <0x446>
    <5a9>   DW_AT_sibling     : <0x5c1>
 <3><5ad>: Abbrev Number: 1 (DW_TAG_call_site_parameter)
    <5ae>   DW_AT_location    : 1 byte block: 50 	(DW_OP_reg0 (x0))
    <5b0>   DW_AT_call_value  : 9 byte block: 3 80 22 0 0 0 0 0 0 	(DW_OP_addr: 2280)
 <3><5ba>: Abbrev Number: 1 (DW_TAG_call_site_parameter)
    <5bb>   DW_AT_location    : 1 byte block: 52 	(DW_OP_reg2 (x2))
    <5bd>   DW_AT_call_value  : 2 byte block: 83 0 	(DW_OP_breg19 (x19): 0)
 <3><5c0>: Abbrev Number: 0
 <2><5c1>: Abbrev Number: 3 (DW_TAG_call_site)
    <5c2>   DW_AT_call_return_pc: 0x1018
    <5ca>   DW_AT_call_origin : <0xa31>
    <5ce>   DW_AT_sibling     : <0x5e0>
 <3><5d2>: Abbrev Number: 1 (DW_TAG_call_site_parameter)
    <5d3>   DW_AT_location    : 1 byte block: 50 	(DW_OP_reg0 (x0))
    <5d5>   DW_AT_call_value  : 9 byte block: 3 78 22 0 0 0 0 0 0 	(DW_OP_addr: 2278)
 <3><5df>: Abbrev Number: 0
 <2><5e0>: Abbrev Number: 3 (DW_TAG_call_site)
    <5e1>   DW_AT_call_return_pc: 0x1024
    <5e9>   DW_AT_call_origin : <0x69e>
    <5ed>   DW_AT_sibling     : <0x602>
 <3><5f1>: Abbrev Number: 1 (DW_TAG_call_site_parameter)
    <5f2>   DW_AT_location    : 2 byte block: 90 40 	(DW_OP_regx: 64 (v0))
    <5f5>   DW_AT_call_value  : 11 byte block: a4 2e 8 1f 85 eb 51 b8 1e f5 3f 	(DW_OP_const_type: <0x2e>  8 byte block: 1f 85 eb 51 b8 1e f5 3f )
 <3><601>: Abbrev Number: 0
 <2><602>: Abbrev Number: 3 (DW_TAG_call_site)
    <603>   DW_AT_call_return_pc: 0x1048
    <60b>   DW_AT_call_origin : <0x69e>
    <60f>   DW_AT_sibling     : <0x61c>
 <3><613>: Abbrev Number: 1 (DW_TAG_call_site_parameter)
    <614>   DW_AT_location    : 2 byte block: 90 40 	(DW_OP_regx: 64 (v0))
    <617>   DW_AT_call_value  : 3 byte block: a5 48 2e 	(DW_OP_regval_type: 72 (v8) <0x2e>)
 <3><61b>: Abbrev Number: 0
 <2><61c>: Abbrev Number: 3 (DW_TAG_call_site)
    <61d>   DW_AT_call_return_pc: 0x1050
    <625>   DW_AT_call_origin : <0x6f5>
    <629>   DW_AT_sibling     : <0x633>
 <3><62d>: Abbrev Number: 1 (DW_TAG_call_site_parameter)
    <62e>   DW_AT_location    : 1 byte block: 50 	(DW_OP_reg0 (x0))
    <630>   DW_AT_call_value  : 1 byte block: 30 	(DW_OP_lit0)
 <3><632>: Abbrev Number: 0
 <2><633>: Abbrev Number: 3 (DW_TAG_call_site)
    <634>   DW_AT_call_return_pc: 0x1058
    <63c>   DW_AT_call_origin : <0x69e>
    <640>   DW_AT_sibling     : <0x64d>
 <3><644>: Abbrev Number: 1 (DW_TAG_call_site_parameter)
    <645>   DW_AT_location    : 2 byte block: 90 40 	(DW_OP_regx: 64 (v0))
    <648>   DW_AT_call_value  : 3 byte block: a5 48 2e 	(DW_OP_regval_type: 72 (v8) <0x2e>)
 <3><64c>: Abbrev Number: 0
 <2><64d>: Abbrev Number: 3 (DW_TAG_call_site)
    <64e>   DW_AT_call_return_pc: 0x1068
    <656>   DW_AT_call_origin : <0x6f5>
    <65a>   DW_AT_sibling     : <0x665>
 <3><65e>: Abbrev Number: 1 (DW_TAG_call_site_parameter)
    <65f>   DW_AT_location    : 1 byte block: 50 	(DW_OP_reg0 (x0))
    <661>   DW_AT_call_value  : 2 byte block: 84 0 	(DW_OP_breg20 (x20): 0)
 <3><664>: Abbrev Number: 0
 <2><665>: Abbrev Number: 3 (DW_TAG_call_site)
    <666>   DW_AT_call_return_pc: 0x107c
    <66e>   DW_AT_call_origin : <0x69e>
    <672>   DW_AT_sibling     : <0x67f>
 <3><676>: Abbrev Number: 1 (DW_TAG_call_site_parameter)
    <677>   DW_AT_location    : 2 byte block: 90 40 	(DW_OP_regx: 64 (v0))
    <67a>   DW_AT_call_value  : 3 byte block: a5 49 2e 	(DW_OP_regval_type: 73 (v9) <0x2e>)
 <3><67e>: Abbrev Number: 0
 <2><67f>: Abbrev Number: 16 (DW_TAG_call_site)
    <680>   DW_AT_call_return_pc: 0x1090
    <688>   DW_AT_call_origin : <0x69e>
 <3><68c>: Abbrev Number: 1 (DW_TAG_call_site_parameter)
    <68d>   DW_AT_location    : 2 byte block: 90 40 	(DW_OP_regx: 64 (v0))
    <690>   DW_AT_call_value  : 11 byte block: a4 2e 8 1f 85 eb 51 b8 1e e5 3f 	(DW_OP_const_type: <0x2e>  8 byte block: 1f 85 eb 51 b8 1e e5 3f )
 <3><69c>: Abbrev Number: 0
 <2><69d>: Abbrev Number: 0
 <1><69e>: Abbrev Number: 11 (DW_TAG_subprogram)
    <69f>   DW_AT_external    : 1
    <69f>   DW_AT_name        : (indirect string, offset: 0x2fa): fsleep
    <6a3>   DW_AT_decl_file   : 1
    <6a3>   DW_AT_decl_line   : 70
    <6a4>   DW_AT_decl_column : 6
    <6a4>   DW_AT_prototyped  : 1
    <6a4>   DW_AT_low_pc      : 0xf68
    <6ac>   DW_AT_high_pc     : 0x38
    <6b4>   DW_AT_frame_base  : 1 byte block: 9c 	(DW_OP_call_frame_cfa)
    <6b6>   DW_AT_call_all_calls: 1
    <6b6>   DW_AT_sibling     : <0x6f5>
 <2><6ba>: Abbrev Number: 19 (DW_TAG_formal_parameter)
    <6bb>   DW_AT_name        : dur
    <6bf>   DW_AT_decl_file   : 1
    <6bf>   DW_AT_decl_line   : 70
    <6c0>   DW_AT_decl_column : 20
    <6c1>   DW_AT_type        : <0x2e>
    <6c5>   DW_AT_location    : 0xeb (location list)
    <6c9>   DW_AT_GNU_locviews: 0xe7
 <2><6cd>: Abbrev Number: 23 (DW_TAG_variable)
    <6ce>   DW_AT_name        : tim
    <6d2>   DW_AT_decl_file   : 1
    <6d2>   DW_AT_decl_line   : 72
    <6d3>   DW_AT_decl_column : 18
    <6d4>   DW_AT_type        : <0x2b4>
    <6d8>   DW_AT_location    : 2 byte block: 91 70 	(DW_OP_fbreg: -16)
 <2><6db>: Abbrev Number: 16 (DW_TAG_call_site)
    <6dc>   DW_AT_call_return_pc: 0xf98
    <6e4>   DW_AT_call_origin : <0x3ac>
 <3><6e8>: Abbrev Number: 1 (DW_TAG_call_site_parameter)
    <6e9>   DW_AT_location    : 1 byte block: 50 	(DW_OP_reg0 (x0))
    <6eb>   DW_AT_call_value  : 2 byte block: 91 70 	(DW_OP_fbreg: -16)
 <3><6ee>: Abbrev Number: 1 (DW_TAG_call_site_parameter)
    <6ef>   DW_AT_location    : 1 byte block: 51 	(DW_OP_reg1 (x1))
    <6f1>   DW_AT_call_value  : 1 byte block: 30 	(DW_OP_lit0)
 <3><6f3>: Abbrev Number: 0
 <2><6f4>: Abbrev Number: 0
 <1><6f5>: Abbrev Number: 11 (DW_TAG_subprogram)
    <6f6>   DW_AT_external    : 1
    <6f6>   DW_AT_name        : (indirect string, offset: 0x1c5): io_write
    <6fa>   DW_AT_decl_file   : 1
    <6fa>   DW_AT_decl_line   : 63
    <6fb>   DW_AT_decl_column : 6
    <6fb>   DW_AT_prototyped  : 1
    <6fb>   DW_AT_low_pc      : 0xf28
    <703>   DW_AT_high_pc     : 0x40
    <70b>   DW_AT_frame_base  : 1 byte block: 9c 	(DW_OP_call_frame_cfa)
    <70d>   DW_AT_call_all_calls: 1
    <70d>   DW_AT_sibling     : <0x73f>
 <2><711>: Abbrev Number: 15 (DW_TAG_formal_parameter)
    <712>   DW_AT_name        : (indirect string, offset: 0x31f): status
    <716>   DW_AT_decl_file   : 1
    <716>   DW_AT_decl_line   : 63
    <717>   DW_AT_decl_column : 20
    <718>   DW_AT_type        : <0x73f>
    <71c>   DW_AT_location    : 0x104 (location list)
    <720>   DW_AT_GNU_locviews: 0x100
 <2><724>: Abbrev Number: 8 (DW_TAG_call_site)
    <725>   DW_AT_call_return_pc: 0xf54
    <72d>   DW_AT_call_origin : <0x3fa>
 <2><731>: Abbrev Number: 8 (DW_TAG_call_site)
    <732>   DW_AT_call_return_pc: 0xf60
    <73a>   DW_AT_call_origin : <0x3d2>
 <2><73e>: Abbrev Number: 0
 <1><73f>: Abbrev Number: 4 (DW_TAG_base_type)
    <740>   DW_AT_byte_size   : 1
    <741>   DW_AT_encoding    : 2	(boolean)
    <742>   DW_AT_name        : (indirect string, offset: 0x27b): _Bool
 <1><746>: Abbrev Number: 11 (DW_TAG_subprogram)
    <747>   DW_AT_external    : 1
    <747>   DW_AT_name        : (indirect string, offset: 0xfa): io_init
    <74b>   DW_AT_decl_file   : 1
    <74b>   DW_AT_decl_line   : 18
    <74c>   DW_AT_decl_column : 6
    <74c>   DW_AT_prototyped  : 1
    <74c>   DW_AT_low_pc      : 0xd94
    <754>   DW_AT_high_pc     : 0x194
    <75c>   DW_AT_frame_base  : 1 byte block: 9c 	(DW_OP_call_frame_cfa)
    <75e>   DW_AT_call_all_calls: 1
    <75e>   DW_AT_sibling     : <0xa31>
 <2><762>: Abbrev Number: 19 (DW_TAG_formal_parameter)
    <763>   DW_AT_name        : pin
    <767>   DW_AT_decl_file   : 1
    <767>   DW_AT_decl_line   : 18
    <768>   DW_AT_decl_column : 24
    <769>   DW_AT_type        : <0x51>
    <76d>   DW_AT_location    : 0x120 (location list)
    <771>   DW_AT_GNU_locviews: 0x116
 <2><775>: Abbrev Number: 24 (DW_TAG_variable)
    <776>   DW_AT_name        : (indirect string, offset: 0x3e): path
    <77a>   DW_AT_decl_file   : 1
    <77a>   DW_AT_decl_line   : 20
    <77b>   DW_AT_decl_column : 7
    <77c>   DW_AT_type        : <0x2e7>
    <780>   DW_AT_location    : 2 byte block: 91 40 	(DW_OP_fbreg: -64)
 <2><783>: Abbrev Number: 3 (DW_TAG_call_site)
    <784>   DW_AT_call_return_pc: 0xdc0
    <78c>   DW_AT_call_origin : <0x45e>
    <790>   DW_AT_sibling     : <0x7ae>
 <3><794>: Abbrev Number: 1 (DW_TAG_call_site_parameter)
    <795>   DW_AT_location    : 1 byte block: 50 	(DW_OP_reg0 (x0))
    <797>   DW_AT_call_value  : 2 byte block: 83 0 	(DW_OP_breg19 (x19): 0)
 <3><79a>: Abbrev Number: 1 (DW_TAG_call_site_parameter)
    <79b>   DW_AT_location    : 1 byte block: 51 	(DW_OP_reg1 (x1))
    <79d>   DW_AT_call_value  : 9 byte block: 3 20 21 0 0 0 0 0 0 	(DW_OP_addr: 2120)
 <3><7a7>: Abbrev Number: 1 (DW_TAG_call_site_parameter)
    <7a8>   DW_AT_location    : 1 byte block: 52 	(DW_OP_reg2 (x2))
    <7aa>   DW_AT_call_value  : 2 byte block: 84 0 	(DW_OP_breg20 (x20): 0)
 <3><7ad>: Abbrev Number: 0
 <2><7ae>: Abbrev Number: 3 (DW_TAG_call_site)
    <7af>   DW_AT_call_return_pc: 0xdd0
    <7b7>   DW_AT_call_origin : <0x446>
    <7bb>   DW_AT_sibling     : <0x7d3>
 <3><7bf>: Abbrev Number: 1 (DW_TAG_call_site_parameter)
    <7c0>   DW_AT_location    : 1 byte block: 50 	(DW_OP_reg0 (x0))
    <7c2>   DW_AT_call_value  : 9 byte block: 3 48 21 0 0 0 0 0 0 	(DW_OP_addr: 2148)
 <3><7cc>: Abbrev Number: 1 (DW_TAG_call_site_parameter)
    <7cd>   DW_AT_location    : 1 byte block: 51 	(DW_OP_reg1 (x1))
    <7cf>   DW_AT_call_value  : 2 byte block: 83 0 	(DW_OP_breg19 (x19): 0)
 <3><7d2>: Abbrev Number: 0
 <2><7d3>: Abbrev Number: 3 (DW_TAG_call_site)
    <7d4>   DW_AT_call_return_pc: 0xde0
    <7dc>   DW_AT_call_origin : <0x42a>
    <7e0>   DW_AT_sibling     : <0x7f8>
 <3><7e4>: Abbrev Number: 1 (DW_TAG_call_site_parameter)
    <7e5>   DW_AT_location    : 1 byte block: 50 	(DW_OP_reg0 (x0))
    <7e7>   DW_AT_call_value  : 2 byte block: 83 0 	(DW_OP_breg19 (x19): 0)
 <3><7ea>: Abbrev Number: 1 (DW_TAG_call_site_parameter)
    <7eb>   DW_AT_location    : 1 byte block: 51 	(DW_OP_reg1 (x1))
    <7ed>   DW_AT_call_value  : 9 byte block: 3 68 21 0 0 0 0 0 0 	(DW_OP_addr: 2168)
 <3><7f7>: Abbrev Number: 0
 <2><7f8>: Abbrev Number: 3 (DW_TAG_call_site)
    <7f9>   DW_AT_call_return_pc: 0xe08
    <801>   DW_AT_call_origin : <0xa3a>
    <805>   DW_AT_sibling     : <0x821>
 <3><809>: Abbrev Number: 1 (DW_TAG_call_site_parameter)
    <80a>   DW_AT_location    : 1 byte block: 50 	(DW_OP_reg0 (x0))
    <80c>   DW_AT_call_value  : 9 byte block: 3 0 22 0 0 0 0 0 0 	(DW_OP_addr: 2200)
 <3><816>: Abbrev Number: 1 (DW_TAG_call_site_parameter)
    <817>   DW_AT_location    : 1 byte block: 51 	(DW_OP_reg1 (x1))
    <819>   DW_AT_call_value  : 1 byte block: 31 	(DW_OP_lit1)
 <3><81b>: Abbrev Number: 1 (DW_TAG_call_site_parameter)
    <81c>   DW_AT_location    : 1 byte block: 52 	(DW_OP_reg2 (x2))
    <81e>   DW_AT_call_value  : 1 byte block: 33 	(DW_OP_lit3)
 <3><820>: Abbrev Number: 0
 <2><821>: Abbrev Number: 8 (DW_TAG_call_site)
    <822>   DW_AT_call_return_pc: 0xe10
    <82a>   DW_AT_call_origin : <0x3e6>
 <2><82e>: Abbrev Number: 3 (DW_TAG_call_site)
    <82f>   DW_AT_call_return_pc: 0xe28
    <837>   DW_AT_call_origin : <0x45e>
    <83b>   DW_AT_sibling     : <0x859>
 <3><83f>: Abbrev Number: 1 (DW_TAG_call_site_parameter)
    <840>   DW_AT_location    : 1 byte block: 50 	(DW_OP_reg0 (x0))
    <842>   DW_AT_call_value  : 2 byte block: 83 0 	(DW_OP_breg19 (x19): 0)
 <3><845>: Abbrev Number: 1 (DW_TAG_call_site_parameter)
    <846>   DW_AT_location    : 1 byte block: 51 	(DW_OP_reg1 (x1))
    <848>   DW_AT_call_value  : 9 byte block: 3 8 22 0 0 0 0 0 0 	(DW_OP_addr: 2208)
 <3><852>: Abbrev Number: 1 (DW_TAG_call_site_parameter)
    <853>   DW_AT_location    : 1 byte block: 52 	(DW_OP_reg2 (x2))
    <855>   DW_AT_call_value  : 2 byte block: 84 0 	(DW_OP_breg20 (x20): 0)
 <3><858>: Abbrev Number: 0
 <2><859>: Abbrev Number: 3 (DW_TAG_call_site)
    <85a>   DW_AT_call_return_pc: 0xe38
    <862>   DW_AT_call_origin : <0x446>
    <866>   DW_AT_sibling     : <0x87e>
 <3><86a>: Abbrev Number: 1 (DW_TAG_call_site_parameter)
    <86b>   DW_AT_location    : 1 byte block: 50 	(DW_OP_reg0 (x0))
    <86d>   DW_AT_call_value  : 9 byte block: 3 28 22 0 0 0 0 0 0 	(DW_OP_addr: 2228)
 <3><877>: Abbrev Number: 1 (DW_TAG_call_site_parameter)
    <878>   DW_AT_location    : 1 byte block: 51 	(DW_OP_reg1 (x1))
    <87a>   DW_AT_call_value  : 2 byte block: 83 0 	(DW_OP_breg19 (x19): 0)
 <3><87d>: Abbrev Number: 0
 <2><87e>: Abbrev Number: 3 (DW_TAG_call_site)
    <87f>   DW_AT_call_return_pc: 0xe48
    <887>   DW_AT_call_origin : <0x42a>
    <88b>   DW_AT_sibling     : <0x8a3>
 <3><88f>: Abbrev Number: 1 (DW_TAG_call_site_parameter)
    <890>   DW_AT_location    : 1 byte block: 50 	(DW_OP_reg0 (x0))
    <892>   DW_AT_call_value  : 2 byte block: 83 0 	(DW_OP_breg19 (x19): 0)
 <3><895>: Abbrev Number: 1 (DW_TAG_call_site_parameter)
    <896>   DW_AT_location    : 1 byte block: 51 	(DW_OP_reg1 (x1))
    <898>   DW_AT_call_value  : 9 byte block: 3 68 21 0 0 0 0 0 0 	(DW_OP_addr: 2168)
 <3><8a2>: Abbrev Number: 0
 <2><8a3>: Abbrev Number: 3 (DW_TAG_call_site)
    <8a4>   DW_AT_call_return_pc: 0xe5c
    <8ac>   DW_AT_call_origin : <0xa43>
    <8b0>   DW_AT_sibling     : <0x8bb>
 <3><8b4>: Abbrev Number: 1 (DW_TAG_call_site_parameter)
    <8b5>   DW_AT_location    : 1 byte block: 50 	(DW_OP_reg0 (x0))
    <8b7>   DW_AT_call_value  : 2 byte block: 8 30 	(DW_OP_const1u: 48)
 <3><8ba>: Abbrev Number: 0
 <2><8bb>: Abbrev Number: 8 (DW_TAG_call_site)
    <8bc>   DW_AT_call_return_pc: 0xe68
    <8c4>   DW_AT_call_origin : <0x3d2>
 <2><8c8>: Abbrev Number: 3 (DW_TAG_call_site)
    <8c9>   DW_AT_call_return_pc: 0xe84
    <8d1>   DW_AT_call_origin : <0xa31>
    <8d5>   DW_AT_sibling     : <0x8e7>
 <3><8d9>: Abbrev Number: 1 (DW_TAG_call_site_parameter)
    <8da>   DW_AT_location    : 1 byte block: 50 	(DW_OP_reg0 (x0))
    <8dc>   DW_AT_call_value  : 9 byte block: 3 70 21 0 0 0 0 0 0 	(DW_OP_addr: 2170)
 <3><8e6>: Abbrev Number: 0
 <2><8e7>: Abbrev Number: 3 (DW_TAG_call_site)
    <8e8>   DW_AT_call_return_pc: 0xe98
    <8f0>   DW_AT_call_origin : <0x42a>
    <8f4>   DW_AT_sibling     : <0x913>
 <3><8f8>: Abbrev Number: 1 (DW_TAG_call_site_parameter)
    <8f9>   DW_AT_location    : 1 byte block: 50 	(DW_OP_reg0 (x0))
    <8fb>   DW_AT_call_value  : 9 byte block: 3 98 21 0 0 0 0 0 0 	(DW_OP_addr: 2198)
 <3><905>: Abbrev Number: 1 (DW_TAG_call_site_parameter)
    <906>   DW_AT_location    : 1 byte block: 51 	(DW_OP_reg1 (x1))
    <908>   DW_AT_call_value  : 9 byte block: 3 68 21 0 0 0 0 0 0 	(DW_OP_addr: 2168)
 <3><912>: Abbrev Number: 0
 <2><913>: Abbrev Number: 3 (DW_TAG_call_site)
    <914>   DW_AT_call_return_pc: 0xeb4
    <91c>   DW_AT_call_origin : <0x3fa>
    <920>   DW_AT_sibling     : <0x938>
 <3><924>: Abbrev Number: 1 (DW_TAG_call_site_parameter)
    <925>   DW_AT_location    : 1 byte block: 51 	(DW_OP_reg1 (x1))
    <927>   DW_AT_call_value  : 9 byte block: 3 d0 21 0 0 0 0 0 0 	(DW_OP_addr: 21d0)
 <3><931>: Abbrev Number: 1 (DW_TAG_call_site_parameter)
    <932>   DW_AT_location    : 1 byte block: 52 	(DW_OP_reg2 (x2))
    <934>   DW_AT_call_value  : 2 byte block: 84 0 	(DW_OP_breg20 (x20): 0)
 <3><937>: Abbrev Number: 0
 <2><938>: Abbrev Number: 8 (DW_TAG_call_site)
    <939>   DW_AT_call_return_pc: 0xec0
    <941>   DW_AT_call_origin : <0x3e6>
 <2><945>: Abbrev Number: 3 (DW_TAG_call_site)
    <946>   DW_AT_call_return_pc: 0xed4
    <94e>   DW_AT_call_origin : <0x446>
    <952>   DW_AT_sibling     : <0x96a>
 <3><956>: Abbrev Number: 1 (DW_TAG_call_site_parameter)
    <957>   DW_AT_location    : 1 byte block: 50 	(DW_OP_reg0 (x0))
    <959>   DW_AT_call_value  : 9 byte block: 3 48 21 0 0 0 0 0 0 	(DW_OP_addr: 2148)
 <3><963>: Abbrev Number: 1 (DW_TAG_call_site_parameter)
    <964>   DW_AT_location    : 1 byte block: 51 	(DW_OP_reg1 (x1))
    <966>   DW_AT_call_value  : 2 byte block: 85 0 	(DW_OP_breg21 (x21): 0)
 <3><969>: Abbrev Number: 0
 <2><96a>: Abbrev Number: 3 (DW_TAG_call_site)
    <96b>   DW_AT_call_return_pc: 0xee4
    <973>   DW_AT_call_origin : <0x42a>
    <977>   DW_AT_sibling     : <0x98f>
 <3><97b>: Abbrev Number: 1 (DW_TAG_call_site_parameter)
    <97c>   DW_AT_location    : 1 byte block: 50 	(DW_OP_reg0 (x0))
    <97e>   DW_AT_call_value  : 2 byte block: 85 0 	(DW_OP_breg21 (x21): 0)
 <3><981>: Abbrev Number: 1 (DW_TAG_call_site_parameter)
    <982>   DW_AT_location    : 1 byte block: 51 	(DW_OP_reg1 (x1))
    <984>   DW_AT_call_value  : 9 byte block: 3 68 21 0 0 0 0 0 0 	(DW_OP_addr: 2168)
 <3><98e>: Abbrev Number: 0
 <2><98f>: Abbrev Number: 3 (DW_TAG_call_site)
    <990>   DW_AT_call_return_pc: 0xef8
    <998>   DW_AT_call_origin : <0xa31>
    <99c>   DW_AT_sibling     : <0x9ae>
 <3><9a0>: Abbrev Number: 1 (DW_TAG_call_site_parameter)
    <9a1>   DW_AT_location    : 1 byte block: 50 	(DW_OP_reg0 (x0))
    <9a3>   DW_AT_call_value  : 9 byte block: 3 d8 21 0 0 0 0 0 0 	(DW_OP_addr: 21d8)
 <3><9ad>: Abbrev Number: 0
 <2><9ae>: Abbrev Number: 3 (DW_TAG_call_site)
    <9af>   DW_AT_call_return_pc: 0xf00
    <9b7>   DW_AT_call_origin : <0x417>
    <9bb>   DW_AT_sibling     : <0x9c6>
 <3><9bf>: Abbrev Number: 1 (DW_TAG_call_site_parameter)
    <9c0>   DW_AT_location    : 1 byte block: 50 	(DW_OP_reg0 (x0))
    <9c2>   DW_AT_call_value  : 2 byte block: 9 ff 	(DW_OP_const1s: -1)
 <3><9c5>: Abbrev Number: 0
 <2><9c6>: Abbrev Number: 3 (DW_TAG_call_site)
    <9c7>   DW_AT_call_return_pc: 0xf0c
    <9cf>   DW_AT_call_origin : <0xa31>
    <9d3>   DW_AT_sibling     : <0x9e5>
 <3><9d7>: Abbrev Number: 1 (DW_TAG_call_site_parameter)
    <9d8>   DW_AT_location    : 1 byte block: 50 	(DW_OP_reg0 (x0))
    <9da>   DW_AT_call_value  : 9 byte block: 3 b0 21 0 0 0 0 0 0 	(DW_OP_addr: 21b0)
 <3><9e4>: Abbrev Number: 0
 <2><9e5>: Abbrev Number: 3 (DW_TAG_call_site)
    <9e6>   DW_AT_call_return_pc: 0xf14
    <9ee>   DW_AT_call_origin : <0x417>
    <9f2>   DW_AT_sibling     : <0x9fd>
 <3><9f6>: Abbrev Number: 1 (DW_TAG_call_site_parameter)
    <9f7>   DW_AT_location    : 1 byte block: 50 	(DW_OP_reg0 (x0))
    <9f9>   DW_AT_call_value  : 2 byte block: 9 ff 	(DW_OP_const1s: -1)
 <3><9fc>: Abbrev Number: 0
 <2><9fd>: Abbrev Number: 3 (DW_TAG_call_site)
    <9fe>   DW_AT_call_return_pc: 0xf20
    <a06>   DW_AT_call_origin : <0xa31>
    <a0a>   DW_AT_sibling     : <0xa1c>
 <3><a0e>: Abbrev Number: 1 (DW_TAG_call_site_parameter)
    <a0f>   DW_AT_location    : 1 byte block: 50 	(DW_OP_reg0 (x0))
    <a11>   DW_AT_call_value  : 9 byte block: 3 40 22 0 0 0 0 0 0 	(DW_OP_addr: 2240)
 <3><a1b>: Abbrev Number: 0
 <2><a1c>: Abbrev Number: 16 (DW_TAG_call_site)
    <a1d>   DW_AT_call_return_pc: 0xf28
    <a25>   DW_AT_call_origin : <0x417>
 <3><a29>: Abbrev Number: 1 (DW_TAG_call_site_parameter)
    <a2a>   DW_AT_location    : 1 byte block: 50 	(DW_OP_reg0 (x0))
    <a2c>   DW_AT_call_value  : 2 byte block: 9 ff 	(DW_OP_const1s: -1)
 <3><a2f>: Abbrev Number: 0
 <2><a30>: Abbrev Number: 0
 <1><a31>: Abbrev Number: 20 (DW_TAG_subprogram)
    <a32>   DW_AT_external    : 1
    <a32>   DW_AT_declaration : 1
    <a32>   DW_AT_linkage_name: (indirect string, offset: 0x177): puts
    <a36>   DW_AT_name        : (indirect string, offset: 0x16d): __builtin_puts
    <a3a>   DW_AT_decl_file   : 10
    <a3a>   DW_AT_decl_line   : 0
 <1><a3a>: Abbrev Number: 20 (DW_TAG_subprogram)
    <a3b>   DW_AT_external    : 1
    <a3b>   DW_AT_declaration : 1
    <a3b>   DW_AT_linkage_name: (indirect string, offset: 0x89): fwrite
    <a3f>   DW_AT_name        : (indirect string, offset: 0x7f): __builtin_fwrite
    <a43>   DW_AT_decl_file   : 10
    <a43>   DW_AT_decl_line   : 0
 <1><a43>: Abbrev Number: 20 (DW_TAG_subprogram)
    <a44>   DW_AT_external    : 1
    <a44>   DW_AT_declaration : 1
    <a44>   DW_AT_linkage_name: (indirect string, offset: 0xa9): fputc
    <a48>   DW_AT_name        : (indirect string, offset: 0x9f): __builtin_fputc
    <a4c>   DW_AT_decl_file   : 10
    <a4c>   DW_AT_decl_line   : 0
 <1><a4c>: Abbrev Number: 0

Contents of the .debug_abbrev section (loaded from a.out):

  Number TAG (0)
   1      DW_TAG_call_site_parameter    [no children]
    DW_AT_location     DW_FORM_exprloc
    DW_AT_call_value   DW_FORM_exprloc
    DW_AT value: 0     DW_FORM value: 0
   2      DW_TAG_member    [no children]
    DW_AT_name         DW_FORM_strp
    DW_AT_decl_file    DW_FORM_data1
    DW_AT_decl_line    DW_FORM_data1
    DW_AT_decl_column  DW_FORM_data1
    DW_AT_type         DW_FORM_ref4
    DW_AT_data_member_location DW_FORM_data1
    DW_AT value: 0     DW_FORM value: 0
   3      DW_TAG_call_site    [has children]
    DW_AT_call_return_pc DW_FORM_addr
    DW_AT_call_origin  DW_FORM_ref4
    DW_AT_sibling      DW_FORM_ref4
    DW_AT value: 0     DW_FORM value: 0
   4      DW_TAG_base_type    [no children]
    DW_AT_byte_size    DW_FORM_data1
    DW_AT_encoding     DW_FORM_data1
    DW_AT_name         DW_FORM_strp
    DW_AT value: 0     DW_FORM value: 0
   5      DW_TAG_formal_parameter    [no children]
    DW_AT_type         DW_FORM_ref4
    DW_AT value: 0     DW_FORM value: 0
   6      DW_TAG_pointer_type    [no children]
    DW_AT_byte_size    DW_FORM_implicit_const: 8
    DW_AT_type         DW_FORM_ref4
    DW_AT value: 0     DW_FORM value: 0
   7      DW_TAG_typedef    [no children]
    DW_AT_name         DW_FORM_strp
    DW_AT_decl_file    DW_FORM_data1
    DW_AT_decl_line    DW_FORM_data1
    DW_AT_decl_column  DW_FORM_data1
    DW_AT_type         DW_FORM_ref4
    DW_AT value: 0     DW_FORM value: 0
   8      DW_TAG_call_site    [no children]
    DW_AT_call_return_pc DW_FORM_addr
    DW_AT_call_origin  DW_FORM_ref4
    DW_AT value: 0     DW_FORM value: 0
   9      DW_TAG_variable    [no children]
    DW_AT_name         DW_FORM_strp
    DW_AT_decl_file    DW_FORM_implicit_const: 1
    DW_AT_decl_line    DW_FORM_data1
    DW_AT_decl_column  DW_FORM_implicit_const: 21
    DW_AT_type         DW_FORM_ref4
    DW_AT_const_value  DW_FORM_block1
    DW_AT value: 0     DW_FORM value: 0
   10      DW_TAG_subprogram    [has children]
    DW_AT_external     DW_FORM_flag_present
    DW_AT_name         DW_FORM_strp
    DW_AT_decl_file    DW_FORM_data1
    DW_AT_decl_line    DW_FORM_data2
    DW_AT_decl_column  DW_FORM_data1
    DW_AT_prototyped   DW_FORM_flag_present
    DW_AT_type         DW_FORM_ref4
    DW_AT_declaration  DW_FORM_flag_present
    DW_AT_sibling      DW_FORM_ref4
    DW_AT value: 0     DW_FORM value: 0
   11      DW_TAG_subprogram    [has children]
    DW_AT_external     DW_FORM_flag_present
    DW_AT_name         DW_FORM_strp
    DW_AT_decl_file    DW_FORM_implicit_const: 1
    DW_AT_decl_line    DW_FORM_data1
    DW_AT_decl_column  DW_FORM_implicit_const: 6
    DW_AT_prototyped   DW_FORM_flag_present
    DW_AT_low_pc       DW_FORM_addr
    DW_AT_high_pc      DW_FORM_data8
    DW_AT_frame_base   DW_FORM_exprloc
    DW_AT_call_all_calls DW_FORM_flag_present
    DW_AT_sibling      DW_FORM_ref4
    DW_AT value: 0     DW_FORM value: 0
   12      DW_TAG_const_type    [no children]
    DW_AT_type         DW_FORM_ref4
    DW_AT value: 0     DW_FORM value: 0
   13      DW_TAG_array_type    [has children]
    DW_AT_type         DW_FORM_ref4
    DW_AT_sibling      DW_FORM_ref4
    DW_AT value: 0     DW_FORM value: 0
   14      DW_TAG_subrange_type    [no children]
    DW_AT_type         DW_FORM_ref4
    DW_AT_upper_bound  DW_FORM_data1
    DW_AT value: 0     DW_FORM value: 0
   15      DW_TAG_formal_parameter    [no children]
    DW_AT_name         DW_FORM_strp
    DW_AT_decl_file    DW_FORM_implicit_const: 1
    DW_AT_decl_line    DW_FORM_data1
    DW_AT_decl_column  DW_FORM_data1
    DW_AT_type         DW_FORM_ref4
    DW_AT_location     DW_FORM_sec_offset
    DW_AT_GNU_locviews DW_FORM_sec_offset
    DW_AT value: 0     DW_FORM value: 0
   16      DW_TAG_call_site    [has children]
    DW_AT_call_return_pc DW_FORM_addr
    DW_AT_call_origin  DW_FORM_ref4
    DW_AT value: 0     DW_FORM value: 0
   17      DW_TAG_structure_type    [no children]
    DW_AT_name         DW_FORM_strp
    DW_AT_declaration  DW_FORM_flag_present
    DW_AT value: 0     DW_FORM value: 0
   18      DW_TAG_unspecified_parameters    [no children]
    DW_AT value: 0     DW_FORM value: 0
   19      DW_TAG_formal_parameter    [no children]
    DW_AT_name         DW_FORM_string
    DW_AT_decl_file    DW_FORM_implicit_const: 1
    DW_AT_decl_line    DW_FORM_data1
    DW_AT_decl_column  DW_FORM_data1
    DW_AT_type         DW_FORM_ref4
    DW_AT_location     DW_FORM_sec_offset
    DW_AT_GNU_locviews DW_FORM_sec_offset
    DW_AT value: 0     DW_FORM value: 0
   20      DW_TAG_subprogram    [no children]
    DW_AT_external     DW_FORM_flag_present
    DW_AT_declaration  DW_FORM_flag_present
    DW_AT_linkage_name DW_FORM_strp
    DW_AT_name         DW_FORM_strp
    DW_AT_decl_file    DW_FORM_implicit_const: 10
    DW_AT_decl_line    DW_FORM_implicit_const: 0
    DW_AT value: 0     DW_FORM value: 0
   21      DW_TAG_structure_type    [has children]
    DW_AT_name         DW_FORM_strp
    DW_AT_byte_size    DW_FORM_data1
    DW_AT_decl_file    DW_FORM_data1
    DW_AT_decl_line    DW_FORM_data1
    DW_AT_decl_column  DW_FORM_implicit_const: 8
    DW_AT_sibling      DW_FORM_ref4
    DW_AT value: 0     DW_FORM value: 0
   22      DW_TAG_restrict_type    [no children]
    DW_AT_type         DW_FORM_ref4
    DW_AT value: 0     DW_FORM value: 0
   23      DW_TAG_variable    [no children]
    DW_AT_name         DW_FORM_string
    DW_AT_decl_file    DW_FORM_implicit_const: 1
    DW_AT_decl_line    DW_FORM_data1
    DW_AT_decl_column  DW_FORM_data1
    DW_AT_type         DW_FORM_ref4
    DW_AT_location     DW_FORM_exprloc
    DW_AT value: 0     DW_FORM value: 0
   24      DW_TAG_variable    [no children]
    DW_AT_name         DW_FORM_strp
    DW_AT_decl_file    DW_FORM_implicit_const: 1
    DW_AT_decl_line    DW_FORM_data1
    DW_AT_decl_column  DW_FORM_data1
    DW_AT_type         DW_FORM_ref4
    DW_AT_location     DW_FORM_exprloc
    DW_AT value: 0     DW_FORM value: 0
   25      DW_TAG_subprogram    [has children]
    DW_AT_external     DW_FORM_flag_present
    DW_AT_name         DW_FORM_strp
    DW_AT_decl_file    DW_FORM_implicit_const: 8
    DW_AT_decl_line    DW_FORM_data1
    DW_AT_decl_column  DW_FORM_implicit_const: 12
    DW_AT_prototyped   DW_FORM_flag_present
    DW_AT_type         DW_FORM_ref4
    DW_AT_declaration  DW_FORM_flag_present
    DW_AT_sibling      DW_FORM_ref4
    DW_AT value: 0     DW_FORM value: 0
   26      DW_TAG_compile_unit    [has children]
    DW_AT_producer     DW_FORM_strp
    DW_AT_language     DW_FORM_data1
    DW_AT_name         DW_FORM_line_strp
    DW_AT_comp_dir     DW_FORM_line_strp
    DW_AT_low_pc       DW_FORM_addr
    DW_AT_high_pc      DW_FORM_data8
    DW_AT_stmt_list    DW_FORM_sec_offset
    DW_AT value: 0     DW_FORM value: 0
   27      DW_TAG_pointer_type    [no children]
    DW_AT_byte_size    DW_FORM_data1
    DW_AT value: 0     DW_FORM value: 0
   28      DW_TAG_base_type    [no children]
    DW_AT_byte_size    DW_FORM_data1
    DW_AT_encoding     DW_FORM_data1
    DW_AT_name         DW_FORM_string
    DW_AT value: 0     DW_FORM value: 0
   29      DW_TAG_typedef    [no children]
    DW_AT_name         DW_FORM_strp
    DW_AT_decl_file    DW_FORM_data1
    DW_AT_decl_line    DW_FORM_data1
    DW_AT_decl_column  DW_FORM_data1
    DW_AT value: 0     DW_FORM value: 0
   30      DW_TAG_variable    [no children]
    DW_AT_name         DW_FORM_strp
    DW_AT_decl_file    DW_FORM_data1
    DW_AT_decl_line    DW_FORM_data1
    DW_AT_decl_column  DW_FORM_data1
    DW_AT_type         DW_FORM_ref4
    DW_AT_const_value  DW_FORM_data2
    DW_AT value: 0     DW_FORM value: 0
   31      DW_TAG_subprogram    [has children]
    DW_AT_external     DW_FORM_flag_present
    DW_AT_name         DW_FORM_strp
    DW_AT_decl_file    DW_FORM_data1
    DW_AT_decl_line    DW_FORM_data2
    DW_AT_decl_column  DW_FORM_data1
    DW_AT_prototyped   DW_FORM_flag_present
    DW_AT_noreturn     DW_FORM_flag_present
    DW_AT_declaration  DW_FORM_flag_present
    DW_AT_sibling      DW_FORM_ref4
    DW_AT value: 0     DW_FORM value: 0
   32      DW_TAG_subprogram    [has children]
    DW_AT_external     DW_FORM_flag_present
    DW_AT_name         DW_FORM_strp
    DW_AT_decl_file    DW_FORM_data1
    DW_AT_decl_line    DW_FORM_data1
    DW_AT_decl_column  DW_FORM_data1
    DW_AT_prototyped   DW_FORM_flag_present
    DW_AT_type         DW_FORM_ref4
    DW_AT_low_pc       DW_FORM_addr
    DW_AT_high_pc      DW_FORM_data8
    DW_AT_frame_base   DW_FORM_exprloc
    DW_AT_call_all_calls DW_FORM_flag_present
    DW_AT_sibling      DW_FORM_ref4
    DW_AT value: 0     DW_FORM value: 0
   33      DW_TAG_variable    [no children]
    DW_AT_name         DW_FORM_strp
    DW_AT_decl_file    DW_FORM_data1
    DW_AT_decl_line    DW_FORM_data1
    DW_AT_decl_column  DW_FORM_data1
    DW_AT_type         DW_FORM_ref4
    DW_AT_location     DW_FORM_sec_offset
    DW_AT_GNU_locviews DW_FORM_sec_offset
    DW_AT value: 0     DW_FORM value: 0

Raw dump of debug contents of section .debug_line (loaded from a.out):

  Offset:                      0
  Length:                      500
  DWARF Version:               5
  Address size (bytes):        8
  Segment selector (bytes):    0
  Prologue Length:             107
  Minimum Instruction Length:  4
  Maximum Ops per Instruction: 1
  Initial value of 'is_stmt':  1
  Line Base:                   -5
  Line Range:                  14
  Opcode Base:                 13

 Opcodes:
  Opcode 1 has 0 args
  Opcode 2 has 1 arg
  Opcode 3 has 1 arg
  Opcode 4 has 1 arg
  Opcode 5 has 1 arg
  Opcode 6 has 0 args
  Opcode 7 has 0 args
  Opcode 8 has 0 args
  Opcode 9 has 1 arg
  Opcode 10 has 0 args
  Opcode 11 has 0 args
  Opcode 12 has 1 arg

 The Directory Table (offset 0x22, lines 6, columns 1):
  Entry	Name
  0	(indirect line string, offset: 0): /root/hello-world/aarch64-linux-gnu
  1	(indirect line string, offset: 0x2f): ..
  2	(indirect line string, offset: 0x32): /usr/lib/gcc-cross/aarch64-linux-gnu/12/include
  3	(indirect line string, offset: 0x62): /usr/aarch64-linux-gnu/include/bits
  4	(indirect line string, offset: 0x86): /usr/aarch64-linux-gnu/include/bits/types
  5	(indirect line string, offset: 0xb0): /usr/aarch64-linux-gnu/include

 The File Name Table (offset 0x40, lines 11, columns 2):
  Entry	Dir	Name
  0	1	(indirect line string, offset: 0x27): morse.c
  1	1	(indirect line string, offset: 0x27): morse.c
  2	2	(indirect line string, offset: 0xcf): stddef.h
  3	3	(indirect line string, offset: 0xd8): types.h
  4	4	(indirect line string, offset: 0xe0): struct_FILE.h
  5	4	(indirect line string, offset: 0xe7): FILE.h
  6	4	(indirect line string, offset: 0xee): struct_timespec.h
  7	5	(indirect line string, offset: 0x100): time.h
  8	5	(indirect line string, offset: 0x107): stdio.h
  9	5	(indirect line string, offset: 0x10f): stdlib.h
  10	0	(indirect line string, offset: 0x118): <built-in>

 Line Number Statements:
  [0x00000077]  Set column to 1
  [0x00000079]  Extended opcode 2: set Address to 0xd94
  [0x00000084]  Advance Line by 18 to 19
  [0x00000086]  Copy
  [0x00000087]  Set is_stmt to 0
  [0x00000088]  Copy (view 1)
  [0x00000089]  Set column to 2
  [0x0000008b]  Set is_stmt to 1
  [0x0000008c]  Special opcode 76: advance Address by 20 to 0xda8 and Line by 1 to 20
  [0x0000008d]  Special opcode 7: advance Address by 0 to 0xda8 and Line by 2 to 22 (view 1)
  [0x0000008e]  Set is_stmt to 0
  [0x0000008f]  Special opcode 75: advance Address by 20 to 0xdbc and Line by 0 to 22
  [0x00000090]  Set is_stmt to 1
  [0x00000091]  Special opcode 20: advance Address by 4 to 0xdc0 and Line by 1 to 23
  [0x00000092]  Special opcode 62: advance Address by 16 to 0xdd0 and Line by 1 to 24
  [0x00000093]  Set column to 7
  [0x00000095]  Set is_stmt to 0
  [0x00000096]  Copy (view 1)
  [0x00000097]  Set column to 5
  [0x00000099]  Special opcode 61: advance Address by 16 to 0xde0 and Line by 0 to 24
  [0x0000009a]  Set column to 2
  [0x0000009c]  Set is_stmt to 1
  [0x0000009d]  Special opcode 34: advance Address by 8 to 0xde8 and Line by 1 to 25
  [0x0000009e]  Set column to 4
  [0x000000a0]  Set is_stmt to 0
  [0x000000a1]  Copy (view 1)
  [0x000000a2]  Set column to 2
  [0x000000a4]  Set is_stmt to 1
  [0x000000a5]  Advance Line by 22 to 47
  [0x000000a7]  Special opcode 19: advance Address by 4 to 0xdec and Line by 0 to 47
  [0x000000a8]  Special opcode 104: advance Address by 28 to 0xe08 and Line by 1 to 48
  [0x000000a9]  Special opcode 35: advance Address by 8 to 0xe10 and Line by 2 to 50
  [0x000000aa]  Special opcode 90: advance Address by 24 to 0xe28 and Line by 1 to 51
  [0x000000ab]  Special opcode 62: advance Address by 16 to 0xe38 and Line by 1 to 52
  [0x000000ac]  Set column to 7
  [0x000000ae]  Set is_stmt to 0
  [0x000000af]  Copy (view 1)
  [0x000000b0]  Set column to 5
  [0x000000b2]  Special opcode 75: advance Address by 20 to 0xe4c and Line by 0 to 52
  [0x000000b3]  Set column to 2
  [0x000000b5]  Set is_stmt to 1
  [0x000000b6]  Special opcode 20: advance Address by 4 to 0xe50 and Line by 1 to 53
  [0x000000b7]  Set column to 4
  [0x000000b9]  Set is_stmt to 0
  [0x000000ba]  Copy (view 1)
  [0x000000bb]  Set column to 2
  [0x000000bd]  Set is_stmt to 1
  [0x000000be]  Special opcode 25: advance Address by 4 to 0xe54 and Line by 6 to 59
  [0x000000bf]  Special opcode 34: advance Address by 8 to 0xe5c and Line by 1 to 60
  [0x000000c0]  Set column to 1
  [0x000000c2]  Set is_stmt to 0
  [0x000000c3]  Special opcode 48: advance Address by 12 to 0xe68 and Line by 1 to 61
  [0x000000c4]  Special opcode 19: advance Address by 4 to 0xe6c and Line by 0 to 61
  [0x000000c5]  Set column to 3
  [0x000000c7]  Set is_stmt to 1
  [0x000000c8]  Advance Line by -33 to 28
  [0x000000ca]  Special opcode 47: advance Address by 12 to 0xe78 and Line by 0 to 28
  [0x000000cb]  Special opcode 48: advance Address by 12 to 0xe84 and Line by 1 to 29
  [0x000000cc]  Set column to 8
  [0x000000ce]  Set is_stmt to 0
  [0x000000cf]  Copy (view 1)
  [0x000000d0]  Set column to 6
  [0x000000d2]  Special opcode 75: advance Address by 20 to 0xe98 and Line by 0 to 29
  [0x000000d3]  Set column to 3
  [0x000000d5]  Set is_stmt to 1
  [0x000000d6]  Special opcode 34: advance Address by 8 to 0xea0 and Line by 1 to 30
  [0x000000d7]  Set column to 5
  [0x000000d9]  Set is_stmt to 0
  [0x000000da]  Copy (view 1)
  [0x000000db]  Set column to 3
  [0x000000dd]  Set is_stmt to 1
  [0x000000de]  Special opcode 24: advance Address by 4 to 0xea4 and Line by 5 to 35
  [0x000000df]  Special opcode 62: advance Address by 16 to 0xeb4 and Line by 1 to 36
  [0x000000e0]  Special opcode 49: advance Address by 12 to 0xec0 and Line by 2 to 38
  [0x000000e1]  Special opcode 76: advance Address by 20 to 0xed4 and Line by 1 to 39
  [0x000000e2]  Set column to 8
  [0x000000e4]  Set is_stmt to 0
  [0x000000e5]  Copy (view 1)
  [0x000000e6]  Set column to 6
  [0x000000e8]  Special opcode 61: advance Address by 16 to 0xee4 and Line by 0 to 39
  [0x000000e9]  Set column to 3
  [0x000000eb]  Set is_stmt to 1
  [0x000000ec]  Special opcode 20: advance Address by 4 to 0xee8 and Line by 1 to 40
  [0x000000ed]  Set column to 5
  [0x000000ef]  Set is_stmt to 0
  [0x000000f0]  Copy (view 1)
  [0x000000f1]  Set column to 4
  [0x000000f3]  Set is_stmt to 1
  [0x000000f4]  Special opcode 21: advance Address by 4 to 0xeec and Line by 2 to 42
  [0x000000f5]  Special opcode 48: advance Address by 12 to 0xef8 and Line by 1 to 43
  [0x000000f6]  Advance Line by -11 to 32
  [0x000000f8]  Special opcode 33: advance Address by 8 to 0xf00 and Line by 0 to 32
  [0x000000f9]  Special opcode 48: advance Address by 12 to 0xf0c and Line by 1 to 33
  [0x000000fa]  Set column to 3
  [0x000000fc]  Advance Line by 22 to 55
  [0x000000fe]  Special opcode 33: advance Address by 8 to 0xf14 and Line by 0 to 55
  [0x000000ff]  Special opcode 48: advance Address by 12 to 0xf20 and Line by 1 to 56
  [0x00000100]  Set column to 1
  [0x00000102]  Special opcode 41: advance Address by 8 to 0xf28 and Line by 8 to 64
  [0x00000103]  Set is_stmt to 0
  [0x00000104]  Copy (view 1)
  [0x00000105]  Set column to 2
  [0x00000107]  Set is_stmt to 1
  [0x00000108]  Special opcode 34: advance Address by 8 to 0xf30 and Line by 1 to 65
  [0x00000109]  Set is_stmt to 0
  [0x0000010a]  Special opcode 103: advance Address by 28 to 0xf4c and Line by 0 to 65
  [0x0000010b]  Set is_stmt to 1
  [0x0000010c]  Special opcode 34: advance Address by 8 to 0xf54 and Line by 1 to 66
  [0x0000010d]  Set column to 1
  [0x0000010f]  Set is_stmt to 0
  [0x00000110]  Special opcode 48: advance Address by 12 to 0xf60 and Line by 1 to 67
  [0x00000111]  Set is_stmt to 1
  [0x00000112]  Special opcode 37: advance Address by 8 to 0xf68 and Line by 4 to 71
  [0x00000113]  Set is_stmt to 0
  [0x00000114]  Copy (view 1)
  [0x00000115]  Set column to 2
  [0x00000117]  Set is_stmt to 1
  [0x00000118]  Special opcode 34: advance Address by 8 to 0xf70 and Line by 1 to 72
  [0x00000119]  Set column to 5
  [0x0000011b]  Special opcode 6: advance Address by 0 to 0xf70 and Line by 1 to 73 (view 1)
  [0x0000011c]  Set column to 16
  [0x0000011e]  Set is_stmt to 0
  [0x0000011f]  Copy (view 2)
  [0x00000120]  Set column to 5
  [0x00000122]  Set is_stmt to 1
  [0x00000123]  Special opcode 20: advance Address by 4 to 0xf74 and Line by 1 to 74
  [0x00000124]  Set column to 23
  [0x00000126]  Set is_stmt to 0
  [0x00000127]  Copy (view 1)
  [0x00000128]  Set column to 17
  [0x0000012a]  Special opcode 61: advance Address by 16 to 0xf84 and Line by 0 to 74
  [0x0000012b]  Set column to 2
  [0x0000012d]  Set is_stmt to 1
  [0x0000012e]  Special opcode 34: advance Address by 8 to 0xf8c and Line by 1 to 75
  [0x0000012f]  Set column to 1
  [0x00000131]  Set is_stmt to 0
  [0x00000132]  Special opcode 48: advance Address by 12 to 0xf98 and Line by 1 to 76
  [0x00000133]  Set is_stmt to 1
  [0x00000134]  Advance Line by 65 to 141
  [0x00000137]  Special opcode 33: advance Address by 8 to 0xfa0 and Line by 0 to 141
  [0x00000138]  Set is_stmt to 0
  [0x00000139]  Copy (view 1)
  [0x0000013a]  Set column to 2
  [0x0000013c]  Set is_stmt to 1
  [0x0000013d]  Special opcode 49: advance Address by 12 to 0xfac and Line by 2 to 143
  [0x0000013e]  Set column to 4
  [0x00000140]  Set is_stmt to 0
  [0x00000141]  Copy (view 1)
  [0x00000142]  Set column to 2
  [0x00000144]  Set is_stmt to 1
  [0x00000145]  Special opcode 55: advance Address by 12 to 0xfb8 and Line by 8 to 151
  [0x00000146]  Special opcode 6: advance Address by 0 to 0xfb8 and Line by 1 to 152 (view 1)
  [0x00000147]  Set column to 16
  [0x00000149]  Set is_stmt to 0
  [0x0000014a]  Copy (view 2)
  [0x0000014b]  Set column to 4
  [0x0000014d]  Special opcode 19: advance Address by 4 to 0xfbc and Line by 0 to 152
  [0x0000014e]  Set column to 3
  [0x00000150]  Set is_stmt to 1
  [0x00000151]  Special opcode 49: advance Address by 12 to 0xfc8 and Line by 2 to 154
  [0x00000152]  Set column to 33
  [0x00000154]  Set is_stmt to 0
  [0x00000155]  Copy (view 1)
  [0x00000156]  Set column to 11
  [0x00000158]  Special opcode 19: advance Address by 4 to 0xfcc and Line by 0 to 154
  [0x00000159]  Set column to 2
  [0x0000015b]  Set is_stmt to 1
  [0x0000015c]  Advance Line by 11 to 165
  [0x0000015e]  Special opcode 47: advance Address by 12 to 0xfd8 and Line by 0 to 165
  [0x0000015f]  Special opcode 64: advance Address by 16 to 0xfe8 and Line by 3 to 168
  [0x00000160]  Set column to 8
  [0x00000162]  Copy (view 1)
  [0x00000163]  Set is_stmt to 0
  [0x00000164]  Special opcode 33: advance Address by 8 to 0xff0 and Line by 0 to 168
  [0x00000165]  Set column to 3
  [0x00000167]  Special opcode 22: advance Address by 4 to 0xff4 and Line by 3 to 171
  [0x00000168]  Set column to 4
  [0x0000016a]  Special opcode 27: advance Address by 4 to 0xff8 and Line by 8 to 179
  [0x0000016b]  Special opcode 29: advance Address by 8 to 0x1000 and Line by -4 to 175
  [0x0000016c]  Set column to 3
  [0x0000016e]  Set is_stmt to 1
  [0x0000016f]  Advance Line by -30 to 145
  [0x00000171]  Special opcode 47: advance Address by 12 to 0x100c and Line by 0 to 145
  [0x00000172]  Set is_stmt to 0
  [0x00000173]  Special opcode 19: advance Address by 4 to 0x1010 and Line by 0 to 145
  [0x00000174]  Set is_stmt to 1
  [0x00000175]  Special opcode 34: advance Address by 8 to 0x1018 and Line by 1 to 146
  [0x00000176]  Special opcode 48: advance Address by 12 to 0x1024 and Line by 1 to 147
  [0x00000177]  Set column to 7
  [0x00000179]  Advance Line by 9 to 156
  [0x0000017b]  Special opcode 19: advance Address by 4 to 0x1028 and Line by 0 to 156
  [0x0000017c]  Set column to 3
  [0x0000017e]  Special opcode 7: advance Address by 0 to 0x1028 and Line by 2 to 158 (view 1)
  [0x0000017f]  Set column to 28
  [0x00000181]  Set is_stmt to 0
  [0x00000182]  Copy (view 2)
  [0x00000183]  Set column to 36
  [0x00000185]  Special opcode 19: advance Address by 4 to 0x102c and Line by 0 to 158
  [0x00000186]  Set column to 11
  [0x00000188]  Special opcode 19: advance Address by 4 to 0x1030 and Line by 0 to 158
  [0x00000189]  Special opcode 47: advance Address by 12 to 0x103c and Line by 0 to 158
  [0x0000018a]  Set column to 4
  [0x0000018c]  Set is_stmt to 1
  [0x0000018d]  Advance Line by 17 to 175
  [0x0000018f]  Special opcode 19: advance Address by 4 to 0x1040 and Line by 0 to 175
  [0x00000190]  Set column to 3
  [0x00000192]  Special opcode 40: advance Address by 8 to 0x1048 and Line by 7 to 182
  [0x00000193]  Special opcode 34: advance Address by 8 to 0x1050 and Line by 1 to 183
  [0x00000194]  Special opcode 35: advance Address by 8 to 0x1058 and Line by 2 to 185
  [0x00000195]  Set column to 8
  [0x00000197]  Advance Line by -17 to 168
  [0x00000199]  Copy (view 1)
  [0x0000019a]  Set is_stmt to 0
  [0x0000019b]  Special opcode 19: advance Address by 4 to 0x105c and Line by 0 to 168
  [0x0000019c]  Set column to 3
  [0x0000019e]  Set is_stmt to 1
  [0x0000019f]  Special opcode 22: advance Address by 4 to 0x1060 and Line by 3 to 171
  [0x000001a0]  Special opcode 35: advance Address by 8 to 0x1068 and Line by 2 to 173
  [0x000001a1]  Set column to 5
  [0x000001a3]  Set is_stmt to 0
  [0x000001a4]  Copy (view 1)
  [0x000001a5]  Set column to 4
  [0x000001a7]  Set is_stmt to 1
  [0x000001a8]  Special opcode 53: advance Address by 12 to 0x1074 and Line by 6 to 179
  [0x000001a9]  Set is_stmt to 0
  [0x000001aa]  Special opcode 47: advance Address by 12 to 0x1080 and Line by 0 to 179
  [0x000001ab]  Set column to 3
  [0x000001ad]  Set is_stmt to 1
  [0x000001ae]  Special opcode 26: advance Address by 4 to 0x1084 and Line by 7 to 186
  [0x000001af]  Set column to 2
  [0x000001b1]  Special opcode 7: advance Address by 0 to 0x1084 and Line by 2 to 188 (view 1)
  [0x000001b2]  Set column to 1
  [0x000001b4]  Set is_stmt to 0
  [0x000001b5]  Special opcode 62: advance Address by 16 to 0x1094 and Line by 1 to 189
  [0x000001b6]  Set is_stmt to 1
  [0x000001b7]  Special opcode 37: advance Address by 8 to 0x109c and Line by 4 to 193
  [0x000001b8]  Set is_stmt to 0
  [0x000001b9]  Copy (view 1)
  [0x000001ba]  Set column to 2
  [0x000001bc]  Set is_stmt to 1
  [0x000001bd]  Special opcode 63: advance Address by 16 to 0x10ac and Line by 2 to 195
  [0x000001be]  Set column to 8
  [0x000001c0]  Copy (view 1)
  [0x000001c1]  Set column to 14
  [0x000001c3]  Set is_stmt to 0
  [0x000001c4]  Copy (view 2)
  [0x000001c5]  Set column to 8
  [0x000001c7]  Special opcode 19: advance Address by 4 to 0x10b0 and Line by 0 to 195
  [0x000001c8]  Set column to 3
  [0x000001ca]  Set is_stmt to 1
  [0x000001cb]  Special opcode 21: advance Address by 4 to 0x10b4 and Line by 2 to 197
  [0x000001cc]  Special opcode 20: advance Address by 4 to 0x10b8 and Line by 1 to 198
  [0x000001cd]  Set column to 8
  [0x000001cf]  Special opcode 2: advance Address by 0 to 0x10b8 and Line by -3 to 195 (view 1)
  [0x000001d0]  Set column to 14
  [0x000001d2]  Set is_stmt to 0
  [0x000001d3]  Copy (view 2)
  [0x000001d4]  Set column to 8
  [0x000001d6]  Special opcode 19: advance Address by 4 to 0x10bc and Line by 0 to 195
  [0x000001d7]  Set column to 1
  [0x000001d9]  Special opcode 24: advance Address by 4 to 0x10c0 and Line by 5 to 200
  [0x000001da]  Special opcode 19: advance Address by 4 to 0x10c4 and Line by 0 to 200
  [0x000001db]  Set column to 34
  [0x000001dd]  Set is_stmt to 1
  [0x000001de]  Special opcode 34: advance Address by 8 to 0x10cc and Line by 1 to 201
  [0x000001df]  Set is_stmt to 0
  [0x000001e0]  Copy (view 1)
  [0x000001e1]  Set column to 5
  [0x000001e3]  Set is_stmt to 1
  [0x000001e4]  Special opcode 35: advance Address by 8 to 0x10d4 and Line by 2 to 203
  [0x000001e5]  Set is_stmt to 0
  [0x000001e6]  Special opcode 19: advance Address by 4 to 0x10d8 and Line by 0 to 203
  [0x000001e7]  Set column to 2
  [0x000001e9]  Set is_stmt to 1
  [0x000001ea]  Special opcode 34: advance Address by 8 to 0x10e0 and Line by 1 to 204
  [0x000001eb]  Special opcode 34: advance Address by 8 to 0x10e8 and Line by 1 to 205
  [0x000001ec]  Set column to 5
  [0x000001ee]  Special opcode 48: advance Address by 12 to 0x10f4 and Line by 1 to 206
  [0x000001ef]  Set column to 1
  [0x000001f1]  Set is_stmt to 0
  [0x000001f2]  Special opcode 6: advance Address by 0 to 0x10f4 and Line by 1 to 207 (view 1)
  [0x000001f3]  Advance PC by 12 to 0x1100
  [0x000001f5]  Extended opcode 1: End of Sequence


Contents of the .debug_str section (loaded from a.out):

  0x00000000 5f5f6f66 665f7400 5f494f5f 72656164 __off_t._IO_read
  0x00000010 5f707472 005f6368 61696e00 74696d65 _ptr._chain.time
  0x00000020 5f776f72 64007369 7a655f74 005f7368 _word.size_t._sh
  0x00000030 6f727462 75660073 7472696e 67007061 ortbuf.string.pa
  0x00000040 7468005f 494f5f62 75665f62 61736500 th._IO_buf_base.
  0x00000050 6c6f6e67 206c6f6e 6720756e 7369676e long long unsign
  0x00000060 65642069 6e74006e 616e6f73 6c656570 ed int.nanosleep
  0x00000070 006c6f6e 67206c6f 6e672069 6e74005f .long long int._
  0x00000080 5f627569 6c74696e 5f667772 69746500 _builtin_fwrite.
  0x00000090 626c696e 6b79005f 66696c65 6e6f005f blinky._fileno._
  0x000000a0 5f627569 6c74696e 5f667075 7463005f _builtin_fputc._
  0x000000b0 494f5f72 6561645f 656e6400 5f666c61 IO_read_end._fla
  0x000000c0 6773005f 494f5f62 75665f65 6e64005f gs._IO_buf_end._
  0x000000d0 6375725f 636f6c75 6d6e005f 494f5f63 cur_column._IO_c
  0x000000e0 6f646563 76740064 6f75626c 65005f6f odecvt.double._o
  0x000000f0 6c645f6f 66667365 7400696f 5f696e69 ld_offset.io_ini
  0x00000100 74005f49 4f5f6d61 726b6572 005f6672 t._IO_marker._fr
  0x00000110 65657265 735f6275 66006670 72696e74 eeres_buf.fprint
  0x00000120 66005f49 4f5f7772 6974655f 70747200 f._IO_write_ptr.
  0x00000130 73686f72 7420756e 7369676e 65642069 short unsigned i
  0x00000140 6e74005f 494f5f73 6176655f 62617365 nt._IO_save_base
  0x00000150 005f6c6f 636b0073 7072696e 7466005f ._lock.sprintf._
  0x00000160 666c6167 7332005f 6d6f6465 005f5f62 flags2._mode.__b
  0x00000170 75696c74 696e5f70 75747300 6d6f7273 uiltin_puts.mors
  0x00000180 65007476 5f6e7365 63007476 5f736563 e.tv_nsec.tv_sec
  0x00000190 005f5f73 79736361 6c6c5f73 6c6f6e67 .__syscall_slong
  0x000001a0 5f74005f 494f5f77 72697465 5f656e64 _t._IO_write_end
  0x000001b0 0074696d 655f6461 68005f49 4f5f6c6f .time_dah._IO_lo
  0x000001c0 636b5f74 00696f5f 77726974 65005f49 ck_t.io_write._I
  0x000001d0 4f5f4649 4c450074 696d655f 6c657474 O_FILE.time_lett
  0x000001e0 65720070 61747465 726e0066 6f70656e er.pattern.fopen
  0x000001f0 0066666c 75736800 5f6d6172 6b657273 .fflush._markers
  0x00000200 006d6f72 73655f6c 65747465 72007469 .morse_letter.ti
  0x00000210 6d655f64 69740047 4e552043 39392031 me_dit.GNU C99 1
  0x00000220 322e322e 30202d6d 6c697474 6c652d65 2.2.0 -mlittle-e
  0x00000230 6e646961 6e202d6d 6162693d 6c703634 ndian -mabi=lp64
  0x00000240 202d6720 2d4f3120 2d737464 3d676e75  -g -O1 -std=gnu
  0x00000250 3939202d 66617379 6e636872 6f6e6f75 99 -fasynchronou
  0x00000260 732d756e 77696e64 2d746162 6c657300 s-unwind-tables.
  0x00000270 74696d65 5f737061 6365005f 426f6f6c time_space._Bool
  0x00000280 00756e73 69676e65 64206368 61720073 .unsigned char.s
  0x00000290 686f7274 20696e74 005f494f 5f776964 hort int._IO_wid
  0x000002a0 655f6461 7461006d 6f727365 5f74626c e_data.morse_tbl
  0x000002b0 0074696d 65737065 63005f76 7461626c .timespec._vtabl
  0x000002c0 655f6f66 66736574 00657869 74006663 e_offset.exit.fc
  0x000002d0 6c6f7365 005f5f6f 66663634 5f74005f lose.__off64_t._
  0x000002e0 494f5f72 6561645f 62617365 005f494f IO_read_base._IO
  0x000002f0 5f736176 655f656e 64006673 6c656570 _save_end.fsleep
  0x00000300 005f5f70 61643500 5f5f7469 6d655f74 .__pad5.__time_t
  0x00000310 005f756e 75736564 32006172 67760073 ._unused2.argv.s
  0x00000320 74617475 73005f49 4f5f6261 636b7570 tatus._IO_backup
  0x00000330 5f626173 65006172 6763005f 66726565 _base.argc._free
  0x00000340 7265735f 6c697374 006d6169 6e005f49 res_list.main._I
  0x00000350 4f5f7772 6974655f 62617365 00       O_write_base.

Contents of the .debug_line_str section (loaded from a.out):

  0x00000000 2f726f6f 742f6865 6c6c6f2d 776f726c /root/hello-worl
  0x00000010 642f6161 72636836 342d6c69 6e75782d d/aarch64-linux-
  0x00000020 676e7500 2e2e2f6d 6f727365 2e63002e gnu.../morse.c..
  0x00000030 2e002f75 73722f6c 69622f67 63632d63 ../usr/lib/gcc-c
  0x00000040 726f7373 2f616172 63683634 2d6c696e ross/aarch64-lin
  0x00000050 75782d67 6e752f31 322f696e 636c7564 ux-gnu/12/includ
  0x00000060 65002f75 73722f61 61726368 36342d6c e./usr/aarch64-l
  0x00000070 696e7578 2d676e75 2f696e63 6c756465 inux-gnu/include
  0x00000080 2f626974 73002f75 73722f61 61726368 /bits./usr/aarch
  0x00000090 36342d6c 696e7578 2d676e75 2f696e63 64-linux-gnu/inc
  0x000000a0 6c756465 2f626974 732f7479 70657300 lude/bits/types.
  0x000000b0 2f757372 2f616172 63683634 2d6c696e /usr/aarch64-lin
  0x000000c0 75782d67 6e752f69 6e636c75 64650073 ux-gnu/include.s
  0x000000d0 74646465 662e6800 74797065 732e6800 tddef.h.types.h.
  0x000000e0 73747275 63745f46 494c452e 68007374 struct_FILE.h.st
  0x000000f0 72756374 5f74696d 65737065 632e6800 ruct_timespec.h.
  0x00000100 74696d65 2e680073 7464696f 2e680073 time.h.stdio.h.s
  0x00000110 74646c69 622e6800 3c627569 6c742d69 tdlib.h.<built-i
  0x00000120 6e3e00                              n>.

Contents of the .debug_loclists section (loaded from a.out):

    Offset   Begin            End              Expression

    0000000c v000000000000000 v000000000000000 location view pair
    0000000e v000000000000000 v000000000000000 location view pair

    00000010 v000000000000000 v000000000000000 views at 0000000c for:
             00000000000010cc 00000000000010d8 (DW_OP_reg0 (x0))
    00000017 v000000000000000 v000000000000000 views at 0000000e for:
             00000000000010d8 0000000000001100 (DW_OP_entry_value: (DW_OP_reg0 (x0)); DW_OP_stack_value)
    00000021 <End of list>

    00000022 v000000000000000 v000000000000000 location view pair
    00000024 v000000000000000 v000000000000000 location view pair

    00000026 v000000000000000 v000000000000000 views at 00000022 for:
             00000000000010cc 00000000000010df (DW_OP_reg1 (x1))
    0000002d v000000000000000 v000000000000000 views at 00000024 for:
             00000000000010df 0000000000001100 (DW_OP_entry_value: (DW_OP_reg1 (x1)); DW_OP_stack_value)
    00000037 <End of list>

    00000038 v000000000000000 v000000000000000 location view pair
    0000003a v000000000000000 v000000000000001 location view pair
    0000003c v000000000000001 v000000000000000 location view pair
    0000003e v000000000000000 v000000000000000 location view pair

    00000040 v000000000000000 v000000000000000 views at 00000038 for:
             000000000000109c 00000000000010b0 (DW_OP_reg0 (x0))
    00000047 v000000000000000 v000000000000001 views at 0000003a for:
             00000000000010b0 00000000000010b8 (DW_OP_reg19 (x19))
    0000004e v000000000000001 v000000000000000 views at 0000003c for:
             00000000000010b8 00000000000010bc (DW_OP_breg19 (x19): 1; DW_OP_stack_value)
    00000057 v000000000000000 v000000000000000 views at 0000003e for:
             00000000000010bc 00000000000010c4 (DW_OP_reg19 (x19))
    0000005e <End of list>

    0000005f v000000000000000 v000000000000000 location view pair
    00000061 v000000000000000 v000000000000000 location view pair
    00000063 v000000000000000 v000000000000000 location view pair
    00000065 v000000000000000 v000000000000000 location view pair
    00000067 v000000000000000 v000000000000000 location view pair
    00000069 v000000000000000 v000000000000000 location view pair

    0000006b v000000000000000 v000000000000000 views at 0000005f for:
             0000000000000fa0 0000000000000fbc (DW_OP_reg0 (x0))
    00000072 v000000000000000 v000000000000000 views at 00000061 for:
             0000000000000fbc 0000000000000fe7 (DW_OP_reg1 (x1))
    00000079 v000000000000000 v000000000000000 views at 00000063 for:
             0000000000000fe7 000000000000100c (DW_OP_entry_value: (DW_OP_reg0 (x0)); DW_OP_stack_value)
    00000083 v000000000000000 v000000000000000 views at 00000065 for:
             000000000000100c 0000000000001010 (DW_OP_reg0 (x0))
    0000008a v000000000000000 v000000000000000 views at 00000067 for:
             0000000000001010 0000000000001017 (DW_OP_reg1 (x1))
    00000091 v000000000000000 v000000000000000 views at 00000069 for:
             0000000000001017 000000000000109c (DW_OP_entry_value: (DW_OP_reg0 (x0)); DW_OP_stack_value)
    0000009b <End of list>

    0000009c v000000000000001 v000000000000000 location view pair
    0000009e v000000000000000 v000000000000000 location view pair
    000000a0 v000000000000000 v000000000000000 location view pair
    000000a2 v000000000000000 v000000000000001 location view pair
    000000a4 v000000000000001 v000000000000000 location view pair
    000000a6 v000000000000000 v000000000000000 location view pair

    000000a8 v000000000000001 v000000000000000 views at 0000009c for:
             0000000000000fb8 0000000000000fd8 (DW_OP_addr: 22e8; DW_OP_stack_value)
    000000b8 v000000000000000 v000000000000000 views at 0000009e for:
             0000000000000fd8 000000000000100c (DW_OP_reg19 (x19))
    000000bf v000000000000000 v000000000000000 views at 000000a0 for:
             0000000000001028 000000000000103c (DW_OP_addr: 22e8; DW_OP_stack_value)
    000000cf v000000000000000 v000000000000001 views at 000000a2 for:
             000000000000103c 0000000000001058 (DW_OP_reg19 (x19))
    000000d6 v000000000000001 v000000000000000 views at 000000a4 for:
             0000000000001058 000000000000105c (DW_OP_breg19 (x19): 1; DW_OP_stack_value)
    000000df v000000000000000 v000000000000000 views at 000000a6 for:
             000000000000105c 0000000000001094 (DW_OP_reg19 (x19))
    000000e6 <End of list>

    000000e7 v000000000000000 v000000000000000 location view pair
    000000e9 v000000000000000 v000000000000000 location view pair

    000000eb v000000000000000 v000000000000000 views at 000000e7 for:
             0000000000000f68 0000000000000f84 (DW_OP_regx: 64 (v0))
    000000f3 v000000000000000 v000000000000000 views at 000000e9 for:
             0000000000000f84 0000000000000fa0 (DW_OP_entry_value: (DW_OP_regval_type: 64 (v0) <0x2e>); DW_OP_stack_value)
    000000ff <End of list>

    00000100 v000000000000000 v000000000000000 location view pair
    00000102 v000000000000000 v000000000000000 location view pair

    00000104 v000000000000000 v000000000000000 views at 00000100 for:
             0000000000000f28 0000000000000f4c (DW_OP_reg0 (x0))
    0000010b v000000000000000 v000000000000000 views at 00000102 for:
             0000000000000f4c 0000000000000f68 (DW_OP_entry_value: (DW_OP_reg0 (x0)); DW_OP_stack_value)
    00000115 <End of list>

    00000116 v000000000000000 v000000000000000 location view pair
    00000118 v000000000000000 v000000000000000 location view pair
    0000011a v000000000000000 v000000000000000 location view pair
    0000011c v000000000000000 v000000000000000 location view pair
    0000011e v000000000000000 v000000000000000 location view pair

    00000120 v000000000000000 v000000000000000 views at 00000116 for:
             0000000000000d94 0000000000000dbc (DW_OP_reg0 (x0))
    00000125 v000000000000000 v000000000000000 views at 00000118 for:
             0000000000000dbc 0000000000000dbf (DW_OP_reg2 (x2))
    0000012a v000000000000000 v000000000000000 views at 0000011a for:
             0000000000000dbf 0000000000000e6c (DW_OP_reg20 (x20))
    00000130 v000000000000000 v000000000000000 views at 0000011c for:
             0000000000000e6c 0000000000000e78 (DW_OP_entry_value: (DW_OP_reg0 (x0)); DW_OP_stack_value)
    0000013a v000000000000000 v000000000000000 views at 0000011e for:
             0000000000000e78 0000000000000f28 (DW_OP_reg20 (x20))
    00000141 <End of list>

