
a.out:     file format elf64-littleaarch64

SYMBOL TABLE:
0000000000000238 l    d  .interp	0000000000000000              .interp
0000000000000254 l    d  .note.gnu.build-id	0000000000000000              .note.gnu.build-id
0000000000000278 l    d  .note.ABI-tag	0000000000000000              .note.ABI-tag
0000000000000298 l    d  .gnu.hash	0000000000000000              .gnu.hash
00000000000002b8 l    d  .dynsym	0000000000000000              .dynsym
00000000000003a8 l    d  .dynstr	0000000000000000              .dynstr
000000000000043c l    d  .gnu.version	0000000000000000              .gnu.version
0000000000000450 l    d  .gnu.version_r	0000000000000000              .gnu.version_r
0000000000000480 l    d  .rela.dyn	0000000000000000              .rela.dyn
0000000000000540 l    d  .rela.plt	0000000000000000              .rela.plt
00000000000005b8 l    d  .init	0000000000000000              .init
00000000000005d0 l    d  .plt	0000000000000000              .plt
0000000000000640 l    d  .text	0000000000000000              .text
000000000000089c l    d  .fini	0000000000000000              .fini
00000000000008b0 l    d  .rodata	0000000000000000              .rodata
00000000000008f8 l    d  .eh_frame_hdr	0000000000000000              .eh_frame_hdr
0000000000000940 l    d  .eh_frame	0000000000000000              .eh_frame
000000000001fdc8 l    d  .init_array	0000000000000000              .init_array
000000000001fdd0 l    d  .fini_array	0000000000000000              .fini_array
000000000001fdd8 l    d  .dynamic	0000000000000000              .dynamic
000000000001ffb8 l    d  .got	0000000000000000              .got
000000000001ffe8 l    d  .got.plt	0000000000000000              .got.plt
0000000000020028 l    d  .data	0000000000000000              .data
0000000000020038 l    d  .bss	0000000000000000              .bss
0000000000000000 l    d  .comment	0000000000000000              .comment
0000000000000000 l    d  .debug_aranges	0000000000000000              .debug_aranges
0000000000000000 l    d  .debug_info	0000000000000000              .debug_info
0000000000000000 l    d  .debug_abbrev	0000000000000000              .debug_abbrev
0000000000000000 l    d  .debug_line	0000000000000000              .debug_line
0000000000000000 l    d  .debug_str	0000000000000000              .debug_str
0000000000000000 l    d  .debug_line_str	0000000000000000              .debug_line_str
0000000000000000 l    d  .debug_loclists	0000000000000000              .debug_loclists
0000000000000000 l    d  .debug_rnglists	0000000000000000              .debug_rnglists
0000000000000000 l    df *ABS*	0000000000000000              Scrt1.o
0000000000000278 l     O .note.ABI-tag	0000000000000020              __abi_tag
0000000000000000 l    df *ABS*	0000000000000000              crti.o
0000000000000674 l     F .text	0000000000000014              call_weak_fn
0000000000000000 l    df *ABS*	0000000000000000              crtn.o
0000000000000000 l    df *ABS*	0000000000000000              crtstuff.c
0000000000000690 l     F .text	0000000000000000              deregister_tm_clones
00000000000006c0 l     F .text	0000000000000000              register_tm_clones
0000000000000700 l     F .text	0000000000000000              __do_global_dtors_aux
0000000000020038 l     O .bss	0000000000000001              completed.0
000000000001fdd0 l     O .fini_array	0000000000000000              __do_global_dtors_aux_fini_array_entry
0000000000000750 l     F .text	0000000000000000              frame_dummy
000000000001fdc8 l     O .init_array	0000000000000000              __frame_dummy_init_array_entry
0000000000000000 l    df *ABS*	0000000000000000              sort.c
0000000000000000 l    df *ABS*	0000000000000000              crtstuff.c
0000000000000a08 l     O .eh_frame	0000000000000000              __FRAME_END__
0000000000000000 l    df *ABS*	0000000000000000              
000000000001fdd8 l     O *ABS*	0000000000000000              _DYNAMIC
00000000000008f8 l       .eh_frame_hdr	0000000000000000              __GNU_EH_FRAME_HDR
000000000001ffb8 l     O *ABS*	0000000000000000              _GLOBAL_OFFSET_TABLE_
0000000000000000       F *UND*	0000000000000000              __libc_start_main@GLIBC_2.34
0000000000000000  w      *UND*	0000000000000000              _ITM_deregisterTMCloneTable
0000000000020028  w      .data	0000000000000000              data_start
0000000000020038 g       .bss	0000000000000000              __bss_start__
0000000000000000  w    F *UND*	0000000000000000              __cxa_finalize@GLIBC_2.17
0000000000020040 g       .bss	0000000000000000              _bss_end__
0000000000020038 g       .data	0000000000000000              _edata
000000000000089c g     F .fini	0000000000000000              .hidden _fini
0000000000020040 g       .bss	0000000000000000              __bss_end__
0000000000020028 g       .data	0000000000000000              __data_start
0000000000000000  w      *UND*	0000000000000000              __gmon_start__
0000000000020030 g     O .data	0000000000000000              .hidden __dso_handle
0000000000000000       F *UND*	0000000000000000              abort@GLIBC_2.17
00000000000008b0 g     O .rodata	0000000000000004              _IO_stdin_used
0000000000020040 g       .bss	0000000000000000              _end
0000000000000640 g     F .text	0000000000000034              _start
0000000000020040 g       .bss	0000000000000000              __end__
0000000000020038 g       .bss	0000000000000000              __bss_start
00000000000007b0 g     F .text	00000000000000ec              main
0000000000020038 g     O .data	0000000000000000              .hidden __TMC_END__
0000000000000000  w      *UND*	0000000000000000              _ITM_registerTMCloneTable
0000000000000000       F *UND*	0000000000000000              printf@GLIBC_2.17
0000000000000754 g     F .text	000000000000005c              insertion_sort
00000000000005b8 g     F .init	0000000000000000              .hidden _init



Disassembly of section .init:

00000000000005b8 <_init>:
 5b8:	d503201f 	nop
 5bc:	a9bf7bfd 	stp	x29, x30, [sp, #-16]!
 5c0:	910003fd 	mov	x29, sp
 5c4:	9400002c 	bl	674 <call_weak_fn>
 5c8:	a8c17bfd 	ldp	x29, x30, [sp], #16
 5cc:	d65f03c0 	ret

Disassembly of section .plt:

00000000000005d0 <.plt>:
 5d0:	a9bf7bf0 	stp	x16, x30, [sp, #-16]!
 5d4:	f00000f0 	adrp	x16, 1f000 <__FRAME_END__+0x1e5f8>
 5d8:	f947fe11 	ldr	x17, [x16, #4088]
 5dc:	913fe210 	add	x16, x16, #0xff8
 5e0:	d61f0220 	br	x17
 5e4:	d503201f 	nop
 5e8:	d503201f 	nop
 5ec:	d503201f 	nop

00000000000005f0 <__libc_start_main@plt>:
 5f0:	90000110 	adrp	x16, 20000 <__libc_start_main@GLIBC_2.34>
 5f4:	f9400211 	ldr	x17, [x16]
 5f8:	91000210 	add	x16, x16, #0x0
 5fc:	d61f0220 	br	x17

0000000000000600 <__cxa_finalize@plt>:
 600:	90000110 	adrp	x16, 20000 <__libc_start_main@GLIBC_2.34>
 604:	f9400611 	ldr	x17, [x16, #8]
 608:	91002210 	add	x16, x16, #0x8
 60c:	d61f0220 	br	x17

0000000000000610 <__gmon_start__@plt>:
 610:	90000110 	adrp	x16, 20000 <__libc_start_main@GLIBC_2.34>
 614:	f9400a11 	ldr	x17, [x16, #16]
 618:	91004210 	add	x16, x16, #0x10
 61c:	d61f0220 	br	x17

0000000000000620 <abort@plt>:
 620:	90000110 	adrp	x16, 20000 <__libc_start_main@GLIBC_2.34>
 624:	f9400e11 	ldr	x17, [x16, #24]
 628:	91006210 	add	x16, x16, #0x18
 62c:	d61f0220 	br	x17

0000000000000630 <printf@plt>:
 630:	90000110 	adrp	x16, 20000 <__libc_start_main@GLIBC_2.34>
 634:	f9401211 	ldr	x17, [x16, #32]
 638:	91008210 	add	x16, x16, #0x20
 63c:	d61f0220 	br	x17

Disassembly of section .text:

0000000000000640 <_start>:
 640:	d503201f 	nop
 644:	d280001d 	mov	x29, #0x0                   	// #0
 648:	d280001e 	mov	x30, #0x0                   	// #0
 64c:	aa0003e5 	mov	x5, x0
 650:	f94003e1 	ldr	x1, [sp]
 654:	910023e2 	add	x2, sp, #0x8
 658:	910003e6 	mov	x6, sp
 65c:	f00000e0 	adrp	x0, 1f000 <__FRAME_END__+0x1e5f8>
 660:	f947ec00 	ldr	x0, [x0, #4056]
 664:	d2800003 	mov	x3, #0x0                   	// #0
 668:	d2800004 	mov	x4, #0x0                   	// #0
 66c:	97ffffe1 	bl	5f0 <__libc_start_main@plt>
 670:	97ffffec 	bl	620 <abort@plt>

0000000000000674 <call_weak_fn>:
 674:	f00000e0 	adrp	x0, 1f000 <__FRAME_END__+0x1e5f8>
 678:	f947e800 	ldr	x0, [x0, #4048]
 67c:	b4000040 	cbz	x0, 684 <call_weak_fn+0x10>
 680:	17ffffe4 	b	610 <__gmon_start__@plt>
 684:	d65f03c0 	ret
 688:	d503201f 	nop
 68c:	d503201f 	nop

0000000000000690 <deregister_tm_clones>:
 690:	90000100 	adrp	x0, 20000 <__libc_start_main@GLIBC_2.34>
 694:	9100e000 	add	x0, x0, #0x38
 698:	90000101 	adrp	x1, 20000 <__libc_start_main@GLIBC_2.34>
 69c:	9100e021 	add	x1, x1, #0x38
 6a0:	eb00003f 	cmp	x1, x0
 6a4:	540000c0 	b.eq	6bc <deregister_tm_clones+0x2c>  // b.none
 6a8:	f00000e1 	adrp	x1, 1f000 <__FRAME_END__+0x1e5f8>
 6ac:	f947e021 	ldr	x1, [x1, #4032]
 6b0:	b4000061 	cbz	x1, 6bc <deregister_tm_clones+0x2c>
 6b4:	aa0103f0 	mov	x16, x1
 6b8:	d61f0200 	br	x16
 6bc:	d65f03c0 	ret

00000000000006c0 <register_tm_clones>:
 6c0:	90000100 	adrp	x0, 20000 <__libc_start_main@GLIBC_2.34>
 6c4:	9100e000 	add	x0, x0, #0x38
 6c8:	90000101 	adrp	x1, 20000 <__libc_start_main@GLIBC_2.34>
 6cc:	9100e021 	add	x1, x1, #0x38
 6d0:	cb000021 	sub	x1, x1, x0
 6d4:	d37ffc22 	lsr	x2, x1, #63
 6d8:	8b810c41 	add	x1, x2, x1, asr #3
 6dc:	9341fc21 	asr	x1, x1, #1
 6e0:	b40000c1 	cbz	x1, 6f8 <register_tm_clones+0x38>
 6e4:	f00000e2 	adrp	x2, 1f000 <__FRAME_END__+0x1e5f8>
 6e8:	f947f042 	ldr	x2, [x2, #4064]
 6ec:	b4000062 	cbz	x2, 6f8 <register_tm_clones+0x38>
 6f0:	aa0203f0 	mov	x16, x2
 6f4:	d61f0200 	br	x16
 6f8:	d65f03c0 	ret
 6fc:	d503201f 	nop

0000000000000700 <__do_global_dtors_aux>:
 700:	a9be7bfd 	stp	x29, x30, [sp, #-32]!
 704:	910003fd 	mov	x29, sp
 708:	f9000bf3 	str	x19, [sp, #16]
 70c:	90000113 	adrp	x19, 20000 <__libc_start_main@GLIBC_2.34>
 710:	3940e260 	ldrb	w0, [x19, #56]
 714:	35000140 	cbnz	w0, 73c <__do_global_dtors_aux+0x3c>
 718:	f00000e0 	adrp	x0, 1f000 <__FRAME_END__+0x1e5f8>
 71c:	f947e400 	ldr	x0, [x0, #4040]
 720:	b4000080 	cbz	x0, 730 <__do_global_dtors_aux+0x30>
 724:	90000100 	adrp	x0, 20000 <__libc_start_main@GLIBC_2.34>
 728:	f9401800 	ldr	x0, [x0, #48]
 72c:	97ffffb5 	bl	600 <__cxa_finalize@plt>
 730:	97ffffd8 	bl	690 <deregister_tm_clones>
 734:	52800020 	mov	w0, #0x1                   	// #1
 738:	3900e260 	strb	w0, [x19, #56]
 73c:	f9400bf3 	ldr	x19, [sp, #16]
 740:	a8c27bfd 	ldp	x29, x30, [sp], #32
 744:	d65f03c0 	ret
 748:	d503201f 	nop
 74c:	d503201f 	nop

0000000000000750 <frame_dummy>:
 750:	17ffffdc 	b	6c0 <register_tm_clones>

0000000000000754 <insertion_sort>:
# 
# /* Insertion Sort function example from Rosetta Code */
# void insertion_sort(int*, const size_t); 
# 
# void insertion_sort(int *a, const size_t n) {
# 	for(size_t i = 1; i < n; ++i) {
 754:	f100043f 	cmp	x1, #0x1
 758:	540002a9 	b.ls	7ac <insertion_sort+0x58>  // b.plast
 75c:	d2800026 	mov	x6, #0x1                   	// #1
# 		int key = a[i];
# 		size_t j = i;
# 		while( (j > 0) && (key < a[j - 1]) ) {
 760:	d1001005 	sub	x5, x0, #0x4
 764:	14000005 	b	778 <insertion_sort+0x24>
# 			a[j] = a[j - 1];
# 			--j;
# 		}
# 		a[j] = key;
 768:	b8227804 	str	w4, [x0, x2, lsl #2]
# 	for(size_t i = 1; i < n; ++i) {
 76c:	910004c6 	add	x6, x6, #0x1
 770:	eb06003f 	cmp	x1, x6
 774:	540001c0 	b.eq	7ac <insertion_sort+0x58>  // b.none
# 		int key = a[i];
 778:	b8667804 	ldr	w4, [x0, x6, lsl #2]
# 		while( (j > 0) && (key < a[j - 1]) ) {
 77c:	aa0603e2 	mov	x2, x6
 780:	b4000106 	cbz	x6, 7a0 <insertion_sort+0x4c>
 784:	b86278a3 	ldr	w3, [x5, x2, lsl #2]
 788:	6b04007f 	cmp	w3, w4
 78c:	54fffeed 	b.le	768 <insertion_sort+0x14>
# 			a[j] = a[j - 1];
 790:	b8227803 	str	w3, [x0, x2, lsl #2]
# 		while( (j > 0) && (key < a[j - 1]) ) {
 794:	f1000442 	subs	x2, x2, #0x1
 798:	54ffff61 	b.ne	784 <insertion_sort+0x30>  // b.any
 79c:	17fffff3 	b	768 <insertion_sort+0x14>
# 		a[j] = key;
 7a0:	b9000004 	str	w4, [x0]
# 	for(size_t i = 1; i < n; ++i) {
 7a4:	910004c6 	add	x6, x6, #0x1
 7a8:	17fffff4 	b	778 <insertion_sort+0x24>
# 	}
# }
 7ac:	d65f03c0 	ret

00000000000007b0 <main>:
# 
# int main (int argc, char** argv) {
 7b0:	a9ba7bfd 	stp	x29, x30, [sp, #-96]!
 7b4:	910003fd 	mov	x29, sp
 7b8:	a90153f3 	stp	x19, x20, [sp, #16]
 7bc:	a9025bf5 	stp	x21, x22, [sp, #32]
# 
#     int a[] = {4, 65, 2, -31, 0, 99, 2, 83, 782, 1};
 7c0:	90000000 	adrp	x0, 0 <__abi_tag-0x278>
 7c4:	91234000 	add	x0, x0, #0x8d0
 7c8:	9100e3e1 	add	x1, sp, #0x38
 7cc:	ad400400 	ldp	q0, q1, [x0]
 7d0:	ad000420 	stp	q0, q1, [x1]
 7d4:	f9401000 	ldr	x0, [x0, #32]
 7d8:	f9001020 	str	x0, [x1, #32]
 7dc:	d2800033 	mov	x19, #0x1                   	// #1
# 
#     const size_t n = sizeof(a) / sizeof(a[0]) ;   // array extent 
# 
#     for (size_t i = 0; i < n; i++)
#         printf("%d%s", a[i], (i == (n - 1))? "\n" : " ");
 7e0:	aa0103f6 	mov	x22, x1
 7e4:	90000015 	adrp	x21, 0 <__abi_tag-0x278>
 7e8:	9122e2b5 	add	x21, x21, #0x8b8
 7ec:	90000014 	adrp	x20, 0 <__abi_tag-0x278>
 7f0:	91230294 	add	x20, x20, #0x8c0
 7f4:	14000005 	b	808 <main+0x58>
 7f8:	aa1503e2 	mov	x2, x21
 7fc:	aa1403e0 	mov	x0, x20
 800:	97ffff8c 	bl	630 <printf@plt>
#     for (size_t i = 0; i < n; i++)
 804:	91000673 	add	x19, x19, #0x1
#         printf("%d%s", a[i], (i == (n - 1))? "\n" : " ");
 808:	8b130ac0 	add	x0, x22, x19, lsl #2
 80c:	b85fc001 	ldur	w1, [x0, #-4]
 810:	f1002a7f 	cmp	x19, #0xa
 814:	54ffff21 	b.ne	7f8 <main+0x48>  // b.any
 818:	90000002 	adrp	x2, 0 <__abi_tag-0x278>
 81c:	91232042 	add	x2, x2, #0x8c8
 820:	90000000 	adrp	x0, 0 <__abi_tag-0x278>
 824:	91230000 	add	x0, x0, #0x8c0
 828:	97ffff82 	bl	630 <printf@plt>
# 
#     insertion_sort(a, n);
 82c:	d2800141 	mov	x1, #0xa                   	// #10
 830:	9100e3e0 	add	x0, sp, #0x38
 834:	97ffffc8 	bl	754 <insertion_sort>
 838:	d2800033 	mov	x19, #0x1                   	// #1
# 
#     for (size_t i = 0; i < n; i++)
#         printf("%d%s", a[i], (i == (n - 1))? "\n" : " ");
 83c:	9100e3f6 	add	x22, sp, #0x38
 840:	90000015 	adrp	x21, 0 <__abi_tag-0x278>
 844:	9122e2b5 	add	x21, x21, #0x8b8
 848:	90000014 	adrp	x20, 0 <__abi_tag-0x278>
 84c:	91230294 	add	x20, x20, #0x8c0
 850:	14000005 	b	864 <main+0xb4>
 854:	aa1503e2 	mov	x2, x21
 858:	aa1403e0 	mov	x0, x20
 85c:	97ffff75 	bl	630 <printf@plt>
#     for (size_t i = 0; i < n; i++)
 860:	91000673 	add	x19, x19, #0x1
#         printf("%d%s", a[i], (i == (n - 1))? "\n" : " ");
 864:	8b130ac0 	add	x0, x22, x19, lsl #2
 868:	b85fc001 	ldur	w1, [x0, #-4]
 86c:	f1002a7f 	cmp	x19, #0xa
 870:	54ffff21 	b.ne	854 <main+0xa4>  // b.any
 874:	90000002 	adrp	x2, 0 <__abi_tag-0x278>
 878:	91232042 	add	x2, x2, #0x8c8
 87c:	90000000 	adrp	x0, 0 <__abi_tag-0x278>
 880:	91230000 	add	x0, x0, #0x8c0
 884:	97ffff6b 	bl	630 <printf@plt>
# 
#     return 0;
 888:	52800000 	mov	w0, #0x0                   	// #0
 88c:	a94153f3 	ldp	x19, x20, [sp, #16]
 890:	a9425bf5 	ldp	x21, x22, [sp, #32]
 894:	a8c67bfd 	ldp	x29, x30, [sp], #96
 898:	d65f03c0 	ret

Disassembly of section .fini:

000000000000089c <_fini>:
 89c:	d503201f 	nop
 8a0:	a9bf7bfd 	stp	x29, x30, [sp, #-16]!
 8a4:	910003fd 	mov	x29, sp
 8a8:	a8c17bfd 	ldp	x29, x30, [sp], #16
 8ac:	d65f03c0 	ret
Contents of the .eh_frame section (loaded from a.out):


00000000 0000000000000010 00000000 CIE
  Version:               1
  Augmentation:          "zR"
  Code alignment factor: 4
  Data alignment factor: -8
  Return address column: 30
  Augmentation data:     1b
  DW_CFA_def_cfa: r31 (sp) ofs 0

00000014 0000000000000010 00000018 FDE cie=00000000 pc=0000000000000640..0000000000000674
  DW_CFA_advance_loc: 4 to 0000000000000644
  DW_CFA_undefined: r30 (x30)

00000028 0000000000000010 0000002c FDE cie=00000000 pc=0000000000000690..00000000000006c0
  DW_CFA_nop
  DW_CFA_nop
  DW_CFA_nop

0000003c 0000000000000010 00000040 FDE cie=00000000 pc=00000000000006c0..00000000000006fc
  DW_CFA_nop
  DW_CFA_nop
  DW_CFA_nop

00000050 0000000000000020 00000054 FDE cie=00000000 pc=0000000000000700..0000000000000748
  DW_CFA_advance_loc: 4 to 0000000000000704
  DW_CFA_def_cfa_offset: 32
  DW_CFA_offset: r29 (x29) at cfa-32
  DW_CFA_offset: r30 (x30) at cfa-24
  DW_CFA_advance_loc: 8 to 000000000000070c
  DW_CFA_offset: r19 (x19) at cfa-16
  DW_CFA_advance_loc: 56 to 0000000000000744
  DW_CFA_restore: r30 (x30)
  DW_CFA_restore: r29 (x29)
  DW_CFA_restore: r19 (x19)
  DW_CFA_def_cfa_offset: 0
  DW_CFA_nop
  DW_CFA_nop
  DW_CFA_nop

00000074 0000000000000010 00000078 FDE cie=00000000 pc=0000000000000750..0000000000000754
  DW_CFA_nop
  DW_CFA_nop
  DW_CFA_nop

00000088 0000000000000010 0000008c FDE cie=00000000 pc=0000000000000754..00000000000007b0
  DW_CFA_nop
  DW_CFA_nop
  DW_CFA_nop

0000009c 0000000000000028 000000a0 FDE cie=00000000 pc=00000000000007b0..000000000000089c
  DW_CFA_advance_loc: 4 to 00000000000007b4
  DW_CFA_def_cfa_offset: 96
  DW_CFA_offset: r29 (x29) at cfa-96
  DW_CFA_offset: r30 (x30) at cfa-88
  DW_CFA_advance_loc: 12 to 00000000000007c0
  DW_CFA_offset: r19 (x19) at cfa-80
  DW_CFA_offset: r20 (x20) at cfa-72
  DW_CFA_offset: r21 (x21) at cfa-64
  DW_CFA_offset: r22 (x22) at cfa-56
  DW_CFA_advance_loc: 216 to 0000000000000898
  DW_CFA_restore: r30 (x30)
  DW_CFA_restore: r29 (x29)
  DW_CFA_restore: r21 (x21)
  DW_CFA_restore: r22 (x22)
  DW_CFA_restore: r19 (x19)
  DW_CFA_restore: r20 (x20)
  DW_CFA_def_cfa_offset: 0
  DW_CFA_nop
  DW_CFA_nop

000000c8 ZERO terminator


Contents of the .debug_aranges section (loaded from a.out):

  Length:                   44
  Version:                  2
  Offset into .debug_info:  0
  Pointer Size:             8
  Segment Size:             0

    Address            Length
    0000000000000754 0000000000000148
    0000000000000000 0000000000000000

Contents of the .debug_info section (loaded from a.out):

  Compilation Unit @ offset 0:
   Length:        0x276 (32-bit)
   Version:       5
   Unit Type:     DW_UT_compile (1)
   Abbrev Offset: 0
   Pointer Size:  8
 <0><c>: Abbrev Number: 11 (DW_TAG_compile_unit)
    <d>   DW_AT_producer    : (indirect string, offset: 0x28): GNU C99 12.2.0 -mlittle-endian -mabi=lp64 -g -O1 -std=gnu99 -fasynchronous-unwind-tables
    <11>   DW_AT_language    : 12	(ANSI C99)
    <12>   DW_AT_name        : (indirect line string, offset: 0x24): ../sort.c
    <16>   DW_AT_comp_dir    : (indirect line string, offset: 0): /root/hello-world/aarch64-linux-gnu
    <1a>   DW_AT_low_pc      : 0x754
    <22>   DW_AT_high_pc     : 0x148
    <2a>   DW_AT_stmt_list   : 0
 <1><2e>: Abbrev Number: 12 (DW_TAG_typedef)
    <2f>   DW_AT_name        : (indirect string, offset: 0): size_t
    <33>   DW_AT_decl_file   : 2
    <34>   DW_AT_decl_line   : 214
    <35>   DW_AT_decl_column : 23
    <36>   DW_AT_type        : <0x3f>
 <1><3a>: Abbrev Number: 6 (DW_TAG_const_type)
    <3b>   DW_AT_type        : <0x2e>
 <1><3f>: Abbrev Number: 2 (DW_TAG_base_type)
    <40>   DW_AT_byte_size   : 8
    <41>   DW_AT_encoding    : 7	(unsigned)
    <42>   DW_AT_name        : (indirect string, offset: 0x16): long unsigned int
 <1><46>: Abbrev Number: 13 (DW_TAG_base_type)
    <47>   DW_AT_byte_size   : 4
    <48>   DW_AT_encoding    : 5	(signed)
    <49>   DW_AT_name        : int
 <1><4d>: Abbrev Number: 2 (DW_TAG_base_type)
    <4e>   DW_AT_byte_size   : 1
    <4f>   DW_AT_encoding    : 8	(unsigned char)
    <50>   DW_AT_name        : (indirect string, offset: 0x81): unsigned char
 <1><54>: Abbrev Number: 2 (DW_TAG_base_type)
    <55>   DW_AT_byte_size   : 2
    <56>   DW_AT_encoding    : 7	(unsigned)
    <57>   DW_AT_name        : (indirect string, offset: 0xa2): short unsigned int
 <1><5b>: Abbrev Number: 2 (DW_TAG_base_type)
    <5c>   DW_AT_byte_size   : 4
    <5d>   DW_AT_encoding    : 7	(unsigned)
    <5e>   DW_AT_name        : (indirect string, offset: 0x1b): unsigned int
 <1><62>: Abbrev Number: 2 (DW_TAG_base_type)
    <63>   DW_AT_byte_size   : 1
    <64>   DW_AT_encoding    : 6	(signed char)
    <65>   DW_AT_name        : (indirect string, offset: 0x83): signed char
 <1><69>: Abbrev Number: 2 (DW_TAG_base_type)
    <6a>   DW_AT_byte_size   : 2
    <6b>   DW_AT_encoding    : 5	(signed)
    <6c>   DW_AT_name        : (indirect string, offset: 0xbc): short int
 <1><70>: Abbrev Number: 2 (DW_TAG_base_type)
    <71>   DW_AT_byte_size   : 8
    <72>   DW_AT_encoding    : 5	(signed)
    <73>   DW_AT_name        : (indirect string, offset: 0x94): long int
 <1><77>: Abbrev Number: 4 (DW_TAG_pointer_type)
    <78>   DW_AT_byte_size   : 8
    <78>   DW_AT_type        : <0x7c>
 <1><7c>: Abbrev Number: 2 (DW_TAG_base_type)
    <7d>   DW_AT_byte_size   : 1
    <7e>   DW_AT_encoding    : 8	(unsigned char)
    <7f>   DW_AT_name        : (indirect string, offset: 0x8a): char
 <1><83>: Abbrev Number: 6 (DW_TAG_const_type)
    <84>   DW_AT_type        : <0x7c>
 <1><88>: Abbrev Number: 14 (DW_TAG_subprogram)
    <89>   DW_AT_external    : 1
    <89>   DW_AT_name        : (indirect string, offset: 0xb5): printf
    <8d>   DW_AT_decl_file   : 3
    <8e>   DW_AT_decl_line   : 356
    <90>   DW_AT_decl_column : 12
    <91>   DW_AT_prototyped  : 1
    <91>   DW_AT_type        : <0x46>
    <95>   DW_AT_declaration : 1
    <95>   DW_AT_sibling     : <0xa0>
 <2><99>: Abbrev Number: 15 (DW_TAG_formal_parameter)
    <9a>   DW_AT_type        : <0xa0>
 <2><9e>: Abbrev Number: 16 (DW_TAG_unspecified_parameters)
 <2><9f>: Abbrev Number: 0
 <1><a0>: Abbrev Number: 4 (DW_TAG_pointer_type)
    <a1>   DW_AT_byte_size   : 8
    <a1>   DW_AT_type        : <0x83>
 <1><a5>: Abbrev Number: 17 (DW_TAG_subprogram)
    <a6>   DW_AT_external    : 1
    <a6>   DW_AT_name        : (indirect string, offset: 0x8f): main
    <aa>   DW_AT_decl_file   : 1
    <ab>   DW_AT_decl_line   : 18
    <ac>   DW_AT_decl_column : 5
    <ad>   DW_AT_prototyped  : 1
    <ad>   DW_AT_type        : <0x46>
    <b1>   DW_AT_low_pc      : 0x7b0
    <b9>   DW_AT_high_pc     : 0xec
    <c1>   DW_AT_frame_base  : 1 byte block: 9c 	(DW_OP_call_frame_cfa)
    <c3>   DW_AT_call_all_calls: 1
    <c3>   DW_AT_sibling     : <0x1df>
 <2><c7>: Abbrev Number: 7 (DW_TAG_formal_parameter)
    <c8>   DW_AT_name        : (indirect string, offset: 0x9d): argc
    <cc>   DW_AT_decl_file   : 1
    <cc>   DW_AT_decl_line   : 18
    <cc>   DW_AT_decl_column : 15
    <cd>   DW_AT_type        : <0x46>
    <d1>   DW_AT_location    : 0x10 (location list)
    <d5>   DW_AT_GNU_locviews: 0xc
 <2><d9>: Abbrev Number: 7 (DW_TAG_formal_parameter)
    <da>   DW_AT_name        : (indirect string, offset: 0xc6): argv
    <de>   DW_AT_decl_file   : 1
    <de>   DW_AT_decl_line   : 18
    <de>   DW_AT_decl_column : 28
    <df>   DW_AT_type        : <0x1df>
    <e3>   DW_AT_location    : 0x23 (location list)
    <e7>   DW_AT_GNU_locviews: 0x1f
 <2><eb>: Abbrev Number: 18 (DW_TAG_variable)
    <ec>   DW_AT_name        : a
    <ee>   DW_AT_decl_file   : 1
    <ef>   DW_AT_decl_line   : 20
    <f0>   DW_AT_decl_column : 9
    <f1>   DW_AT_type        : <0x1e4>
    <f5>   DW_AT_location    : 2 byte block: 91 58 	(DW_OP_fbreg: -40)
 <2><f8>: Abbrev Number: 19 (DW_TAG_variable)
    <f9>   DW_AT_name        : n
    <fb>   DW_AT_decl_file   : 1
    <fc>   DW_AT_decl_line   : 22
    <fd>   DW_AT_decl_column : 18
    <fe>   DW_AT_type        : <0x3a>
    <102>   DW_AT_const_value : 10
 <2><103>: Abbrev Number: 8 (DW_TAG_lexical_block)
    <104>   DW_AT_ranges      : 0x13
    <108>   DW_AT_sibling     : <0x164>
 <3><10c>: Abbrev Number: 3 (DW_TAG_variable)
    <10d>   DW_AT_name        : i
    <10f>   DW_AT_decl_file   : 1
    <10f>   DW_AT_decl_line   : 24
    <110>   DW_AT_decl_column : 17
    <111>   DW_AT_type        : <0x2e>
    <115>   DW_AT_location    : 0x3c (location list)
    <119>   DW_AT_GNU_locviews: 0x32
 <3><11d>: Abbrev Number: 9 (DW_TAG_call_site)
    <11e>   DW_AT_call_return_pc: 0x804
    <126>   DW_AT_call_origin : <0x88>
    <12a>   DW_AT_sibling     : <0x13b>
 <4><12e>: Abbrev Number: 1 (DW_TAG_call_site_parameter)
    <12f>   DW_AT_location    : 1 byte block: 50 	(DW_OP_reg0 (x0))
    <131>   DW_AT_call_value  : 2 byte block: 84 0 	(DW_OP_breg20 (x20): 0)
 <4><134>: Abbrev Number: 1 (DW_TAG_call_site_parameter)
    <135>   DW_AT_location    : 1 byte block: 52 	(DW_OP_reg2 (x2))
    <137>   DW_AT_call_value  : 2 byte block: 85 0 	(DW_OP_breg21 (x21): 0)
 <4><13a>: Abbrev Number: 0
 <3><13b>: Abbrev Number: 5 (DW_TAG_call_site)
    <13c>   DW_AT_call_return_pc: 0x82c
    <144>   DW_AT_call_origin : <0x88>
 <4><148>: Abbrev Number: 1 (DW_TAG_call_site_parameter)
    <149>   DW_AT_location    : 1 byte block: 50 	(DW_OP_reg0 (x0))
    <14b>   DW_AT_call_value  : 9 byte block: 3 c0 8 0 0 0 0 0 0 	(DW_OP_addr: 8c0)
 <4><155>: Abbrev Number: 1 (DW_TAG_call_site_parameter)
    <156>   DW_AT_location    : 1 byte block: 52 	(DW_OP_reg2 (x2))
    <158>   DW_AT_call_value  : 9 byte block: 3 c8 8 0 0 0 0 0 0 	(DW_OP_addr: 8c8)
 <4><162>: Abbrev Number: 0
 <3><163>: Abbrev Number: 0
 <2><164>: Abbrev Number: 8 (DW_TAG_lexical_block)
    <165>   DW_AT_ranges      : 0x1e
    <169>   DW_AT_sibling     : <0x1c5>
 <3><16d>: Abbrev Number: 3 (DW_TAG_variable)
    <16e>   DW_AT_name        : i
    <170>   DW_AT_decl_file   : 1
    <170>   DW_AT_decl_line   : 29
    <171>   DW_AT_decl_column : 17
    <172>   DW_AT_type        : <0x2e>
    <176>   DW_AT_location    : 0x6f (location list)
    <17a>   DW_AT_GNU_locviews: 0x65
 <3><17e>: Abbrev Number: 9 (DW_TAG_call_site)
    <17f>   DW_AT_call_return_pc: 0x860
    <187>   DW_AT_call_origin : <0x88>
    <18b>   DW_AT_sibling     : <0x19c>
 <4><18f>: Abbrev Number: 1 (DW_TAG_call_site_parameter)
    <190>   DW_AT_location    : 1 byte block: 50 	(DW_OP_reg0 (x0))
    <192>   DW_AT_call_value  : 2 byte block: 84 0 	(DW_OP_breg20 (x20): 0)
 <4><195>: Abbrev Number: 1 (DW_TAG_call_site_parameter)
    <196>   DW_AT_location    : 1 byte block: 52 	(DW_OP_reg2 (x2))
    <198>   DW_AT_call_value  : 2 byte block: 85 0 	(DW_OP_breg21 (x21): 0)
 <4><19b>: Abbrev Number: 0
 <3><19c>: Abbrev Number: 5 (DW_TAG_call_site)
    <19d>   DW_AT_call_return_pc: 0x888
    <1a5>   DW_AT_call_origin : <0x88>
 <4><1a9>: Abbrev Number: 1 (DW_TAG_call_site_parameter)
    <1aa>   DW_AT_location    : 1 byte block: 50 	(DW_OP_reg0 (x0))
    <1ac>   DW_AT_call_value  : 9 byte block: 3 c0 8 0 0 0 0 0 0 	(DW_OP_addr: 8c0)
 <4><1b6>: Abbrev Number: 1 (DW_TAG_call_site_parameter)
    <1b7>   DW_AT_location    : 1 byte block: 52 	(DW_OP_reg2 (x2))
    <1b9>   DW_AT_call_value  : 9 byte block: 3 c8 8 0 0 0 0 0 0 	(DW_OP_addr: 8c8)
 <4><1c3>: Abbrev Number: 0
 <3><1c4>: Abbrev Number: 0
 <2><1c5>: Abbrev Number: 5 (DW_TAG_call_site)
    <1c6>   DW_AT_call_return_pc: 0x838
    <1ce>   DW_AT_call_origin : <0x1f4>
 <3><1d2>: Abbrev Number: 1 (DW_TAG_call_site_parameter)
    <1d3>   DW_AT_location    : 1 byte block: 50 	(DW_OP_reg0 (x0))
    <1d5>   DW_AT_call_value  : 2 byte block: 86 0 	(DW_OP_breg22 (x22): 0)
 <3><1d8>: Abbrev Number: 1 (DW_TAG_call_site_parameter)
    <1d9>   DW_AT_location    : 1 byte block: 51 	(DW_OP_reg1 (x1))
    <1db>   DW_AT_call_value  : 1 byte block: 3a 	(DW_OP_lit10)
 <3><1dd>: Abbrev Number: 0
 <2><1de>: Abbrev Number: 0
 <1><1df>: Abbrev Number: 4 (DW_TAG_pointer_type)
    <1e0>   DW_AT_byte_size   : 8
    <1e0>   DW_AT_type        : <0x77>
 <1><1e4>: Abbrev Number: 20 (DW_TAG_array_type)
    <1e5>   DW_AT_type        : <0x46>
    <1e9>   DW_AT_sibling     : <0x1f4>
 <2><1ed>: Abbrev Number: 21 (DW_TAG_subrange_type)
    <1ee>   DW_AT_type        : <0x3f>
    <1f2>   DW_AT_upper_bound : 9
 <2><1f3>: Abbrev Number: 0
 <1><1f4>: Abbrev Number: 22 (DW_TAG_subprogram)
    <1f5>   DW_AT_external    : 1
    <1f5>   DW_AT_name        : (indirect string, offset: 0x7): insertion_sort
    <1f9>   DW_AT_decl_file   : 1
    <1fa>   DW_AT_decl_line   : 6
    <1fb>   DW_AT_decl_column : 6
    <1fc>   DW_AT_prototyped  : 1
    <1fc>   DW_AT_low_pc      : 0x754
    <204>   DW_AT_high_pc     : 0x5c
    <20c>   DW_AT_frame_base  : 1 byte block: 9c 	(DW_OP_call_frame_cfa)
    <20e>   DW_AT_call_all_calls: 1
    <20e>   DW_AT_sibling     : <0x274>
 <2><212>: Abbrev Number: 10 (DW_TAG_formal_parameter)
    <213>   DW_AT_name        : a
    <215>   DW_AT_decl_file   : 1
    <215>   DW_AT_decl_line   : 6
    <215>   DW_AT_decl_column : 26
    <216>   DW_AT_type        : <0x274>
    <21a>   DW_AT_location    : 1 byte block: 50 	(DW_OP_reg0 (x0))
 <2><21c>: Abbrev Number: 10 (DW_TAG_formal_parameter)
    <21d>   DW_AT_name        : n
    <21f>   DW_AT_decl_file   : 1
    <21f>   DW_AT_decl_line   : 6
    <21f>   DW_AT_decl_column : 42
    <220>   DW_AT_type        : <0x3a>
    <224>   DW_AT_location    : 1 byte block: 51 	(DW_OP_reg1 (x1))
 <2><226>: Abbrev Number: 23 (DW_TAG_lexical_block)
    <227>   DW_AT_low_pc      : 0x754
    <22f>   DW_AT_high_pc     : 0x58
 <3><237>: Abbrev Number: 3 (DW_TAG_variable)
    <238>   DW_AT_name        : i
    <23a>   DW_AT_decl_file   : 1
    <23a>   DW_AT_decl_line   : 7
    <23b>   DW_AT_decl_column : 13
    <23c>   DW_AT_type        : <0x2e>
    <240>   DW_AT_location    : 0xa0 (location list)
    <244>   DW_AT_GNU_locviews: 0x98
 <3><248>: Abbrev Number: 24 (DW_TAG_lexical_block)
    <249>   DW_AT_ranges      : 0xc
 <4><24d>: Abbrev Number: 3 (DW_TAG_variable)
    <24e>   DW_AT_name        : key
    <252>   DW_AT_decl_file   : 1
    <252>   DW_AT_decl_line   : 8
    <253>   DW_AT_decl_column : 7
    <254>   DW_AT_type        : <0x46>
    <258>   DW_AT_location    : 0xba (location list)
    <25c>   DW_AT_GNU_locviews: 0xb6
 <4><260>: Abbrev Number: 3 (DW_TAG_variable)
    <261>   DW_AT_name        : j
    <263>   DW_AT_decl_file   : 1
    <263>   DW_AT_decl_line   : 9
    <264>   DW_AT_decl_column : 10
    <265>   DW_AT_type        : <0x2e>
    <269>   DW_AT_location    : 0xcf (location list)
    <26d>   DW_AT_GNU_locviews: 0xc5
 <4><271>: Abbrev Number: 0
 <3><272>: Abbrev Number: 0
 <2><273>: Abbrev Number: 0
 <1><274>: Abbrev Number: 4 (DW_TAG_pointer_type)
    <275>   DW_AT_byte_size   : 8
    <275>   DW_AT_type        : <0x46>
 <1><279>: Abbrev Number: 0

Contents of the .debug_abbrev section (loaded from a.out):

  Number TAG (0)
   1      DW_TAG_call_site_parameter    [no children]
    DW_AT_location     DW_FORM_exprloc
    DW_AT_call_value   DW_FORM_exprloc
    DW_AT value: 0     DW_FORM value: 0
   2      DW_TAG_base_type    [no children]
    DW_AT_byte_size    DW_FORM_data1
    DW_AT_encoding     DW_FORM_data1
    DW_AT_name         DW_FORM_strp
    DW_AT value: 0     DW_FORM value: 0
   3      DW_TAG_variable    [no children]
    DW_AT_name         DW_FORM_string
    DW_AT_decl_file    DW_FORM_implicit_const: 1
    DW_AT_decl_line    DW_FORM_data1
    DW_AT_decl_column  DW_FORM_data1
    DW_AT_type         DW_FORM_ref4
    DW_AT_location     DW_FORM_sec_offset
    DW_AT_GNU_locviews DW_FORM_sec_offset
    DW_AT value: 0     DW_FORM value: 0
   4      DW_TAG_pointer_type    [no children]
    DW_AT_byte_size    DW_FORM_implicit_const: 8
    DW_AT_type         DW_FORM_ref4
    DW_AT value: 0     DW_FORM value: 0
   5      DW_TAG_call_site    [has children]
    DW_AT_call_return_pc DW_FORM_addr
    DW_AT_call_origin  DW_FORM_ref4
    DW_AT value: 0     DW_FORM value: 0
   6      DW_TAG_const_type    [no children]
    DW_AT_type         DW_FORM_ref4
    DW_AT value: 0     DW_FORM value: 0
   7      DW_TAG_formal_parameter    [no children]
    DW_AT_name         DW_FORM_strp
    DW_AT_decl_file    DW_FORM_implicit_const: 1
    DW_AT_decl_line    DW_FORM_implicit_const: 18
    DW_AT_decl_column  DW_FORM_data1
    DW_AT_type         DW_FORM_ref4
    DW_AT_location     DW_FORM_sec_offset
    DW_AT_GNU_locviews DW_FORM_sec_offset
    DW_AT value: 0     DW_FORM value: 0
   8      DW_TAG_lexical_block    [has children]
    DW_AT_ranges       DW_FORM_sec_offset
    DW_AT_sibling      DW_FORM_ref4
    DW_AT value: 0     DW_FORM value: 0
   9      DW_TAG_call_site    [has children]
    DW_AT_call_return_pc DW_FORM_addr
    DW_AT_call_origin  DW_FORM_ref4
    DW_AT_sibling      DW_FORM_ref4
    DW_AT value: 0     DW_FORM value: 0
   10      DW_TAG_formal_parameter    [no children]
    DW_AT_name         DW_FORM_string
    DW_AT_decl_file    DW_FORM_implicit_const: 1
    DW_AT_decl_line    DW_FORM_implicit_const: 6
    DW_AT_decl_column  DW_FORM_data1
    DW_AT_type         DW_FORM_ref4
    DW_AT_location     DW_FORM_exprloc
    DW_AT value: 0     DW_FORM value: 0
   11      DW_TAG_compile_unit    [has children]
    DW_AT_producer     DW_FORM_strp
    DW_AT_language     DW_FORM_data1
    DW_AT_name         DW_FORM_line_strp
    DW_AT_comp_dir     DW_FORM_line_strp
    DW_AT_low_pc       DW_FORM_addr
    DW_AT_high_pc      DW_FORM_data8
    DW_AT_stmt_list    DW_FORM_sec_offset
    DW_AT value: 0     DW_FORM value: 0
   12      DW_TAG_typedef    [no children]
    DW_AT_name         DW_FORM_strp
    DW_AT_decl_file    DW_FORM_data1
    DW_AT_decl_line    DW_FORM_data1
    DW_AT_decl_column  DW_FORM_data1
    DW_AT_type         DW_FORM_ref4
    DW_AT value: 0     DW_FORM value: 0
   13      DW_TAG_base_type    [no children]
    DW_AT_byte_size    DW_FORM_data1
    DW_AT_encoding     DW_FORM_data1
    DW_AT_name         DW_FORM_string
    DW_AT value: 0     DW_FORM value: 0
   14      DW_TAG_subprogram    [has children]
    DW_AT_external     DW_FORM_flag_present
    DW_AT_name         DW_FORM_strp
    DW_AT_decl_file    DW_FORM_data1
    DW_AT_decl_line    DW_FORM_data2
    DW_AT_decl_column  DW_FORM_data1
    DW_AT_prototyped   DW_FORM_flag_present
    DW_AT_type         DW_FORM_ref4
    DW_AT_declaration  DW_FORM_flag_present
    DW_AT_sibling      DW_FORM_ref4
    DW_AT value: 0     DW_FORM value: 0
   15      DW_TAG_formal_parameter    [no children]
    DW_AT_type         DW_FORM_ref4
    DW_AT value: 0     DW_FORM value: 0
   16      DW_TAG_unspecified_parameters    [no children]
    DW_AT value: 0     DW_FORM value: 0
   17      DW_TAG_subprogram    [has children]
    DW_AT_external     DW_FORM_flag_present
    DW_AT_name         DW_FORM_strp
    DW_AT_decl_file    DW_FORM_data1
    DW_AT_decl_line    DW_FORM_data1
    DW_AT_decl_column  DW_FORM_data1
    DW_AT_prototyped   DW_FORM_flag_present
    DW_AT_type         DW_FORM_ref4
    DW_AT_low_pc       DW_FORM_addr
    DW_AT_high_pc      DW_FORM_data8
    DW_AT_frame_base   DW_FORM_exprloc
    DW_AT_call_all_calls DW_FORM_flag_present
    DW_AT_sibling      DW_FORM_ref4
    DW_AT value: 0     DW_FORM value: 0
   18      DW_TAG_variable    [no children]
    DW_AT_name         DW_FORM_string
    DW_AT_decl_file    DW_FORM_data1
    DW_AT_decl_line    DW_FORM_data1
    DW_AT_decl_column  DW_FORM_data1
    DW_AT_type         DW_FORM_ref4
    DW_AT_location     DW_FORM_exprloc
    DW_AT value: 0     DW_FORM value: 0
   19      DW_TAG_variable    [no children]
    DW_AT_name         DW_FORM_string
    DW_AT_decl_file    DW_FORM_data1
    DW_AT_decl_line    DW_FORM_data1
    DW_AT_decl_column  DW_FORM_data1
    DW_AT_type         DW_FORM_ref4
    DW_AT_const_value  DW_FORM_data1
    DW_AT value: 0     DW_FORM value: 0
   20      DW_TAG_array_type    [has children]
    DW_AT_type         DW_FORM_ref4
    DW_AT_sibling      DW_FORM_ref4
    DW_AT value: 0     DW_FORM value: 0
   21      DW_TAG_subrange_type    [no children]
    DW_AT_type         DW_FORM_ref4
    DW_AT_upper_bound  DW_FORM_data1
    DW_AT value: 0     DW_FORM value: 0
   22      DW_TAG_subprogram    [has children]
    DW_AT_external     DW_FORM_flag_present
    DW_AT_name         DW_FORM_strp
    DW_AT_decl_file    DW_FORM_data1
    DW_AT_decl_line    DW_FORM_data1
    DW_AT_decl_column  DW_FORM_data1
    DW_AT_prototyped   DW_FORM_flag_present
    DW_AT_low_pc       DW_FORM_addr
    DW_AT_high_pc      DW_FORM_data8
    DW_AT_frame_base   DW_FORM_exprloc
    DW_AT_call_all_calls DW_FORM_flag_present
    DW_AT_sibling      DW_FORM_ref4
    DW_AT value: 0     DW_FORM value: 0
   23      DW_TAG_lexical_block    [has children]
    DW_AT_low_pc       DW_FORM_addr
    DW_AT_high_pc      DW_FORM_data8
    DW_AT value: 0     DW_FORM value: 0
   24      DW_TAG_lexical_block    [has children]
    DW_AT_ranges       DW_FORM_sec_offset
    DW_AT value: 0     DW_FORM value: 0

Raw dump of debug contents of section .debug_line (loaded from a.out):

  Offset:                      0
  Length:                      332
  DWARF Version:               5
  Address size (bytes):        8
  Segment selector (bytes):    0
  Prologue Length:             64
  Minimum Instruction Length:  4
  Maximum Ops per Instruction: 1
  Initial value of 'is_stmt':  1
  Line Base:                   -5
  Line Range:                  14
  Opcode Base:                 13

 Opcodes:
  Opcode 1 has 0 args
  Opcode 2 has 1 arg
  Opcode 3 has 1 arg
  Opcode 4 has 1 arg
  Opcode 5 has 1 arg
  Opcode 6 has 0 args
  Opcode 7 has 0 args
  Opcode 8 has 0 args
  Opcode 9 has 1 arg
  Opcode 10 has 0 args
  Opcode 11 has 0 args
  Opcode 12 has 1 arg

 The Directory Table (offset 0x22, lines 4, columns 1):
  Entry	Name
  0	(indirect line string, offset: 0): /root/hello-world/aarch64-linux-gnu
  1	(indirect line string, offset: 0x2e): ..
  2	(indirect line string, offset: 0x31): /usr/lib/gcc-cross/aarch64-linux-gnu/12/include
  3	(indirect line string, offset: 0x61): /usr/aarch64-linux-gnu/include

 The File Name Table (offset 0x38, lines 4, columns 2):
  Entry	Dir	Name
  0	1	(indirect line string, offset: 0x27): sort.c
  1	1	(indirect line string, offset: 0x27): sort.c
  2	2	(indirect line string, offset: 0x80): stddef.h
  3	3	(indirect line string, offset: 0x89): stdio.h

 Line Number Statements:
  [0x0000004c]  Set column to 45
  [0x0000004e]  Extended opcode 2: set Address to 0x754
  [0x00000059]  Special opcode 10: advance Address by 0 to 0x754 and Line by 5 to 6
  [0x0000005a]  Set column to 2
  [0x0000005c]  Special opcode 6: advance Address by 0 to 0x754 and Line by 1 to 7 (view 1)
  [0x0000005d]  Set column to 6
  [0x0000005f]  Copy (view 2)
  [0x00000060]  Set column to 22
  [0x00000062]  Copy (view 3)
  [0x00000063]  Set column to 13
  [0x00000065]  Set is_stmt to 0
  [0x00000066]  Special opcode 33: advance Address by 8 to 0x75c and Line by 0 to 7
  [0x00000067]  Set column to 29
  [0x00000069]  Special opcode 22: advance Address by 4 to 0x760 and Line by 3 to 10
  [0x0000006a]  Set column to 3
  [0x0000006c]  Extended opcode 4: set Discriminator to 2
  [0x00000070]  Set is_stmt to 1
  [0x00000071]  Special opcode 37: advance Address by 8 to 0x768 and Line by 4 to 14
  [0x00000072]  Set column to 8
  [0x00000074]  Extended opcode 4: set Discriminator to 2
  [0x00000078]  Set is_stmt to 0
  [0x00000079]  Copy (view 1)
  [0x0000007a]  Set column to 27
  [0x0000007c]  Extended opcode 4: set Discriminator to 2
  [0x00000080]  Set is_stmt to 1
  [0x00000081]  Advance Line by -7 to 7
  [0x00000083]  Special opcode 19: advance Address by 4 to 0x76c and Line by 0 to 7
  [0x00000084]  Set column to 22
  [0x00000086]  Extended opcode 4: set Discriminator to 2
  [0x0000008a]  Special opcode 19: advance Address by 4 to 0x770 and Line by 0 to 7
  [0x0000008b]  Set column to 3
  [0x0000008d]  Special opcode 34: advance Address by 8 to 0x778 and Line by 1 to 8
  [0x0000008e]  Set column to 7
  [0x00000090]  Set is_stmt to 0
  [0x00000091]  Copy (view 1)
  [0x00000092]  Set column to 3
  [0x00000094]  Set is_stmt to 1
  [0x00000095]  Special opcode 20: advance Address by 4 to 0x77c and Line by 1 to 9
  [0x00000096]  Special opcode 6: advance Address by 0 to 0x77c and Line by 1 to 10 (view 1)
  [0x00000097]  Set column to 18
  [0x00000099]  Copy (view 2)
  [0x0000009a]  Set column to 29
  [0x0000009c]  Extended opcode 4: set Discriminator to 1
  [0x000000a0]  Set is_stmt to 0
  [0x000000a1]  Special opcode 33: advance Address by 8 to 0x784 and Line by 0 to 10
  [0x000000a2]  Set column to 18
  [0x000000a4]  Extended opcode 4: set Discriminator to 1
  [0x000000a8]  Special opcode 19: advance Address by 4 to 0x788 and Line by 0 to 10
  [0x000000a9]  Set column to 4
  [0x000000ab]  Set is_stmt to 1
  [0x000000ac]  Special opcode 34: advance Address by 8 to 0x790 and Line by 1 to 11
  [0x000000ad]  Set column to 9
  [0x000000af]  Set is_stmt to 0
  [0x000000b0]  Copy (view 1)
  [0x000000b1]  Set column to 4
  [0x000000b3]  Set is_stmt to 1
  [0x000000b4]  Special opcode 20: advance Address by 4 to 0x794 and Line by 1 to 12
  [0x000000b5]  Set column to 18
  [0x000000b7]  Special opcode 3: advance Address by 0 to 0x794 and Line by -2 to 10 (view 1)
  [0x000000b8]  Set is_stmt to 0
  [0x000000b9]  Special opcode 19: advance Address by 4 to 0x798 and Line by 0 to 10
  [0x000000ba]  Set column to 3
  [0x000000bc]  Set is_stmt to 1
  [0x000000bd]  Special opcode 37: advance Address by 8 to 0x7a0 and Line by 4 to 14
  [0x000000be]  Set column to 8
  [0x000000c0]  Set is_stmt to 0
  [0x000000c1]  Copy (view 1)
  [0x000000c2]  Set column to 27
  [0x000000c4]  Set is_stmt to 1
  [0x000000c5]  Advance Line by -7 to 7
  [0x000000c7]  Special opcode 19: advance Address by 4 to 0x7a4 and Line by 0 to 7
  [0x000000c8]  Set column to 22
  [0x000000ca]  Special opcode 19: advance Address by 4 to 0x7a8 and Line by 0 to 7
  [0x000000cb]  Set is_stmt to 0
  [0x000000cc]  Copy (view 1)
  [0x000000cd]  Special opcode 19: advance Address by 4 to 0x7ac and Line by 0 to 7
  [0x000000ce]  Set column to 1
  [0x000000d0]  Advance Line by 9 to 16
  [0x000000d2]  Copy (view 1)
  [0x000000d3]  Set column to 34
  [0x000000d5]  Set is_stmt to 1
  [0x000000d6]  Special opcode 21: advance Address by 4 to 0x7b0 and Line by 2 to 18
  [0x000000d7]  Set is_stmt to 0
  [0x000000d8]  Copy (view 1)
  [0x000000d9]  Set column to 5
  [0x000000db]  Set is_stmt to 1
  [0x000000dc]  Special opcode 63: advance Address by 16 to 0x7c0 and Line by 2 to 20
  [0x000000dd]  Set column to 9
  [0x000000df]  Set is_stmt to 0
  [0x000000e0]  Copy (view 1)
  [0x000000e1]  Special opcode 19: advance Address by 4 to 0x7c4 and Line by 0 to 20
  [0x000000e2]  Special opcode 33: advance Address by 8 to 0x7cc and Line by 0 to 20
  [0x000000e3]  Set column to 5
  [0x000000e5]  Set is_stmt to 1
  [0x000000e6]  Special opcode 63: advance Address by 16 to 0x7dc and Line by 2 to 22
  [0x000000e7]  Special opcode 7: advance Address by 0 to 0x7dc and Line by 2 to 24 (view 1)
  [0x000000e8]  Set column to 10
  [0x000000ea]  Copy (view 2)
  [0x000000eb]  Set column to 26
  [0x000000ed]  Copy (view 3)
  [0x000000ee]  Set column to 9
  [0x000000f0]  Set is_stmt to 0
  [0x000000f1]  Special opcode 1: advance Address by 0 to 0x7dc and Line by -4 to 20 (view 4)
  [0x000000f2]  Special opcode 24: advance Address by 4 to 0x7e0 and Line by 5 to 25
  [0x000000f3]  Extended opcode 4: set Discriminator to 4
  [0x000000f7]  Special opcode 89: advance Address by 24 to 0x7f8 and Line by 0 to 25
  [0x000000f8]  Set column to 32
  [0x000000fa]  Extended opcode 4: set Discriminator to 4
  [0x000000fe]  Set is_stmt to 1
  [0x000000ff]  Special opcode 46: advance Address by 12 to 0x804 and Line by -1 to 24
  [0x00000100]  Set column to 26
  [0x00000102]  Extended opcode 4: set Discriminator to 4
  [0x00000106]  Copy (view 1)
  [0x00000107]  Set column to 9
  [0x00000109]  Special opcode 20: advance Address by 4 to 0x808 and Line by 1 to 25
  [0x0000010a]  Set column to 32
  [0x0000010c]  Special opcode 130: advance Address by 36 to 0x82c and Line by -1 to 24
  [0x0000010d]  Set column to 26
  [0x0000010f]  Copy (view 1)
  [0x00000110]  Set is_stmt to 0
  [0x00000111]  Copy (view 2)
  [0x00000112]  Set column to 5
  [0x00000114]  Set is_stmt to 1
  [0x00000115]  Special opcode 8: advance Address by 0 to 0x82c and Line by 3 to 27 (view 3)
  [0x00000116]  Special opcode 49: advance Address by 12 to 0x838 and Line by 2 to 29
  [0x00000117]  Set column to 10
  [0x00000119]  Copy (view 1)
  [0x0000011a]  Set column to 26
  [0x0000011c]  Copy (view 2)
  [0x0000011d]  Set column to 5
  [0x0000011f]  Set is_stmt to 0
  [0x00000120]  Special opcode 3: advance Address by 0 to 0x838 and Line by -2 to 27 (view 3)
  [0x00000121]  Set column to 9
  [0x00000123]  Special opcode 22: advance Address by 4 to 0x83c and Line by 3 to 30
  [0x00000124]  Extended opcode 4: set Discriminator to 4
  [0x00000128]  Special opcode 89: advance Address by 24 to 0x854 and Line by 0 to 30
  [0x00000129]  Set column to 32
  [0x0000012b]  Extended opcode 4: set Discriminator to 4
  [0x0000012f]  Set is_stmt to 1
  [0x00000130]  Special opcode 46: advance Address by 12 to 0x860 and Line by -1 to 29
  [0x00000131]  Set column to 26
  [0x00000133]  Extended opcode 4: set Discriminator to 4
  [0x00000137]  Copy (view 1)
  [0x00000138]  Set column to 9
  [0x0000013a]  Special opcode 20: advance Address by 4 to 0x864 and Line by 1 to 30
  [0x0000013b]  Set column to 32
  [0x0000013d]  Special opcode 130: advance Address by 36 to 0x888 and Line by -1 to 29
  [0x0000013e]  Set column to 26
  [0x00000140]  Copy (view 1)
  [0x00000141]  Set is_stmt to 0
  [0x00000142]  Copy (view 2)
  [0x00000143]  Set column to 5
  [0x00000145]  Set is_stmt to 1
  [0x00000146]  Special opcode 8: advance Address by 0 to 0x888 and Line by 3 to 32 (view 3)
  [0x00000147]  Set column to 1
  [0x00000149]  Set is_stmt to 0
  [0x0000014a]  Special opcode 6: advance Address by 0 to 0x888 and Line by 1 to 33 (view 4)
  [0x0000014b]  Advance PC by 20 to 0x89c
  [0x0000014d]  Extended opcode 1: End of Sequence


Contents of the .debug_str section (loaded from a.out):

  0x00000000 73697a65 5f740069 6e736572 74696f6e size_t.insertion
  0x00000010 5f736f72 74006c6f 6e672075 6e736967 _sort.long unsig
  0x00000020 6e656420 696e7400 474e5520 43393920 ned int.GNU C99 
  0x00000030 31322e32 2e30202d 6d6c6974 746c652d 12.2.0 -mlittle-
  0x00000040 656e6469 616e202d 6d616269 3d6c7036 endian -mabi=lp6
  0x00000050 34202d67 202d4f31 202d7374 643d676e 4 -g -O1 -std=gn
  0x00000060 75393920 2d666173 796e6368 726f6e6f u99 -fasynchrono
  0x00000070 75732d75 6e77696e 642d7461 626c6573 us-unwind-tables
  0x00000080 00756e73 69676e65 64206368 6172006d .unsigned char.m
  0x00000090 61696e00 6c6f6e67 20696e74 00617267 ain.long int.arg
  0x000000a0 63007368 6f727420 756e7369 676e6564 c.short unsigned
  0x000000b0 20696e74 00707269 6e746600 73686f72  int.printf.shor
  0x000000c0 7420696e 74006172 677600            t int.argv.

Contents of the .debug_line_str section (loaded from a.out):

  0x00000000 2f726f6f 742f6865 6c6c6f2d 776f726c /root/hello-worl
  0x00000010 642f6161 72636836 342d6c69 6e75782d d/aarch64-linux-
  0x00000020 676e7500 2e2e2f73 6f72742e 63002e2e gnu.../sort.c...
  0x00000030 002f7573 722f6c69 622f6763 632d6372 ./usr/lib/gcc-cr
  0x00000040 6f73732f 61617263 6836342d 6c696e75 oss/aarch64-linu
  0x00000050 782d676e 752f3132 2f696e63 6c756465 x-gnu/12/include
  0x00000060 002f7573 722f6161 72636836 342d6c69 ./usr/aarch64-li
  0x00000070 6e75782d 676e752f 696e636c 75646500 nux-gnu/include.
  0x00000080 73746464 65662e68 00737464 696f2e68 stddef.h.stdio.h
  0x00000090 00                                  .

Contents of the .debug_loclists section (loaded from a.out):

    Offset   Begin            End              Expression

    0000000c v000000000000000 v000000000000000 location view pair
    0000000e v000000000000000 v000000000000000 location view pair

    00000010 v000000000000000 v000000000000000 views at 0000000c for:
             00000000000007b0 00000000000007c4 (DW_OP_reg0 (x0))
    00000015 v000000000000000 v000000000000000 views at 0000000e for:
             00000000000007c4 000000000000089c (DW_OP_entry_value: (DW_OP_reg0 (x0)); DW_OP_stack_value)
    0000001e <End of list>

    0000001f v000000000000000 v000000000000000 location view pair
    00000021 v000000000000000 v000000000000000 location view pair

    00000023 v000000000000000 v000000000000000 views at 0000001f for:
             00000000000007b0 00000000000007cc (DW_OP_reg1 (x1))
    00000028 v000000000000000 v000000000000000 views at 00000021 for:
             00000000000007cc 000000000000089c (DW_OP_entry_value: (DW_OP_reg1 (x1)); DW_OP_stack_value)
    00000031 <End of list>

    00000032 v000000000000003 v000000000000000 location view pair
    00000034 v000000000000000 v000000000000001 location view pair
    00000036 v000000000000001 v000000000000000 location view pair
    00000038 v000000000000000 v000000000000001 location view pair
    0000003a v000000000000001 v000000000000002 location view pair

    0000003c v000000000000003 v000000000000000 views at 00000032 for:
             00000000000007dc 00000000000007f8 (DW_OP_lit0; DW_OP_stack_value)
    00000044 v000000000000000 v000000000000001 views at 00000034 for:
             00000000000007f8 0000000000000804 (DW_OP_breg19 (x19): -1; DW_OP_stack_value)
    0000004d v000000000000001 v000000000000000 views at 00000036 for:
             0000000000000804 0000000000000808 (DW_OP_reg19 (x19))
    00000054 v000000000000000 v000000000000001 views at 00000038 for:
             0000000000000808 000000000000082c (DW_OP_breg19 (x19): -1; DW_OP_stack_value)
    0000005d v000000000000001 v000000000000002 views at 0000003a for:
             000000000000082c 000000000000082c (DW_OP_reg19 (x19))
    00000064 <End of list>

    00000065 v000000000000002 v000000000000000 location view pair
    00000067 v000000000000000 v000000000000001 location view pair
    00000069 v000000000000001 v000000000000000 location view pair
    0000006b v000000000000000 v000000000000001 location view pair
    0000006d v000000000000001 v000000000000002 location view pair

    0000006f v000000000000002 v000000000000000 views at 00000065 for:
             0000000000000838 0000000000000854 (DW_OP_lit0; DW_OP_stack_value)
    00000077 v000000000000000 v000000000000001 views at 00000067 for:
             0000000000000854 0000000000000860 (DW_OP_breg19 (x19): -1; DW_OP_stack_value)
    00000080 v000000000000001 v000000000000000 views at 00000069 for:
             0000000000000860 0000000000000864 (DW_OP_reg19 (x19))
    00000087 v000000000000000 v000000000000001 views at 0000006b for:
             0000000000000864 0000000000000888 (DW_OP_breg19 (x19): -1; DW_OP_stack_value)
    00000090 v000000000000001 v000000000000002 views at 0000006d for:
             0000000000000888 0000000000000888 (DW_OP_reg19 (x19))
    00000097 <End of list>

    00000098 v000000000000003 v000000000000000 location view pair
    0000009a v000000000000000 v000000000000000 location view pair
    0000009c v000000000000000 v000000000000000 location view pair
    0000009e v000000000000000 v000000000000000 location view pair

    000000a0 v000000000000003 v000000000000000 views at 00000098 for:
             0000000000000754 0000000000000768 (DW_OP_lit1; DW_OP_stack_value)
    000000a6 v000000000000000 v000000000000000 views at 0000009a for:
             0000000000000768 00000000000007a0 (DW_OP_reg6 (x6))
    000000ab v000000000000000 v000000000000000 views at 0000009c for:
             00000000000007a0 00000000000007a8 (DW_OP_reg2 (x2))
    000000b0 v000000000000000 v000000000000000 views at 0000009e for:
             00000000000007a8 00000000000007ac (DW_OP_reg6 (x6))
    000000b5 <End of list>

    000000b6 v000000000000000 v000000000000000 location view pair
    000000b8 v000000000000000 v000000000000000 location view pair

    000000ba v000000000000000 v000000000000000 views at 000000b6 for:
             0000000000000768 0000000000000778 (DW_OP_reg4 (x4))
    000000bf v000000000000000 v000000000000000 views at 000000b8 for:
             000000000000077c 00000000000007ac (DW_OP_reg4 (x4))
    000000c4 <End of list>

    000000c5 v000000000000000 v000000000000000 location view pair
    000000c7 v000000000000001 v000000000000000 location view pair
    000000c9 v000000000000000 v000000000000001 location view pair
    000000cb v000000000000001 v000000000000000 location view pair
    000000cd v000000000000000 v000000000000000 location view pair

    000000cf v000000000000000 v000000000000000 views at 000000c5 for:
             0000000000000768 0000000000000778 (DW_OP_reg2 (x2))
    000000d4 v000000000000001 v000000000000000 views at 000000c7 for:
             000000000000077c 0000000000000784 (DW_OP_reg6 (x6))
    000000d9 v000000000000000 v000000000000001 views at 000000c9 for:
             0000000000000784 0000000000000794 (DW_OP_reg2 (x2))
    000000de v000000000000001 v000000000000000 views at 000000cb for:
             0000000000000794 0000000000000798 (DW_OP_breg2 (x2): -1; DW_OP_stack_value)
    000000e5 v000000000000000 v000000000000000 views at 000000cd for:
             0000000000000798 00000000000007ac (DW_OP_reg2 (x2))
    000000ea <End of list>

Contents of the .debug_rnglists section (loaded from a.out):

 Table at Offset: 0:
  Length:          0x25
  DWARF version:   5
  Address size:    8
  Segment size:    0
  Offset entries:  0

  Offset: 0xc, Index: 0
    Offset   Begin    End
    0000000c 000000000000000c 0000000000000018 
    0000000f 0000000000000024 0000000000000050 
    00000012 <End of list>

